ARM GAS  C:\Users\ANDREW~1\AppData\Local\Temp\ccpZtOe3.s 			page 1


   1              		.syntax unified
   2              		.cpu cortex-m3
   3              		.fpu softvfp
   4              		.eabi_attribute 20, 1
   5              		.eabi_attribute 21, 1
   6              		.eabi_attribute 23, 3
   7              		.eabi_attribute 24, 1
   8              		.eabi_attribute 25, 1
   9              		.eabi_attribute 26, 1
  10              		.eabi_attribute 30, 1
  11              		.eabi_attribute 34, 1
  12              		.eabi_attribute 18, 4
  13              		.thumb
  14              		.syntax unified
  15              		.file	"cyfitter_cfg.c"
  16              		.text
  17              	.Ltext0:
  18              		.cfi_sections	.debug_frame
  19              		.section	.text.CyClockStartupError,"ax",%progbits
  20              		.align	2
  21              		.thumb
  22              		.thumb_func
  23              		.type	CyClockStartupError, %function
  24              	CyClockStartupError:
  25              	.LFB3:
  26              		.file 1 "Generated_Source\\PSoC5\\cyfitter_cfg.c"
   1:Generated_Source\PSoC5/cyfitter_cfg.c **** 
   2:Generated_Source\PSoC5/cyfitter_cfg.c **** /*******************************************************************************
   3:Generated_Source\PSoC5/cyfitter_cfg.c **** * File Name: cyfitter_cfg.c
   4:Generated_Source\PSoC5/cyfitter_cfg.c **** * 
   5:Generated_Source\PSoC5/cyfitter_cfg.c **** * PSoC Creator  4.4
   6:Generated_Source\PSoC5/cyfitter_cfg.c **** *
   7:Generated_Source\PSoC5/cyfitter_cfg.c **** * Description:
   8:Generated_Source\PSoC5/cyfitter_cfg.c **** * This file contains device initialization code.
   9:Generated_Source\PSoC5/cyfitter_cfg.c **** * Except for the user defined sections in CyClockStartupError(), this file should not be modified.
  10:Generated_Source\PSoC5/cyfitter_cfg.c **** * This file is automatically generated by PSoC Creator.
  11:Generated_Source\PSoC5/cyfitter_cfg.c **** *
  12:Generated_Source\PSoC5/cyfitter_cfg.c **** ********************************************************************************
  13:Generated_Source\PSoC5/cyfitter_cfg.c **** * Copyright (c) 2007-2020 Cypress Semiconductor.  All rights reserved.
  14:Generated_Source\PSoC5/cyfitter_cfg.c **** * You may use this file only in accordance with the license, terms, conditions, 
  15:Generated_Source\PSoC5/cyfitter_cfg.c **** * disclaimers, and limitations in the end user license agreement accompanying 
  16:Generated_Source\PSoC5/cyfitter_cfg.c **** * the software package with which this file was provided.
  17:Generated_Source\PSoC5/cyfitter_cfg.c **** ********************************************************************************/
  18:Generated_Source\PSoC5/cyfitter_cfg.c **** 
  19:Generated_Source\PSoC5/cyfitter_cfg.c **** #include <string.h>
  20:Generated_Source\PSoC5/cyfitter_cfg.c **** #include "cytypes.h"
  21:Generated_Source\PSoC5/cyfitter_cfg.c **** #include "cydevice_trm.h"
  22:Generated_Source\PSoC5/cyfitter_cfg.c **** #include "cyfitter.h"
  23:Generated_Source\PSoC5/cyfitter_cfg.c **** #include "CyLib.h"
  24:Generated_Source\PSoC5/cyfitter_cfg.c **** #include "cyfitter_cfg.h"
  25:Generated_Source\PSoC5/cyfitter_cfg.c **** #include "cyapicallbacks.h"
  26:Generated_Source\PSoC5/cyfitter_cfg.c **** 
  27:Generated_Source\PSoC5/cyfitter_cfg.c **** #define CY_NEED_CYCLOCKSTARTUPERROR 1
  28:Generated_Source\PSoC5/cyfitter_cfg.c **** 
  29:Generated_Source\PSoC5/cyfitter_cfg.c **** 
  30:Generated_Source\PSoC5/cyfitter_cfg.c **** #if defined(__GNUC__) || defined(__ARMCC_VERSION)
  31:Generated_Source\PSoC5/cyfitter_cfg.c ****     #define CYPACKED 
ARM GAS  C:\Users\ANDREW~1\AppData\Local\Temp\ccpZtOe3.s 			page 2


  32:Generated_Source\PSoC5/cyfitter_cfg.c ****     #define CYPACKED_ATTR __attribute__ ((packed))
  33:Generated_Source\PSoC5/cyfitter_cfg.c ****     #define CYALIGNED __attribute__ ((aligned))
  34:Generated_Source\PSoC5/cyfitter_cfg.c ****     #define CY_CFG_UNUSED __attribute__ ((unused))
  35:Generated_Source\PSoC5/cyfitter_cfg.c ****     #ifndef CY_CFG_SECTION
  36:Generated_Source\PSoC5/cyfitter_cfg.c ****         #define CY_CFG_SECTION __attribute__ ((section(".psocinit")))
  37:Generated_Source\PSoC5/cyfitter_cfg.c ****     #endif
  38:Generated_Source\PSoC5/cyfitter_cfg.c ****     
  39:Generated_Source\PSoC5/cyfitter_cfg.c ****     #if defined(__ARMCC_VERSION)
  40:Generated_Source\PSoC5/cyfitter_cfg.c ****         #define CY_CFG_MEMORY_BARRIER() __memory_changed()
  41:Generated_Source\PSoC5/cyfitter_cfg.c ****     #else
  42:Generated_Source\PSoC5/cyfitter_cfg.c ****         #define CY_CFG_MEMORY_BARRIER() __sync_synchronize()
  43:Generated_Source\PSoC5/cyfitter_cfg.c ****     #endif
  44:Generated_Source\PSoC5/cyfitter_cfg.c ****     
  45:Generated_Source\PSoC5/cyfitter_cfg.c **** #elif defined(__ICCARM__)
  46:Generated_Source\PSoC5/cyfitter_cfg.c ****     #include <intrinsics.h>
  47:Generated_Source\PSoC5/cyfitter_cfg.c **** 
  48:Generated_Source\PSoC5/cyfitter_cfg.c ****     #define CYPACKED __packed
  49:Generated_Source\PSoC5/cyfitter_cfg.c ****     #define CYPACKED_ATTR 
  50:Generated_Source\PSoC5/cyfitter_cfg.c ****     #define CYALIGNED _Pragma("data_alignment=4")
  51:Generated_Source\PSoC5/cyfitter_cfg.c ****     #define CY_CFG_UNUSED _Pragma("diag_suppress=Pe177")
  52:Generated_Source\PSoC5/cyfitter_cfg.c ****     #define CY_CFG_SECTION _Pragma("location=\".psocinit\"")
  53:Generated_Source\PSoC5/cyfitter_cfg.c ****     
  54:Generated_Source\PSoC5/cyfitter_cfg.c ****     #define CY_CFG_MEMORY_BARRIER() __DMB()
  55:Generated_Source\PSoC5/cyfitter_cfg.c ****     
  56:Generated_Source\PSoC5/cyfitter_cfg.c **** #else
  57:Generated_Source\PSoC5/cyfitter_cfg.c ****     #error Unsupported toolchain
  58:Generated_Source\PSoC5/cyfitter_cfg.c **** #endif
  59:Generated_Source\PSoC5/cyfitter_cfg.c **** 
  60:Generated_Source\PSoC5/cyfitter_cfg.c **** #ifndef CYCODE
  61:Generated_Source\PSoC5/cyfitter_cfg.c ****     #define CYCODE
  62:Generated_Source\PSoC5/cyfitter_cfg.c **** #endif
  63:Generated_Source\PSoC5/cyfitter_cfg.c **** #ifndef CYDATA
  64:Generated_Source\PSoC5/cyfitter_cfg.c ****     #define CYDATA
  65:Generated_Source\PSoC5/cyfitter_cfg.c **** #endif
  66:Generated_Source\PSoC5/cyfitter_cfg.c **** #ifndef CYFAR
  67:Generated_Source\PSoC5/cyfitter_cfg.c ****     #define CYFAR
  68:Generated_Source\PSoC5/cyfitter_cfg.c **** #endif
  69:Generated_Source\PSoC5/cyfitter_cfg.c **** #ifndef CYXDATA
  70:Generated_Source\PSoC5/cyfitter_cfg.c ****     #define CYXDATA
  71:Generated_Source\PSoC5/cyfitter_cfg.c **** #endif
  72:Generated_Source\PSoC5/cyfitter_cfg.c **** 
  73:Generated_Source\PSoC5/cyfitter_cfg.c **** 
  74:Generated_Source\PSoC5/cyfitter_cfg.c **** CY_CFG_UNUSED
  75:Generated_Source\PSoC5/cyfitter_cfg.c **** static void CYMEMZERO(void *s, size_t n);
  76:Generated_Source\PSoC5/cyfitter_cfg.c **** CY_CFG_UNUSED
  77:Generated_Source\PSoC5/cyfitter_cfg.c **** static void CYMEMZERO(void *s, size_t n)
  78:Generated_Source\PSoC5/cyfitter_cfg.c **** {
  79:Generated_Source\PSoC5/cyfitter_cfg.c **** 	(void)memset(s, 0, n);
  80:Generated_Source\PSoC5/cyfitter_cfg.c **** }
  81:Generated_Source\PSoC5/cyfitter_cfg.c **** CY_CFG_UNUSED
  82:Generated_Source\PSoC5/cyfitter_cfg.c **** static void CYCONFIGCPY(void *dest, const void *src, size_t n);
  83:Generated_Source\PSoC5/cyfitter_cfg.c **** CY_CFG_UNUSED
  84:Generated_Source\PSoC5/cyfitter_cfg.c **** static void CYCONFIGCPY(void *dest, const void *src, size_t n)
  85:Generated_Source\PSoC5/cyfitter_cfg.c **** {
  86:Generated_Source\PSoC5/cyfitter_cfg.c **** 	(void)memcpy(dest, src, n);
  87:Generated_Source\PSoC5/cyfitter_cfg.c **** }
  88:Generated_Source\PSoC5/cyfitter_cfg.c **** CY_CFG_UNUSED
ARM GAS  C:\Users\ANDREW~1\AppData\Local\Temp\ccpZtOe3.s 			page 3


  89:Generated_Source\PSoC5/cyfitter_cfg.c **** static void CYCONFIGCPYCODE(void *dest, const void *src, size_t n);
  90:Generated_Source\PSoC5/cyfitter_cfg.c **** CY_CFG_UNUSED
  91:Generated_Source\PSoC5/cyfitter_cfg.c **** static void CYCONFIGCPYCODE(void *dest, const void *src, size_t n)
  92:Generated_Source\PSoC5/cyfitter_cfg.c **** {
  93:Generated_Source\PSoC5/cyfitter_cfg.c **** 	(void)memcpy(dest, src, n);
  94:Generated_Source\PSoC5/cyfitter_cfg.c **** }
  95:Generated_Source\PSoC5/cyfitter_cfg.c **** 
  96:Generated_Source\PSoC5/cyfitter_cfg.c **** 
  97:Generated_Source\PSoC5/cyfitter_cfg.c **** 
  98:Generated_Source\PSoC5/cyfitter_cfg.c **** 
  99:Generated_Source\PSoC5/cyfitter_cfg.c **** /* Clock startup error codes                                                   */
 100:Generated_Source\PSoC5/cyfitter_cfg.c **** #define CYCLOCKSTART_NO_ERROR    0u
 101:Generated_Source\PSoC5/cyfitter_cfg.c **** #define CYCLOCKSTART_XTAL_ERROR  1u
 102:Generated_Source\PSoC5/cyfitter_cfg.c **** #define CYCLOCKSTART_32KHZ_ERROR 2u
 103:Generated_Source\PSoC5/cyfitter_cfg.c **** #define CYCLOCKSTART_PLL_ERROR   3u
 104:Generated_Source\PSoC5/cyfitter_cfg.c **** #define CYCLOCKSTART_FLL_ERROR   4u
 105:Generated_Source\PSoC5/cyfitter_cfg.c **** #define CYCLOCKSTART_WCO_ERROR   5u
 106:Generated_Source\PSoC5/cyfitter_cfg.c **** 
 107:Generated_Source\PSoC5/cyfitter_cfg.c **** 
 108:Generated_Source\PSoC5/cyfitter_cfg.c **** #ifdef CY_NEED_CYCLOCKSTARTUPERROR
 109:Generated_Source\PSoC5/cyfitter_cfg.c **** /*******************************************************************************
 110:Generated_Source\PSoC5/cyfitter_cfg.c **** * Function Name: CyClockStartupError
 111:Generated_Source\PSoC5/cyfitter_cfg.c **** ********************************************************************************
 112:Generated_Source\PSoC5/cyfitter_cfg.c **** * Summary:
 113:Generated_Source\PSoC5/cyfitter_cfg.c **** *  If an error is encountered during clock configuration (crystal startup error,
 114:Generated_Source\PSoC5/cyfitter_cfg.c **** *  PLL lock error, etc.), the system will end up here.  Unless reimplemented by
 115:Generated_Source\PSoC5/cyfitter_cfg.c **** *  the customer, this function will stop in an infinite loop.
 116:Generated_Source\PSoC5/cyfitter_cfg.c **** *
 117:Generated_Source\PSoC5/cyfitter_cfg.c **** * Parameters:
 118:Generated_Source\PSoC5/cyfitter_cfg.c **** *   void
 119:Generated_Source\PSoC5/cyfitter_cfg.c **** *
 120:Generated_Source\PSoC5/cyfitter_cfg.c **** * Return:
 121:Generated_Source\PSoC5/cyfitter_cfg.c **** *   void
 122:Generated_Source\PSoC5/cyfitter_cfg.c **** *
 123:Generated_Source\PSoC5/cyfitter_cfg.c **** *******************************************************************************/
 124:Generated_Source\PSoC5/cyfitter_cfg.c **** CY_CFG_UNUSED
 125:Generated_Source\PSoC5/cyfitter_cfg.c **** static void CyClockStartupError(uint8 errorCode);
 126:Generated_Source\PSoC5/cyfitter_cfg.c **** CY_CFG_UNUSED
 127:Generated_Source\PSoC5/cyfitter_cfg.c **** static void CyClockStartupError(uint8 errorCode)
 128:Generated_Source\PSoC5/cyfitter_cfg.c **** {
  27              		.loc 1 128 0
  28              		.cfi_startproc
  29              		@ Volatile: function does not return.
  30              		@ args = 0, pretend = 0, frame = 0
  31              		@ frame_needed = 0, uses_anonymous_args = 0
  32              		@ link register save eliminated.
  33              	.LVL0:
  34              	.L2:
  35 0000 FEE7     		b	.L2
  36              		.cfi_endproc
  37              	.LFE3:
  38              		.size	CyClockStartupError, .-CyClockStartupError
  39 0002 00BF     		.section	.text.cfg_write_bytes32,"ax",%progbits
  40              		.align	2
  41              		.thumb
  42              		.thumb_func
  43              		.type	cfg_write_bytes32, %function
ARM GAS  C:\Users\ANDREW~1\AppData\Local\Temp\ccpZtOe3.s 			page 4


  44              	cfg_write_bytes32:
  45              	.LFB4:
 129:Generated_Source\PSoC5/cyfitter_cfg.c ****     /* To remove the compiler warning if errorCode not used.                */
 130:Generated_Source\PSoC5/cyfitter_cfg.c ****     errorCode = errorCode;
 131:Generated_Source\PSoC5/cyfitter_cfg.c **** 
 132:Generated_Source\PSoC5/cyfitter_cfg.c ****     /* If we have a clock startup error (bad MHz crystal, PLL lock, etc.),  */
 133:Generated_Source\PSoC5/cyfitter_cfg.c ****     /* we will end up here to allow the customer to implement something to  */
 134:Generated_Source\PSoC5/cyfitter_cfg.c ****     /* deal with the clock condition.                                       */
 135:Generated_Source\PSoC5/cyfitter_cfg.c **** 
 136:Generated_Source\PSoC5/cyfitter_cfg.c **** #ifdef CY_CFG_CLOCK_STARTUP_ERROR_CALLBACK
 137:Generated_Source\PSoC5/cyfitter_cfg.c ****     CY_CFG_Clock_Startup_ErrorCallback();
 138:Generated_Source\PSoC5/cyfitter_cfg.c **** #else
 139:Generated_Source\PSoC5/cyfitter_cfg.c ****     /*  If not using CY_CFG_CLOCK_STARTUP_ERROR_CALLBACK, place your clock startup code here. */
 140:Generated_Source\PSoC5/cyfitter_cfg.c ****     /* `#START CyClockStartupError` */
 141:Generated_Source\PSoC5/cyfitter_cfg.c **** 
 142:Generated_Source\PSoC5/cyfitter_cfg.c **** 
 143:Generated_Source\PSoC5/cyfitter_cfg.c **** 
 144:Generated_Source\PSoC5/cyfitter_cfg.c ****     /* `#END` */
 145:Generated_Source\PSoC5/cyfitter_cfg.c **** 
 146:Generated_Source\PSoC5/cyfitter_cfg.c ****     while(1) {}
 147:Generated_Source\PSoC5/cyfitter_cfg.c **** #endif /* CY_CFG_CLOCK_STARTUP_ERROR_CALLBACK */
 148:Generated_Source\PSoC5/cyfitter_cfg.c **** }
 149:Generated_Source\PSoC5/cyfitter_cfg.c **** #endif
 150:Generated_Source\PSoC5/cyfitter_cfg.c **** 
 151:Generated_Source\PSoC5/cyfitter_cfg.c **** #define CY_CFG_BASE_ADDR_COUNT 29u
 152:Generated_Source\PSoC5/cyfitter_cfg.c **** CYPACKED typedef struct
 153:Generated_Source\PSoC5/cyfitter_cfg.c **** {
 154:Generated_Source\PSoC5/cyfitter_cfg.c **** 	uint8 offset;
 155:Generated_Source\PSoC5/cyfitter_cfg.c **** 	uint8 value;
 156:Generated_Source\PSoC5/cyfitter_cfg.c **** } CYPACKED_ATTR cy_cfg_addrvalue_t;
 157:Generated_Source\PSoC5/cyfitter_cfg.c **** 
 158:Generated_Source\PSoC5/cyfitter_cfg.c **** #define cy_cfg_addr_table ((const uint32 CYFAR *)0x48000000u)
 159:Generated_Source\PSoC5/cyfitter_cfg.c **** #define cy_cfg_data_table ((const cy_cfg_addrvalue_t CYFAR *)0x48000074u)
 160:Generated_Source\PSoC5/cyfitter_cfg.c **** 
 161:Generated_Source\PSoC5/cyfitter_cfg.c **** /* IOPORT_7 Address: CYDEV_PRTDSI_PRT12_BASE Size (bytes): 6 */
 162:Generated_Source\PSoC5/cyfitter_cfg.c **** #define BS_IOPORT_7_VAL ((const uint8 CYFAR *)0x48000520u)
 163:Generated_Source\PSoC5/cyfitter_cfg.c **** 
 164:Generated_Source\PSoC5/cyfitter_cfg.c **** /* UDB_1_0_0_CONFIG Address: CYDEV_UCFG_B1_P2_U0_BASE Size (bytes): 128 */
 165:Generated_Source\PSoC5/cyfitter_cfg.c **** #define BS_UDB_1_0_0_CONFIG_VAL ((const uint8 CYFAR *)0x48000528u)
 166:Generated_Source\PSoC5/cyfitter_cfg.c **** 
 167:Generated_Source\PSoC5/cyfitter_cfg.c **** /* UDB_0_0_0_CONFIG Address: CYDEV_UCFG_B1_P5_U0_BASE Size (bytes): 128 */
 168:Generated_Source\PSoC5/cyfitter_cfg.c **** #define BS_UDB_0_0_0_CONFIG_VAL ((const uint8 CYFAR *)0x480005A8u)
 169:Generated_Source\PSoC5/cyfitter_cfg.c **** 
 170:Generated_Source\PSoC5/cyfitter_cfg.c **** /* IOPINS0_0 Address: CYREG_PRT0_DR Size (bytes): 10 */
 171:Generated_Source\PSoC5/cyfitter_cfg.c **** #define BS_IOPINS0_0_VAL ((const uint8 CYFAR *)0x48000628u)
 172:Generated_Source\PSoC5/cyfitter_cfg.c **** 
 173:Generated_Source\PSoC5/cyfitter_cfg.c **** /* IOPINS0_7 Address: CYREG_PRT12_DR Size (bytes): 10 */
 174:Generated_Source\PSoC5/cyfitter_cfg.c **** #define BS_IOPINS0_7_VAL ((const uint8 CYFAR *)0x48000634u)
 175:Generated_Source\PSoC5/cyfitter_cfg.c **** 
 176:Generated_Source\PSoC5/cyfitter_cfg.c **** /* IOPINS0_1 Address: CYREG_PRT1_DR Size (bytes): 10 */
 177:Generated_Source\PSoC5/cyfitter_cfg.c **** #define BS_IOPINS0_1_VAL ((const uint8 CYFAR *)0x48000640u)
 178:Generated_Source\PSoC5/cyfitter_cfg.c **** 
 179:Generated_Source\PSoC5/cyfitter_cfg.c **** /* IOPINS0_2 Address: CYREG_PRT2_DR Size (bytes): 10 */
 180:Generated_Source\PSoC5/cyfitter_cfg.c **** #define BS_IOPINS0_2_VAL ((const uint8 CYFAR *)0x4800064Cu)
 181:Generated_Source\PSoC5/cyfitter_cfg.c **** 
 182:Generated_Source\PSoC5/cyfitter_cfg.c **** /* IOPINS0_3 Address: CYREG_PRT3_DR Size (bytes): 10 */
 183:Generated_Source\PSoC5/cyfitter_cfg.c **** #define BS_IOPINS0_3_VAL ((const uint8 CYFAR *)0x48000658u)
ARM GAS  C:\Users\ANDREW~1\AppData\Local\Temp\ccpZtOe3.s 			page 5


 184:Generated_Source\PSoC5/cyfitter_cfg.c **** 
 185:Generated_Source\PSoC5/cyfitter_cfg.c **** 
 186:Generated_Source\PSoC5/cyfitter_cfg.c **** /*******************************************************************************
 187:Generated_Source\PSoC5/cyfitter_cfg.c **** * Function Name: cfg_write_bytes32
 188:Generated_Source\PSoC5/cyfitter_cfg.c **** ********************************************************************************
 189:Generated_Source\PSoC5/cyfitter_cfg.c **** * Summary:
 190:Generated_Source\PSoC5/cyfitter_cfg.c **** *  This function is used for setting up the chip configuration areas that
 191:Generated_Source\PSoC5/cyfitter_cfg.c **** *  contain relatively sparse data.
 192:Generated_Source\PSoC5/cyfitter_cfg.c **** *
 193:Generated_Source\PSoC5/cyfitter_cfg.c **** * Parameters:
 194:Generated_Source\PSoC5/cyfitter_cfg.c **** *   void
 195:Generated_Source\PSoC5/cyfitter_cfg.c **** *
 196:Generated_Source\PSoC5/cyfitter_cfg.c **** * Return:
 197:Generated_Source\PSoC5/cyfitter_cfg.c **** *   void
 198:Generated_Source\PSoC5/cyfitter_cfg.c **** *
 199:Generated_Source\PSoC5/cyfitter_cfg.c **** *******************************************************************************/
 200:Generated_Source\PSoC5/cyfitter_cfg.c **** static void cfg_write_bytes32(const uint32 addr_table[], const cy_cfg_addrvalue_t data_table[]);
 201:Generated_Source\PSoC5/cyfitter_cfg.c **** static void cfg_write_bytes32(const uint32 addr_table[], const cy_cfg_addrvalue_t data_table[])
 202:Generated_Source\PSoC5/cyfitter_cfg.c **** {
  46              		.loc 1 202 0
  47              		.cfi_startproc
  48              		@ args = 0, pretend = 0, frame = 0
  49              		@ frame_needed = 0, uses_anonymous_args = 0
  50              		@ link register save eliminated.
  51              	.LVL1:
  52              		.loc 1 202 0
  53 0000 F0B4     		push	{r4, r5, r6, r7}
  54              		.cfi_def_cfa_offset 16
  55              		.cfi_offset 4, -16
  56              		.cfi_offset 5, -12
  57              		.cfi_offset 6, -8
  58              		.cfi_offset 7, -4
  59              	.LVL2:
 203:Generated_Source\PSoC5/cyfitter_cfg.c **** 	/* For 32-bit little-endian architectures */
 204:Generated_Source\PSoC5/cyfitter_cfg.c **** 	uint32 i, j = 0u;
  60              		.loc 1 204 0
  61 0002 0022     		movs	r2, #0
 205:Generated_Source\PSoC5/cyfitter_cfg.c **** 	for (i = 0u; i < CY_CFG_BASE_ADDR_COUNT; i++)
  62              		.loc 1 205 0
  63 0004 1746     		mov	r7, r2
  64 0006 11E0     		b	.L4
  65              	.LVL3:
  66              	.L7:
  67              	.LBB2:
 206:Generated_Source\PSoC5/cyfitter_cfg.c **** 	{
 207:Generated_Source\PSoC5/cyfitter_cfg.c **** 		uint32 baseAddr = addr_table[i];
  68              		.loc 1 207 0
  69 0008 50F82760 		ldr	r6, [r0, r7, lsl #2]
  70              	.LVL4:
 208:Generated_Source\PSoC5/cyfitter_cfg.c **** 		uint8 count = (uint8)baseAddr;
  71              		.loc 1 208 0
  72 000c F3B2     		uxtb	r3, r6
  73              	.LVL5:
 209:Generated_Source\PSoC5/cyfitter_cfg.c **** 		baseAddr &= 0xFFFFFF00u;
  74              		.loc 1 209 0
  75 000e 26F0FF06 		bic	r6, r6, #255
  76              	.LVL6:
ARM GAS  C:\Users\ANDREW~1\AppData\Local\Temp\ccpZtOe3.s 			page 6


 210:Generated_Source\PSoC5/cyfitter_cfg.c **** 		while (count != 0u)
  77              		.loc 1 210 0
  78 0012 08E0     		b	.L5
  79              	.L6:
 211:Generated_Source\PSoC5/cyfitter_cfg.c **** 		{
 212:Generated_Source\PSoC5/cyfitter_cfg.c **** 			CY_SET_REG8((void *)(baseAddr + data_table[j].offset), data_table[j].value);
  80              		.loc 1 212 0
  81 0014 01EB4205 		add	r5, r1, r2, lsl #1
  82 0018 11F81240 		ldrb	r4, [r1, r2, lsl #1]	@ zero_extendqisi2
  83 001c 6D78     		ldrb	r5, [r5, #1]	@ zero_extendqisi2
  84 001e A555     		strb	r5, [r4, r6]
 213:Generated_Source\PSoC5/cyfitter_cfg.c **** 			j++;
  85              		.loc 1 213 0
  86 0020 0132     		adds	r2, r2, #1
  87              	.LVL7:
 214:Generated_Source\PSoC5/cyfitter_cfg.c **** 			count--;
  88              		.loc 1 214 0
  89 0022 013B     		subs	r3, r3, #1
  90              	.LVL8:
  91 0024 DBB2     		uxtb	r3, r3
  92              	.LVL9:
  93              	.L5:
 210:Generated_Source\PSoC5/cyfitter_cfg.c **** 		{
  94              		.loc 1 210 0
  95 0026 002B     		cmp	r3, #0
  96 0028 F4D1     		bne	.L6
  97              	.LBE2:
 205:Generated_Source\PSoC5/cyfitter_cfg.c **** 	{
  98              		.loc 1 205 0 discriminator 2
  99 002a 0137     		adds	r7, r7, #1
 100              	.LVL10:
 101              	.L4:
 205:Generated_Source\PSoC5/cyfitter_cfg.c **** 	{
 102              		.loc 1 205 0 is_stmt 0 discriminator 1
 103 002c 1C2F     		cmp	r7, #28
 104 002e EBD9     		bls	.L7
 215:Generated_Source\PSoC5/cyfitter_cfg.c **** 		}
 216:Generated_Source\PSoC5/cyfitter_cfg.c **** 	}
 217:Generated_Source\PSoC5/cyfitter_cfg.c **** }
 105              		.loc 1 217 0 is_stmt 1
 106 0030 F0BC     		pop	{r4, r5, r6, r7}
 107              		.cfi_restore 7
 108              		.cfi_restore 6
 109              		.cfi_restore 5
 110              		.cfi_restore 4
 111              		.cfi_def_cfa_offset 0
 112              	.LVL11:
 113 0032 7047     		bx	lr
 114              		.cfi_endproc
 115              	.LFE4:
 116              		.size	cfg_write_bytes32, .-cfg_write_bytes32
 117              		.section	.text.AnalogSetDefault,"ax",%progbits
 118              		.align	2
 119              		.thumb
 120              		.thumb_func
 121              		.type	AnalogSetDefault, %function
 122              	AnalogSetDefault:
ARM GAS  C:\Users\ANDREW~1\AppData\Local\Temp\ccpZtOe3.s 			page 7


 123              	.LFB6:
 218:Generated_Source\PSoC5/cyfitter_cfg.c **** 
 219:Generated_Source\PSoC5/cyfitter_cfg.c **** /*******************************************************************************
 220:Generated_Source\PSoC5/cyfitter_cfg.c **** * Function Name: ClockSetup
 221:Generated_Source\PSoC5/cyfitter_cfg.c **** ********************************************************************************
 222:Generated_Source\PSoC5/cyfitter_cfg.c **** *
 223:Generated_Source\PSoC5/cyfitter_cfg.c **** * Summary:
 224:Generated_Source\PSoC5/cyfitter_cfg.c **** *  Performs the initialization of all of the clocks in the device based on the
 225:Generated_Source\PSoC5/cyfitter_cfg.c **** *  settings in the Clock tab of the DWR.  This includes enabling the requested
 226:Generated_Source\PSoC5/cyfitter_cfg.c **** *  clocks and setting the necessary dividers to produce the desired frequency. 
 227:Generated_Source\PSoC5/cyfitter_cfg.c **** *
 228:Generated_Source\PSoC5/cyfitter_cfg.c **** * Parameters:
 229:Generated_Source\PSoC5/cyfitter_cfg.c **** *  void
 230:Generated_Source\PSoC5/cyfitter_cfg.c **** *
 231:Generated_Source\PSoC5/cyfitter_cfg.c **** * Return:
 232:Generated_Source\PSoC5/cyfitter_cfg.c **** *  void
 233:Generated_Source\PSoC5/cyfitter_cfg.c **** *
 234:Generated_Source\PSoC5/cyfitter_cfg.c **** *******************************************************************************/
 235:Generated_Source\PSoC5/cyfitter_cfg.c **** static void ClockSetup(void);
 236:Generated_Source\PSoC5/cyfitter_cfg.c **** static void ClockSetup(void)
 237:Generated_Source\PSoC5/cyfitter_cfg.c **** {
 238:Generated_Source\PSoC5/cyfitter_cfg.c **** 	uint32 timeout;
 239:Generated_Source\PSoC5/cyfitter_cfg.c **** 	uint8 pllLock;
 240:Generated_Source\PSoC5/cyfitter_cfg.c **** 
 241:Generated_Source\PSoC5/cyfitter_cfg.c **** 
 242:Generated_Source\PSoC5/cyfitter_cfg.c **** 	/* Configure Digital Clocks based on settings from Clock DWR */
 243:Generated_Source\PSoC5/cyfitter_cfg.c **** 	CY_SET_XTND_REG16((void CYFAR *)(CYREG_CLKDIST_DCFG0_CFG0), 0x0001u);
 244:Generated_Source\PSoC5/cyfitter_cfg.c **** 	CY_SET_XTND_REG8((void CYFAR *)(CYREG_CLKDIST_DCFG0_CFG0 + 0x2u), 0x1Cu);
 245:Generated_Source\PSoC5/cyfitter_cfg.c **** 	CY_SET_XTND_REG16((void CYFAR *)(CYREG_CLKDIST_DCFG1_CFG0), 0x0138u);
 246:Generated_Source\PSoC5/cyfitter_cfg.c **** 	CY_SET_XTND_REG8((void CYFAR *)(CYREG_CLKDIST_DCFG1_CFG0 + 0x2u), 0x18u);
 247:Generated_Source\PSoC5/cyfitter_cfg.c **** 	CY_SET_XTND_REG16((void CYFAR *)(CYREG_CLKDIST_DCFG2_CFG0), 0x0257u);
 248:Generated_Source\PSoC5/cyfitter_cfg.c **** 	CY_SET_XTND_REG8((void CYFAR *)(CYREG_CLKDIST_DCFG2_CFG0 + 0x2u), 0x18u);
 249:Generated_Source\PSoC5/cyfitter_cfg.c **** 	CY_SET_XTND_REG16((void CYFAR *)(CYREG_CLKDIST_DCFG3_CFG0), 0x5DBFu);
 250:Generated_Source\PSoC5/cyfitter_cfg.c **** 	CY_SET_XTND_REG8((void CYFAR *)(CYREG_CLKDIST_DCFG3_CFG0 + 0x2u), 0x18u);
 251:Generated_Source\PSoC5/cyfitter_cfg.c **** 	CY_SET_XTND_REG16((void CYFAR *)(CYREG_CLKDIST_DCFG4_CFG0), 0x3A97u);
 252:Generated_Source\PSoC5/cyfitter_cfg.c **** 	CY_SET_XTND_REG8((void CYFAR *)(CYREG_CLKDIST_DCFG4_CFG0 + 0x2u), 0x19u);
 253:Generated_Source\PSoC5/cyfitter_cfg.c **** 	CY_SET_XTND_REG16((void CYFAR *)(CYREG_CLKDIST_DCFG5_CFG0), 0x752Fu);
 254:Generated_Source\PSoC5/cyfitter_cfg.c **** 	CY_SET_XTND_REG8((void CYFAR *)(CYREG_CLKDIST_DCFG5_CFG0 + 0x2u), 0x19u);
 255:Generated_Source\PSoC5/cyfitter_cfg.c **** 	CY_SET_XTND_REG16((void CYFAR *)(CYREG_CLKDIST_DCFG6_CFG0), 0x752Fu);
 256:Generated_Source\PSoC5/cyfitter_cfg.c **** 	CY_SET_XTND_REG8((void CYFAR *)(CYREG_CLKDIST_DCFG6_CFG0 + 0x2u), 0x19u);
 257:Generated_Source\PSoC5/cyfitter_cfg.c **** 
 258:Generated_Source\PSoC5/cyfitter_cfg.c **** 	/* Configure ILO based on settings from Clock DWR */
 259:Generated_Source\PSoC5/cyfitter_cfg.c **** 	CY_SET_XTND_REG8((void CYFAR *)(CYREG_SLOWCLK_ILO_CR0), 0x02u);
 260:Generated_Source\PSoC5/cyfitter_cfg.c **** 	CY_SET_XTND_REG8((void CYFAR *)(CYREG_CLKDIST_CR), 0x08u);
 261:Generated_Source\PSoC5/cyfitter_cfg.c **** 
 262:Generated_Source\PSoC5/cyfitter_cfg.c **** 	/* Configure IMO based on settings from Clock DWR */
 263:Generated_Source\PSoC5/cyfitter_cfg.c **** 	CY_SET_XTND_REG8((void CYFAR *)(CYREG_FASTCLK_IMO_CR), 0x03u);
 264:Generated_Source\PSoC5/cyfitter_cfg.c **** 	CY_SET_XTND_REG8((void CYFAR *)(CYREG_IMO_TR1), (CY_GET_XTND_REG8((void CYFAR *)CYREG_FLSHID_CUST_
 265:Generated_Source\PSoC5/cyfitter_cfg.c **** 
 266:Generated_Source\PSoC5/cyfitter_cfg.c **** 	/* Configure PLL based on settings from Clock DWR */
 267:Generated_Source\PSoC5/cyfitter_cfg.c **** 	CY_SET_XTND_REG16((void CYFAR *)(CYREG_FASTCLK_PLL_P), 0x0008u);
 268:Generated_Source\PSoC5/cyfitter_cfg.c **** 	CY_SET_XTND_REG16((void CYFAR *)(CYREG_FASTCLK_PLL_CFG0), 0x1251u);
 269:Generated_Source\PSoC5/cyfitter_cfg.c **** 	/* Wait up to 250us for the PLL to lock */
 270:Generated_Source\PSoC5/cyfitter_cfg.c **** 	pllLock = 0u;
 271:Generated_Source\PSoC5/cyfitter_cfg.c **** 	for (timeout = 250u / 10u; (timeout > 0u) && (pllLock != 0x03u); timeout--)
 272:Generated_Source\PSoC5/cyfitter_cfg.c **** 	{ 
 273:Generated_Source\PSoC5/cyfitter_cfg.c **** 		pllLock = 0x03u & ((uint8)((uint8)pllLock << 1) | ((CY_GET_XTND_REG8((void CYFAR *)CYREG_FASTCLK_
ARM GAS  C:\Users\ANDREW~1\AppData\Local\Temp\ccpZtOe3.s 			page 8


 274:Generated_Source\PSoC5/cyfitter_cfg.c **** 		CyDelayCycles(10u * 48u); /* Delay 10us based on 48MHz clock */
 275:Generated_Source\PSoC5/cyfitter_cfg.c **** 	}
 276:Generated_Source\PSoC5/cyfitter_cfg.c **** 	/* If we ran out of time the PLL didn't lock so go to the error function */
 277:Generated_Source\PSoC5/cyfitter_cfg.c **** 	if (timeout == 0u)
 278:Generated_Source\PSoC5/cyfitter_cfg.c **** 	{
 279:Generated_Source\PSoC5/cyfitter_cfg.c **** 		CyClockStartupError(CYCLOCKSTART_PLL_ERROR);
 280:Generated_Source\PSoC5/cyfitter_cfg.c **** 	}
 281:Generated_Source\PSoC5/cyfitter_cfg.c **** 
 282:Generated_Source\PSoC5/cyfitter_cfg.c **** 	/* Configure Bus/Master Clock based on settings from Clock DWR */
 283:Generated_Source\PSoC5/cyfitter_cfg.c **** 	CY_SET_XTND_REG16((void CYFAR *)(CYREG_CLKDIST_MSTR0), 0x0100u);
 284:Generated_Source\PSoC5/cyfitter_cfg.c **** 	CY_SET_XTND_REG8((void CYFAR *)(CYREG_CLKDIST_MSTR0), 0x07u);
 285:Generated_Source\PSoC5/cyfitter_cfg.c **** 	CY_SET_XTND_REG8((void CYFAR *)(CYREG_CLKDIST_BCFG0), 0x00u);
 286:Generated_Source\PSoC5/cyfitter_cfg.c **** 	CY_SET_XTND_REG8((void CYFAR *)(CYREG_CLKDIST_BCFG2), 0x48u);
 287:Generated_Source\PSoC5/cyfitter_cfg.c **** 	CY_SET_XTND_REG8((void CYFAR *)(CYREG_CLKDIST_MSTR0), 0x00u);
 288:Generated_Source\PSoC5/cyfitter_cfg.c **** 	CY_SET_XTND_REG8((void CYFAR *)(CYREG_CLKDIST_LD), 0x02u);
 289:Generated_Source\PSoC5/cyfitter_cfg.c **** 
 290:Generated_Source\PSoC5/cyfitter_cfg.c **** 	CY_SET_XTND_REG8((void CYFAR *)(CYREG_PM_ACT_CFG2), ((CY_GET_XTND_REG8((void CYFAR *)CYREG_PM_ACT_
 291:Generated_Source\PSoC5/cyfitter_cfg.c **** }
 292:Generated_Source\PSoC5/cyfitter_cfg.c **** 
 293:Generated_Source\PSoC5/cyfitter_cfg.c **** 
 294:Generated_Source\PSoC5/cyfitter_cfg.c **** /* Analog API Functions */
 295:Generated_Source\PSoC5/cyfitter_cfg.c **** 
 296:Generated_Source\PSoC5/cyfitter_cfg.c **** 
 297:Generated_Source\PSoC5/cyfitter_cfg.c **** /*******************************************************************************
 298:Generated_Source\PSoC5/cyfitter_cfg.c **** * Function Name: AnalogSetDefault
 299:Generated_Source\PSoC5/cyfitter_cfg.c **** ********************************************************************************
 300:Generated_Source\PSoC5/cyfitter_cfg.c **** *
 301:Generated_Source\PSoC5/cyfitter_cfg.c **** * Summary:
 302:Generated_Source\PSoC5/cyfitter_cfg.c **** *  Sets up the analog portions of the chip to default values based on chip
 303:Generated_Source\PSoC5/cyfitter_cfg.c **** *  configuration options from the project.
 304:Generated_Source\PSoC5/cyfitter_cfg.c **** *
 305:Generated_Source\PSoC5/cyfitter_cfg.c **** * Parameters:
 306:Generated_Source\PSoC5/cyfitter_cfg.c **** *  void
 307:Generated_Source\PSoC5/cyfitter_cfg.c **** *
 308:Generated_Source\PSoC5/cyfitter_cfg.c **** * Return:
 309:Generated_Source\PSoC5/cyfitter_cfg.c **** *  void
 310:Generated_Source\PSoC5/cyfitter_cfg.c **** *
 311:Generated_Source\PSoC5/cyfitter_cfg.c **** *******************************************************************************/
 312:Generated_Source\PSoC5/cyfitter_cfg.c **** static void AnalogSetDefault(void);
 313:Generated_Source\PSoC5/cyfitter_cfg.c **** static void AnalogSetDefault(void)
 314:Generated_Source\PSoC5/cyfitter_cfg.c **** {
 124              		.loc 1 314 0
 125              		.cfi_startproc
 126              		@ args = 0, pretend = 0, frame = 0
 127              		@ frame_needed = 0, uses_anonymous_args = 0
 128              		@ link register save eliminated.
 129 0000 10B4     		push	{r4}
 130              		.cfi_def_cfa_offset 4
 131              		.cfi_offset 4, -4
 315:Generated_Source\PSoC5/cyfitter_cfg.c **** 	uint8 bg_xover_inl_trim = CY_GET_XTND_REG8((void CYFAR *)(CYREG_FLSHID_MFG_CFG_BG_XOVER_INL_TRIM +
 132              		.loc 1 315 0
 133 0002 1D4B     		ldr	r3, .L11
 134 0004 1B78     		ldrb	r3, [r3]	@ zero_extendqisi2
 135 0006 DBB2     		uxtb	r3, r3
 136              	.LVL12:
 316:Generated_Source\PSoC5/cyfitter_cfg.c **** 	CY_SET_XTND_REG8((void CYFAR *)(CYREG_BG_DFT0), (bg_xover_inl_trim & 0x07u));
 137              		.loc 1 316 0
ARM GAS  C:\Users\ANDREW~1\AppData\Local\Temp\ccpZtOe3.s 			page 9


 138 0008 03F00701 		and	r1, r3, #7
 139 000c 1B4A     		ldr	r2, .L11+4
 140 000e 1170     		strb	r1, [r2]
 317:Generated_Source\PSoC5/cyfitter_cfg.c **** 	CY_SET_XTND_REG8((void CYFAR *)(CYREG_BG_DFT1), ((bg_xover_inl_trim >> 4) & 0x0Fu));
 141              		.loc 1 317 0
 142 0010 1B09     		lsrs	r3, r3, #4
 143              	.LVL13:
 144 0012 0132     		adds	r2, r2, #1
 145 0014 1370     		strb	r3, [r2]
 318:Generated_Source\PSoC5/cyfitter_cfg.c **** 	CY_SET_XTND_REG8((void CYFAR *)CYREG_PRT0_AG, 0x41u);
 146              		.loc 1 318 0
 147 0016 4122     		movs	r2, #65
 148 0018 194B     		ldr	r3, .L11+8
 149 001a 1A70     		strb	r2, [r3]
 319:Generated_Source\PSoC5/cyfitter_cfg.c **** 	CY_SET_XTND_REG8((void CYFAR *)CYREG_PRT3_AG, 0x01u);
 150              		.loc 1 319 0
 151 001c 0123     		movs	r3, #1
 152 001e 194A     		ldr	r2, .L11+12
 153 0020 1370     		strb	r3, [r2]
 320:Generated_Source\PSoC5/cyfitter_cfg.c **** 	CY_SET_XTND_REG8((void CYFAR *)CYREG_BG_CR0, 0x0Cu);
 154              		.loc 1 320 0
 155 0022 0C21     		movs	r1, #12
 156 0024 02F22F72 		addw	r2, r2, #1839
 157 0028 1170     		strb	r1, [r2]
 321:Generated_Source\PSoC5/cyfitter_cfg.c **** 	CY_SET_XTND_REG8((void CYFAR *)CYREG_SC2_SW0, 0x40u);
 158              		.loc 1 321 0
 159 002a 4021     		movs	r1, #64
 160 002c 02F5DA72 		add	r2, r2, #436
 161 0030 1170     		strb	r1, [r2]
 322:Generated_Source\PSoC5/cyfitter_cfg.c **** 	CY_SET_XTND_REG8((void CYFAR *)CYREG_SC2_SW4, 0x20u);
 162              		.loc 1 322 0
 163 0032 2021     		movs	r1, #32
 164 0034 0432     		adds	r2, r2, #4
 165 0036 1170     		strb	r1, [r2]
 323:Generated_Source\PSoC5/cyfitter_cfg.c **** 	CY_SET_XTND_REG8((void CYFAR *)CYREG_SC2_SW8, 0x04u);
 166              		.loc 1 323 0
 167 0038 0422     		movs	r2, #4
 168 003a 1348     		ldr	r0, .L11+16
 169 003c 0270     		strb	r2, [r0]
 324:Generated_Source\PSoC5/cyfitter_cfg.c **** 	CY_SET_XTND_REG8((void CYFAR *)CYREG_SC3_SW0, 0x10u);
 170              		.loc 1 324 0
 171 003e 1024     		movs	r4, #16
 172 0040 0830     		adds	r0, r0, #8
 173 0042 0470     		strb	r4, [r0]
 325:Generated_Source\PSoC5/cyfitter_cfg.c **** 	CY_SET_XTND_REG8((void CYFAR *)CYREG_SC3_SW7, 0x04u);
 174              		.loc 1 325 0
 175 0044 0730     		adds	r0, r0, #7
 176 0046 0270     		strb	r2, [r0]
 326:Generated_Source\PSoC5/cyfitter_cfg.c **** 	CY_SET_XTND_REG8((void CYFAR *)CYREG_DAC0_SW0, 0x01u);
 177              		.loc 1 326 0
 178 0048 4930     		adds	r0, r0, #73
 179 004a 0370     		strb	r3, [r0]
 327:Generated_Source\PSoC5/cyfitter_cfg.c **** 	CY_SET_XTND_REG8((void CYFAR *)CYREG_DAC2_SW0, 0x30u);
 180              		.loc 1 327 0
 181 004c 3024     		movs	r4, #48
 182 004e 1030     		adds	r0, r0, #16
 183 0050 0470     		strb	r4, [r0]
ARM GAS  C:\Users\ANDREW~1\AppData\Local\Temp\ccpZtOe3.s 			page 10


 328:Generated_Source\PSoC5/cyfitter_cfg.c **** 	CY_SET_XTND_REG8((void CYFAR *)CYREG_DAC2_SW3, 0x80u);
 184              		.loc 1 328 0
 185 0052 8024     		movs	r4, #128
 186 0054 0330     		adds	r0, r0, #3
 187 0056 0470     		strb	r4, [r0]
 329:Generated_Source\PSoC5/cyfitter_cfg.c **** 	CY_SET_XTND_REG8((void CYFAR *)CYREG_DAC2_SW4, 0x20u);
 188              		.loc 1 329 0
 189 0058 0130     		adds	r0, r0, #1
 190 005a 0170     		strb	r1, [r0]
 330:Generated_Source\PSoC5/cyfitter_cfg.c **** 	CY_SET_XTND_REG8((void CYFAR *)CYREG_CMP0_SW0, 0x04u);
 191              		.loc 1 330 0
 192 005c 0B49     		ldr	r1, .L11+20
 193 005e 0A70     		strb	r2, [r1]
 331:Generated_Source\PSoC5/cyfitter_cfg.c **** 	CY_SET_XTND_REG8((void CYFAR *)CYREG_CMP0_SW4, 0x01u);
 194              		.loc 1 331 0
 195 0060 0B4A     		ldr	r2, .L11+24
 196 0062 1370     		strb	r3, [r2]
 332:Generated_Source\PSoC5/cyfitter_cfg.c **** 	CY_SET_XTND_REG16((void CYFAR *)CYREG_OPAMP2_MX, 0x0105u);
 197              		.loc 1 332 0
 198 0064 40F20512 		movw	r2, #261
 199 0068 0A4B     		ldr	r3, .L11+28
 200 006a 1A80     		strh	r2, [r3]	@ movhi
 333:Generated_Source\PSoC5/cyfitter_cfg.c **** 	CY_SET_XTND_REG8((void CYFAR *)CYREG_PUMP_CR0, 0x44u);
 201              		.loc 1 333 0
 202 006c 4422     		movs	r2, #68
 203 006e A3F2CE23 		subw	r3, r3, #718
 204 0072 1A70     		strb	r2, [r3]
 334:Generated_Source\PSoC5/cyfitter_cfg.c **** }
 205              		.loc 1 334 0
 206 0074 10BC     		pop	{r4}
 207              		.cfi_restore 4
 208              		.cfi_def_cfa_offset 0
 209 0076 7047     		bx	lr
 210              	.L12:
 211              		.align	2
 212              	.L11:
 213 0078 CF010049 		.word	1224737231
 214 007c 6E580040 		.word	1073764462
 215 0080 0D510040 		.word	1073762573
 216 0084 3D510040 		.word	1073762621
 217 0088 285A0040 		.word	1073764904
 218 008c C05A0040 		.word	1073765056
 219 0090 C45A0040 		.word	1073765060
 220 0094 445B0040 		.word	1073765188
 221              		.cfi_endproc
 222              	.LFE6:
 223              		.size	AnalogSetDefault, .-AnalogSetDefault
 224              		.section	.text.CYMEMZERO,"ax",%progbits
 225              		.align	2
 226              		.thumb
 227              		.thumb_func
 228              		.type	CYMEMZERO, %function
 229              	CYMEMZERO:
 230              	.LFB0:
  78:Generated_Source\PSoC5/cyfitter_cfg.c **** 	(void)memset(s, 0, n);
 231              		.loc 1 78 0
 232              		.cfi_startproc
ARM GAS  C:\Users\ANDREW~1\AppData\Local\Temp\ccpZtOe3.s 			page 11


 233              		@ args = 0, pretend = 0, frame = 0
 234              		@ frame_needed = 0, uses_anonymous_args = 0
 235              	.LVL14:
 236 0000 08B5     		push	{r3, lr}
 237              		.cfi_def_cfa_offset 8
 238              		.cfi_offset 3, -8
 239              		.cfi_offset 14, -4
  79:Generated_Source\PSoC5/cyfitter_cfg.c **** }
 240              		.loc 1 79 0
 241 0002 0A46     		mov	r2, r1
 242 0004 0021     		movs	r1, #0
 243              	.LVL15:
 244 0006 FFF7FEFF 		bl	memset
 245              	.LVL16:
 246 000a 08BD     		pop	{r3, pc}
 247              		.cfi_endproc
 248              	.LFE0:
 249              		.size	CYMEMZERO, .-CYMEMZERO
 250              		.section	.text.ClockSetup,"ax",%progbits
 251              		.align	2
 252              		.thumb
 253              		.thumb_func
 254              		.type	ClockSetup, %function
 255              	ClockSetup:
 256              	.LFB5:
 237:Generated_Source\PSoC5/cyfitter_cfg.c **** 	uint32 timeout;
 257              		.loc 1 237 0
 258              		.cfi_startproc
 259              		@ args = 0, pretend = 0, frame = 0
 260              		@ frame_needed = 0, uses_anonymous_args = 0
 261 0000 38B5     		push	{r3, r4, r5, lr}
 262              		.cfi_def_cfa_offset 16
 263              		.cfi_offset 3, -16
 264              		.cfi_offset 4, -12
 265              		.cfi_offset 5, -8
 266              		.cfi_offset 14, -4
 243:Generated_Source\PSoC5/cyfitter_cfg.c **** 	CY_SET_XTND_REG8((void CYFAR *)(CYREG_CLKDIST_DCFG0_CFG0 + 0x2u), 0x1Cu);
 267              		.loc 1 243 0
 268 0002 0122     		movs	r2, #1
 269 0004 354B     		ldr	r3, .L21
 270 0006 1A80     		strh	r2, [r3]	@ movhi
 244:Generated_Source\PSoC5/cyfitter_cfg.c **** 	CY_SET_XTND_REG16((void CYFAR *)(CYREG_CLKDIST_DCFG1_CFG0), 0x0138u);
 271              		.loc 1 244 0
 272 0008 1C22     		movs	r2, #28
 273 000a 0233     		adds	r3, r3, #2
 274 000c 1A70     		strb	r2, [r3]
 245:Generated_Source\PSoC5/cyfitter_cfg.c **** 	CY_SET_XTND_REG8((void CYFAR *)(CYREG_CLKDIST_DCFG1_CFG0 + 0x2u), 0x18u);
 275              		.loc 1 245 0
 276 000e 4FF49C72 		mov	r2, #312
 277 0012 0233     		adds	r3, r3, #2
 278 0014 1A80     		strh	r2, [r3]	@ movhi
 246:Generated_Source\PSoC5/cyfitter_cfg.c **** 	CY_SET_XTND_REG16((void CYFAR *)(CYREG_CLKDIST_DCFG2_CFG0), 0x0257u);
 279              		.loc 1 246 0
 280 0016 1823     		movs	r3, #24
 281 0018 314A     		ldr	r2, .L21+4
 282 001a 1370     		strb	r3, [r2]
 247:Generated_Source\PSoC5/cyfitter_cfg.c **** 	CY_SET_XTND_REG8((void CYFAR *)(CYREG_CLKDIST_DCFG2_CFG0 + 0x2u), 0x18u);
ARM GAS  C:\Users\ANDREW~1\AppData\Local\Temp\ccpZtOe3.s 			page 12


 283              		.loc 1 247 0
 284 001c 40F25721 		movw	r1, #599
 285 0020 0232     		adds	r2, r2, #2
 286 0022 1180     		strh	r1, [r2]	@ movhi
 248:Generated_Source\PSoC5/cyfitter_cfg.c **** 	CY_SET_XTND_REG16((void CYFAR *)(CYREG_CLKDIST_DCFG3_CFG0), 0x5DBFu);
 287              		.loc 1 248 0
 288 0024 0232     		adds	r2, r2, #2
 289 0026 1370     		strb	r3, [r2]
 249:Generated_Source\PSoC5/cyfitter_cfg.c **** 	CY_SET_XTND_REG8((void CYFAR *)(CYREG_CLKDIST_DCFG3_CFG0 + 0x2u), 0x18u);
 290              		.loc 1 249 0
 291 0028 45F6BF51 		movw	r1, #23999
 292 002c 0232     		adds	r2, r2, #2
 293 002e 1180     		strh	r1, [r2]	@ movhi
 250:Generated_Source\PSoC5/cyfitter_cfg.c **** 	CY_SET_XTND_REG16((void CYFAR *)(CYREG_CLKDIST_DCFG4_CFG0), 0x3A97u);
 294              		.loc 1 250 0
 295 0030 0232     		adds	r2, r2, #2
 296 0032 1370     		strb	r3, [r2]
 251:Generated_Source\PSoC5/cyfitter_cfg.c **** 	CY_SET_XTND_REG8((void CYFAR *)(CYREG_CLKDIST_DCFG4_CFG0 + 0x2u), 0x19u);
 297              		.loc 1 251 0
 298 0034 43F69722 		movw	r2, #14999
 299 0038 2A4B     		ldr	r3, .L21+8
 300 003a 1A80     		strh	r2, [r3]	@ movhi
 252:Generated_Source\PSoC5/cyfitter_cfg.c **** 	CY_SET_XTND_REG16((void CYFAR *)(CYREG_CLKDIST_DCFG5_CFG0), 0x752Fu);
 301              		.loc 1 252 0
 302 003c 1925     		movs	r5, #25
 303 003e 0233     		adds	r3, r3, #2
 304 0040 1D70     		strb	r5, [r3]
 253:Generated_Source\PSoC5/cyfitter_cfg.c **** 	CY_SET_XTND_REG8((void CYFAR *)(CYREG_CLKDIST_DCFG5_CFG0 + 0x2u), 0x19u);
 305              		.loc 1 253 0
 306 0042 47F22F53 		movw	r3, #29999
 307 0046 284A     		ldr	r2, .L21+12
 308 0048 1380     		strh	r3, [r2]	@ movhi
 254:Generated_Source\PSoC5/cyfitter_cfg.c **** 	CY_SET_XTND_REG16((void CYFAR *)(CYREG_CLKDIST_DCFG6_CFG0), 0x752Fu);
 309              		.loc 1 254 0
 310 004a 0232     		adds	r2, r2, #2
 311 004c 1570     		strb	r5, [r2]
 255:Generated_Source\PSoC5/cyfitter_cfg.c **** 	CY_SET_XTND_REG8((void CYFAR *)(CYREG_CLKDIST_DCFG6_CFG0 + 0x2u), 0x19u);
 312              		.loc 1 255 0
 313 004e 0232     		adds	r2, r2, #2
 314 0050 1380     		strh	r3, [r2]	@ movhi
 256:Generated_Source\PSoC5/cyfitter_cfg.c **** 
 315              		.loc 1 256 0
 316 0052 264B     		ldr	r3, .L21+16
 317 0054 1D70     		strb	r5, [r3]
 259:Generated_Source\PSoC5/cyfitter_cfg.c **** 	CY_SET_XTND_REG8((void CYFAR *)(CYREG_CLKDIST_CR), 0x08u);
 318              		.loc 1 259 0
 319 0056 0222     		movs	r2, #2
 320 0058 03F26623 		addw	r3, r3, #614
 321 005c 1A70     		strb	r2, [r3]
 260:Generated_Source\PSoC5/cyfitter_cfg.c **** 
 322              		.loc 1 260 0
 323 005e 0822     		movs	r2, #8
 324 0060 4FF04023 		mov	r3, #1073758208
 325 0064 1A70     		strb	r2, [r3]
 263:Generated_Source\PSoC5/cyfitter_cfg.c **** 	CY_SET_XTND_REG8((void CYFAR *)(CYREG_IMO_TR1), (CY_GET_XTND_REG8((void CYFAR *)CYREG_FLSHID_CUST_
 326              		.loc 1 263 0
 327 0066 0321     		movs	r1, #3
ARM GAS  C:\Users\ANDREW~1\AppData\Local\Temp\ccpZtOe3.s 			page 13


 328 0068 03F50073 		add	r3, r3, #512
 329 006c 1970     		strb	r1, [r3]
 264:Generated_Source\PSoC5/cyfitter_cfg.c **** 
 330              		.loc 1 264 0
 331 006e 204B     		ldr	r3, .L21+20
 332 0070 1B78     		ldrb	r3, [r3]	@ zero_extendqisi2
 333 0072 DBB2     		uxtb	r3, r3
 334 0074 1F49     		ldr	r1, .L21+24
 335 0076 0B70     		strb	r3, [r1]
 267:Generated_Source\PSoC5/cyfitter_cfg.c **** 	CY_SET_XTND_REG16((void CYFAR *)(CYREG_FASTCLK_PLL_CFG0), 0x1251u);
 336              		.loc 1 267 0
 337 0078 1F4B     		ldr	r3, .L21+28
 338 007a 1A80     		strh	r2, [r3]	@ movhi
 268:Generated_Source\PSoC5/cyfitter_cfg.c **** 	/* Wait up to 250us for the PLL to lock */
 339              		.loc 1 268 0
 340 007c 41F25122 		movw	r2, #4689
 341 0080 023B     		subs	r3, r3, #2
 342 0082 1A80     		strh	r2, [r3]	@ movhi
 343              	.LVL17:
 270:Generated_Source\PSoC5/cyfitter_cfg.c **** 	for (timeout = 250u / 10u; (timeout > 0u) && (pllLock != 0x03u); timeout--)
 344              		.loc 1 270 0
 345 0084 0024     		movs	r4, #0
 271:Generated_Source\PSoC5/cyfitter_cfg.c **** 	{ 
 346              		.loc 1 271 0
 347 0086 0CE0     		b	.L16
 348              	.LVL18:
 349              	.L18:
 273:Generated_Source\PSoC5/cyfitter_cfg.c **** 		CyDelayCycles(10u * 48u); /* Delay 10us based on 48MHz clock */
 350              		.loc 1 273 0 discriminator 4
 351 0088 1C4B     		ldr	r3, .L21+32
 352 008a 1B78     		ldrb	r3, [r3]	@ zero_extendqisi2
 353 008c 03F00103 		and	r3, r3, #1
 354 0090 43EA4404 		orr	r4, r3, r4, lsl #1
 355              	.LVL19:
 356 0094 04F00304 		and	r4, r4, #3
 357              	.LVL20:
 274:Generated_Source\PSoC5/cyfitter_cfg.c **** 	}
 358              		.loc 1 274 0 discriminator 4
 359 0098 4FF4F070 		mov	r0, #480
 360 009c FFF7FEFF 		bl	CyDelayCycles
 361              	.LVL21:
 271:Generated_Source\PSoC5/cyfitter_cfg.c **** 	{ 
 362              		.loc 1 271 0 discriminator 4
 363 00a0 013D     		subs	r5, r5, #1
 364              	.LVL22:
 365              	.L16:
 271:Generated_Source\PSoC5/cyfitter_cfg.c **** 	{ 
 366              		.loc 1 271 0 is_stmt 0 discriminator 1
 367 00a2 0DB1     		cbz	r5, .L17
 271:Generated_Source\PSoC5/cyfitter_cfg.c **** 	{ 
 368              		.loc 1 271 0 discriminator 3
 369 00a4 032C     		cmp	r4, #3
 370 00a6 EFD1     		bne	.L18
 371              	.L17:
 277:Generated_Source\PSoC5/cyfitter_cfg.c **** 	{
 372              		.loc 1 277 0 is_stmt 1
 373 00a8 15B9     		cbnz	r5, .L19
ARM GAS  C:\Users\ANDREW~1\AppData\Local\Temp\ccpZtOe3.s 			page 14


 279:Generated_Source\PSoC5/cyfitter_cfg.c **** 	}
 374              		.loc 1 279 0
 375 00aa 0320     		movs	r0, #3
 376 00ac FFF7FEFF 		bl	CyClockStartupError
 377              	.LVL23:
 378              	.L19:
 283:Generated_Source\PSoC5/cyfitter_cfg.c **** 	CY_SET_XTND_REG8((void CYFAR *)(CYREG_CLKDIST_MSTR0), 0x07u);
 379              		.loc 1 283 0
 380 00b0 134B     		ldr	r3, .L21+36
 381 00b2 4FF48072 		mov	r2, #256
 382 00b6 1A80     		strh	r2, [r3]	@ movhi
 284:Generated_Source\PSoC5/cyfitter_cfg.c **** 	CY_SET_XTND_REG8((void CYFAR *)(CYREG_CLKDIST_BCFG0), 0x00u);
 383              		.loc 1 284 0
 384 00b8 0722     		movs	r2, #7
 385 00ba 1A70     		strb	r2, [r3]
 285:Generated_Source\PSoC5/cyfitter_cfg.c **** 	CY_SET_XTND_REG8((void CYFAR *)(CYREG_CLKDIST_BCFG2), 0x48u);
 386              		.loc 1 285 0
 387 00bc 0022     		movs	r2, #0
 388 00be 1149     		ldr	r1, .L21+40
 389 00c0 0A70     		strb	r2, [r1]
 286:Generated_Source\PSoC5/cyfitter_cfg.c **** 	CY_SET_XTND_REG8((void CYFAR *)(CYREG_CLKDIST_MSTR0), 0x00u);
 390              		.loc 1 286 0
 391 00c2 4820     		movs	r0, #72
 392 00c4 0231     		adds	r1, r1, #2
 393 00c6 0870     		strb	r0, [r1]
 287:Generated_Source\PSoC5/cyfitter_cfg.c **** 	CY_SET_XTND_REG8((void CYFAR *)(CYREG_CLKDIST_LD), 0x02u);
 394              		.loc 1 287 0
 395 00c8 1A70     		strb	r2, [r3]
 288:Generated_Source\PSoC5/cyfitter_cfg.c **** 
 396              		.loc 1 288 0
 397 00ca 0222     		movs	r2, #2
 398 00cc 033B     		subs	r3, r3, #3
 399 00ce 1A70     		strb	r2, [r3]
 290:Generated_Source\PSoC5/cyfitter_cfg.c **** }
 400              		.loc 1 290 0
 401 00d0 0D4A     		ldr	r2, .L21+44
 402 00d2 1378     		ldrb	r3, [r2]	@ zero_extendqisi2
 403 00d4 43F07F03 		orr	r3, r3, #127
 404 00d8 1370     		strb	r3, [r2]
 405 00da 38BD     		pop	{r3, r4, r5, pc}
 406              	.LVL24:
 407              	.L22:
 408              		.align	2
 409              	.L21:
 410 00dc 80400040 		.word	1073758336
 411 00e0 86400040 		.word	1073758342
 412 00e4 90400040 		.word	1073758352
 413 00e8 94400040 		.word	1073758356
 414 00ec 9A400040 		.word	1073758362
 415 00f0 08010049 		.word	1224737032
 416 00f4 A1460040 		.word	1073759905
 417 00f8 22420040 		.word	1073758754
 418 00fc 25420040 		.word	1073758757
 419 0100 04400040 		.word	1073758212
 420 0104 06400040 		.word	1073758214
 421 0108 A2430040 		.word	1073759138
 422              		.cfi_endproc
ARM GAS  C:\Users\ANDREW~1\AppData\Local\Temp\ccpZtOe3.s 			page 15


 423              	.LFE5:
 424              		.size	ClockSetup, .-ClockSetup
 425              		.section	.text.CYCONFIGCPY,"ax",%progbits
 426              		.align	2
 427              		.thumb
 428              		.thumb_func
 429              		.type	CYCONFIGCPY, %function
 430              	CYCONFIGCPY:
 431              	.LFB1:
  85:Generated_Source\PSoC5/cyfitter_cfg.c **** 	(void)memcpy(dest, src, n);
 432              		.loc 1 85 0
 433              		.cfi_startproc
 434              		@ args = 0, pretend = 0, frame = 0
 435              		@ frame_needed = 0, uses_anonymous_args = 0
 436              	.LVL25:
 437 0000 08B5     		push	{r3, lr}
 438              		.cfi_def_cfa_offset 8
 439              		.cfi_offset 3, -8
 440              		.cfi_offset 14, -4
  86:Generated_Source\PSoC5/cyfitter_cfg.c **** }
 441              		.loc 1 86 0
 442 0002 FFF7FEFF 		bl	memcpy
 443              	.LVL26:
 444 0006 08BD     		pop	{r3, pc}
 445              		.cfi_endproc
 446              	.LFE1:
 447              		.size	CYCONFIGCPY, .-CYCONFIGCPY
 448              		.section	.text.SetAnalogRoutingPumps,"ax",%progbits
 449              		.align	2
 450              		.global	SetAnalogRoutingPumps
 451              		.thumb
 452              		.thumb_func
 453              		.type	SetAnalogRoutingPumps, %function
 454              	SetAnalogRoutingPumps:
 455              	.LFB7:
 335:Generated_Source\PSoC5/cyfitter_cfg.c **** 
 336:Generated_Source\PSoC5/cyfitter_cfg.c **** 
 337:Generated_Source\PSoC5/cyfitter_cfg.c **** /*******************************************************************************
 338:Generated_Source\PSoC5/cyfitter_cfg.c **** * Function Name: SetAnalogRoutingPumps
 339:Generated_Source\PSoC5/cyfitter_cfg.c **** ********************************************************************************
 340:Generated_Source\PSoC5/cyfitter_cfg.c **** *
 341:Generated_Source\PSoC5/cyfitter_cfg.c **** * Summary:
 342:Generated_Source\PSoC5/cyfitter_cfg.c **** * Enables or disables the analog pumps feeding analog routing switches.
 343:Generated_Source\PSoC5/cyfitter_cfg.c **** * Intended to be called at startup, based on the Vdda system configuration;
 344:Generated_Source\PSoC5/cyfitter_cfg.c **** * may be called during operation when the user informs us that the Vdda voltage
 345:Generated_Source\PSoC5/cyfitter_cfg.c **** * crossed the pump threshold.
 346:Generated_Source\PSoC5/cyfitter_cfg.c **** *
 347:Generated_Source\PSoC5/cyfitter_cfg.c **** * Parameters:
 348:Generated_Source\PSoC5/cyfitter_cfg.c **** *  enabled - 1 to enable the pumps, 0 to disable the pumps
 349:Generated_Source\PSoC5/cyfitter_cfg.c **** *
 350:Generated_Source\PSoC5/cyfitter_cfg.c **** * Return:
 351:Generated_Source\PSoC5/cyfitter_cfg.c **** *  void
 352:Generated_Source\PSoC5/cyfitter_cfg.c **** *
 353:Generated_Source\PSoC5/cyfitter_cfg.c **** *******************************************************************************/
 354:Generated_Source\PSoC5/cyfitter_cfg.c **** void SetAnalogRoutingPumps(uint8 enabled)
 355:Generated_Source\PSoC5/cyfitter_cfg.c **** {
 456              		.loc 1 355 0
ARM GAS  C:\Users\ANDREW~1\AppData\Local\Temp\ccpZtOe3.s 			page 16


 457              		.cfi_startproc
 458              		@ args = 0, pretend = 0, frame = 0
 459              		@ frame_needed = 0, uses_anonymous_args = 0
 460              		@ link register save eliminated.
 461              	.LVL27:
 356:Generated_Source\PSoC5/cyfitter_cfg.c **** 	uint8 regValue = CY_GET_XTND_REG8((void CYFAR *)CYREG_PUMP_CR0);
 462              		.loc 1 356 0
 463 0000 054B     		ldr	r3, .L28
 464 0002 1B78     		ldrb	r3, [r3]	@ zero_extendqisi2
 465 0004 DBB2     		uxtb	r3, r3
 466              	.LVL28:
 357:Generated_Source\PSoC5/cyfitter_cfg.c **** 	if (enabled != 0u)
 467              		.loc 1 357 0
 468 0006 10B1     		cbz	r0, .L26
 358:Generated_Source\PSoC5/cyfitter_cfg.c **** 	{
 359:Generated_Source\PSoC5/cyfitter_cfg.c **** 		regValue |= 0x22u;
 469              		.loc 1 359 0
 470 0008 43F02203 		orr	r3, r3, #34
 471              	.LVL29:
 472 000c 01E0     		b	.L27
 473              	.L26:
 360:Generated_Source\PSoC5/cyfitter_cfg.c **** 	}
 361:Generated_Source\PSoC5/cyfitter_cfg.c **** 	else
 362:Generated_Source\PSoC5/cyfitter_cfg.c **** 	{
 363:Generated_Source\PSoC5/cyfitter_cfg.c **** 		regValue &= (uint8)~0x22u;
 474              		.loc 1 363 0
 475 000e 03F0DD03 		and	r3, r3, #221
 476              	.LVL30:
 477              	.L27:
 364:Generated_Source\PSoC5/cyfitter_cfg.c **** 	}
 365:Generated_Source\PSoC5/cyfitter_cfg.c **** 	CY_SET_XTND_REG8((void CYFAR *)CYREG_PUMP_CR0, regValue);
 478              		.loc 1 365 0
 479 0012 014A     		ldr	r2, .L28
 480 0014 1370     		strb	r3, [r2]
 481 0016 7047     		bx	lr
 482              	.L29:
 483              		.align	2
 484              	.L28:
 485 0018 76580040 		.word	1073764470
 486              		.cfi_endproc
 487              	.LFE7:
 488              		.size	SetAnalogRoutingPumps, .-SetAnalogRoutingPumps
 489              		.section	.text.cyfitter_cfg,"ax",%progbits
 490              		.align	2
 491              		.global	cyfitter_cfg
 492              		.thumb
 493              		.thumb_func
 494              		.type	cyfitter_cfg, %function
 495              	cyfitter_cfg:
 496              	.LFB8:
 366:Generated_Source\PSoC5/cyfitter_cfg.c **** }
 367:Generated_Source\PSoC5/cyfitter_cfg.c **** 
 368:Generated_Source\PSoC5/cyfitter_cfg.c **** 
 369:Generated_Source\PSoC5/cyfitter_cfg.c **** 
 370:Generated_Source\PSoC5/cyfitter_cfg.c **** 
 371:Generated_Source\PSoC5/cyfitter_cfg.c **** /*******************************************************************************
 372:Generated_Source\PSoC5/cyfitter_cfg.c **** * Function Name: cyfitter_cfg
ARM GAS  C:\Users\ANDREW~1\AppData\Local\Temp\ccpZtOe3.s 			page 17


 373:Generated_Source\PSoC5/cyfitter_cfg.c **** ********************************************************************************
 374:Generated_Source\PSoC5/cyfitter_cfg.c **** * Summary:
 375:Generated_Source\PSoC5/cyfitter_cfg.c **** *  This function is called by the start-up code for the selected device. It
 376:Generated_Source\PSoC5/cyfitter_cfg.c **** *  performs all of the necessary device configuration based on the design
 377:Generated_Source\PSoC5/cyfitter_cfg.c **** *  settings.  This includes settings from the Design Wide Resources (DWR) such
 378:Generated_Source\PSoC5/cyfitter_cfg.c **** *  as Clocks and Pins as well as any component configuration that is necessary.
 379:Generated_Source\PSoC5/cyfitter_cfg.c **** *
 380:Generated_Source\PSoC5/cyfitter_cfg.c **** * Parameters:
 381:Generated_Source\PSoC5/cyfitter_cfg.c **** *   void
 382:Generated_Source\PSoC5/cyfitter_cfg.c **** *
 383:Generated_Source\PSoC5/cyfitter_cfg.c **** * Return:
 384:Generated_Source\PSoC5/cyfitter_cfg.c **** *   void
 385:Generated_Source\PSoC5/cyfitter_cfg.c **** *
 386:Generated_Source\PSoC5/cyfitter_cfg.c **** *******************************************************************************/
 387:Generated_Source\PSoC5/cyfitter_cfg.c **** 
 388:Generated_Source\PSoC5/cyfitter_cfg.c **** void cyfitter_cfg(void)
 389:Generated_Source\PSoC5/cyfitter_cfg.c **** {
 497              		.loc 1 389 0
 498              		.cfi_startproc
 499              		@ args = 0, pretend = 0, frame = 0
 500              		@ frame_needed = 0, uses_anonymous_args = 0
 501 0000 38B5     		push	{r3, r4, r5, lr}
 502              		.cfi_def_cfa_offset 16
 503              		.cfi_offset 3, -16
 504              		.cfi_offset 4, -12
 505              		.cfi_offset 5, -8
 506              		.cfi_offset 14, -4
 390:Generated_Source\PSoC5/cyfitter_cfg.c **** #ifdef CYGlobalIntDisable
 391:Generated_Source\PSoC5/cyfitter_cfg.c **** 	/* Disable interrupts by default. Let user enable if/when they want. */
 392:Generated_Source\PSoC5/cyfitter_cfg.c **** 	CYGlobalIntDisable
 507              		.loc 1 392 0
 508              		.syntax unified
 509              	@ 392 "Generated_Source\PSoC5\cyfitter_cfg.c" 1
 510 0002 72B6     		CPSID   i
 511              	@ 0 "" 2
 393:Generated_Source\PSoC5/cyfitter_cfg.c **** #endif
 394:Generated_Source\PSoC5/cyfitter_cfg.c **** 
 395:Generated_Source\PSoC5/cyfitter_cfg.c **** 	/* Enable/Disable Debug functionality based on settings from System DWR */
 396:Generated_Source\PSoC5/cyfitter_cfg.c **** 	CY_SET_XTND_REG8((void CYFAR *)CYREG_MLOGIC_DEBUG, (CY_GET_XTND_REG8((void CYFAR *)CYREG_MLOGIC_DE
 512              		.loc 1 396 0
 513              		.thumb
 514              		.syntax unified
 515 0004 3B4A     		ldr	r2, .L36
 516 0006 1378     		ldrb	r3, [r2]	@ zero_extendqisi2
 517 0008 43F00403 		orr	r3, r3, #4
 518 000c 1370     		strb	r3, [r2]
 519              	.LVL31:
 520              	.LBB3:
 397:Generated_Source\PSoC5/cyfitter_cfg.c **** 
 398:Generated_Source\PSoC5/cyfitter_cfg.c **** 	{
 399:Generated_Source\PSoC5/cyfitter_cfg.c **** 
 400:Generated_Source\PSoC5/cyfitter_cfg.c **** 		CYPACKED typedef struct {
 401:Generated_Source\PSoC5/cyfitter_cfg.c **** 			void CYFAR *address;
 402:Generated_Source\PSoC5/cyfitter_cfg.c **** 			uint16 size;
 403:Generated_Source\PSoC5/cyfitter_cfg.c **** 		} CYPACKED_ATTR cfg_memset_t;
 404:Generated_Source\PSoC5/cyfitter_cfg.c **** 
 405:Generated_Source\PSoC5/cyfitter_cfg.c **** 
ARM GAS  C:\Users\ANDREW~1\AppData\Local\Temp\ccpZtOe3.s 			page 18


 406:Generated_Source\PSoC5/cyfitter_cfg.c **** 		CYPACKED typedef struct {
 407:Generated_Source\PSoC5/cyfitter_cfg.c **** 			void CYFAR *dest;
 408:Generated_Source\PSoC5/cyfitter_cfg.c **** 			const void CYFAR *src;
 409:Generated_Source\PSoC5/cyfitter_cfg.c **** 			uint16 size;
 410:Generated_Source\PSoC5/cyfitter_cfg.c **** 		} CYPACKED_ATTR cfg_memcpy_t;
 411:Generated_Source\PSoC5/cyfitter_cfg.c **** 
 412:Generated_Source\PSoC5/cyfitter_cfg.c **** 		static const cfg_memset_t CYCODE cfg_memset_list[] = {
 413:Generated_Source\PSoC5/cyfitter_cfg.c **** 			/* address, size */
 414:Generated_Source\PSoC5/cyfitter_cfg.c **** 			{(void CYFAR *)(CYREG_PRT4_DR), 48u},
 415:Generated_Source\PSoC5/cyfitter_cfg.c **** 			{(void CYFAR *)(CYREG_PRT15_DR), 16u},
 416:Generated_Source\PSoC5/cyfitter_cfg.c **** 			{(void CYFAR *)(CYDEV_UCFG_B0_P0_U0_BASE), 4096u},
 417:Generated_Source\PSoC5/cyfitter_cfg.c **** 			{(void CYFAR *)(CYDEV_UCFG_B1_P2_U1_BASE), 1408u},
 418:Generated_Source\PSoC5/cyfitter_cfg.c **** 			{(void CYFAR *)(CYDEV_UCFG_B1_P5_U1_BASE), 384u},
 419:Generated_Source\PSoC5/cyfitter_cfg.c **** 			{(void CYFAR *)(CYDEV_UCFG_DSI0_BASE), 2560u},
 420:Generated_Source\PSoC5/cyfitter_cfg.c **** 			{(void CYFAR *)(CYDEV_UCFG_DSI12_BASE), 512u},
 421:Generated_Source\PSoC5/cyfitter_cfg.c **** 			{(void CYFAR *)(CYREG_BCTL0_MDCLK_EN), 32u},
 422:Generated_Source\PSoC5/cyfitter_cfg.c **** 		};
 423:Generated_Source\PSoC5/cyfitter_cfg.c **** 
 424:Generated_Source\PSoC5/cyfitter_cfg.c **** 		static const cfg_memcpy_t CYCODE cfg_memcpy_list [] = {
 425:Generated_Source\PSoC5/cyfitter_cfg.c **** 			/* dest, src, size */
 426:Generated_Source\PSoC5/cyfitter_cfg.c **** 			{(void CYFAR *)(CYDEV_PRTDSI_PRT12_BASE), BS_IOPORT_7_VAL, 6u},
 427:Generated_Source\PSoC5/cyfitter_cfg.c **** 			{(void CYFAR *)(CYDEV_UCFG_B1_P2_U0_BASE), BS_UDB_1_0_0_CONFIG_VAL, 128u},
 428:Generated_Source\PSoC5/cyfitter_cfg.c **** 			{(void CYFAR *)(CYDEV_UCFG_B1_P5_U0_BASE), BS_UDB_0_0_0_CONFIG_VAL, 128u},
 429:Generated_Source\PSoC5/cyfitter_cfg.c **** 		};
 430:Generated_Source\PSoC5/cyfitter_cfg.c **** 
 431:Generated_Source\PSoC5/cyfitter_cfg.c **** 		uint8 CYDATA i;
 432:Generated_Source\PSoC5/cyfitter_cfg.c **** 
 433:Generated_Source\PSoC5/cyfitter_cfg.c **** 		/* Zero out critical memory blocks before beginning configuration */
 434:Generated_Source\PSoC5/cyfitter_cfg.c **** 		for (i = 0u; i < (sizeof(cfg_memset_list)/sizeof(cfg_memset_list[0])); i++)
 521              		.loc 1 434 0
 522 000e 0024     		movs	r4, #0
 523 0010 0CE0     		b	.L31
 524              	.LVL32:
 525              	.L32:
 526              	.LBB4:
 435:Generated_Source\PSoC5/cyfitter_cfg.c **** 		{
 436:Generated_Source\PSoC5/cyfitter_cfg.c **** 			const cfg_memset_t CYCODE * CYDATA ms = &cfg_memset_list[i];
 437:Generated_Source\PSoC5/cyfitter_cfg.c **** 			CYMEMZERO(ms->address, (size_t)(uint32)(ms->size));
 527              		.loc 1 437 0 discriminator 3
 528 0012 394D     		ldr	r5, .L36+4
 529 0014 6300     		lsls	r3, r4, #1
 530 0016 1919     		adds	r1, r3, r4
 531 0018 4A00     		lsls	r2, r1, #1
 532 001a 1146     		mov	r1, r2
 533 001c 2A44     		add	r2, r2, r5
 534 001e 0846     		mov	r0, r1
 535 0020 9188     		ldrh	r1, [r2, #4]
 536 0022 2858     		ldr	r0, [r5, r0]	@ unaligned
 537 0024 FFF7FEFF 		bl	CYMEMZERO
 538              	.LVL33:
 539              	.LBE4:
 434:Generated_Source\PSoC5/cyfitter_cfg.c **** 		{
 540              		.loc 1 434 0 discriminator 3
 541 0028 0134     		adds	r4, r4, #1
 542              	.LVL34:
 543 002a E4B2     		uxtb	r4, r4
 544              	.LVL35:
ARM GAS  C:\Users\ANDREW~1\AppData\Local\Temp\ccpZtOe3.s 			page 19


 545              	.L31:
 434:Generated_Source\PSoC5/cyfitter_cfg.c **** 		{
 546              		.loc 1 434 0 is_stmt 0 discriminator 1
 547 002c 072C     		cmp	r4, #7
 548 002e F0D9     		bls	.L32
 549 0030 0024     		movs	r4, #0
 550              	.LVL36:
 551 0032 0BE0     		b	.L33
 552              	.LVL37:
 553              	.L34:
 554              	.LBB5:
 438:Generated_Source\PSoC5/cyfitter_cfg.c **** 		}
 439:Generated_Source\PSoC5/cyfitter_cfg.c **** 
 440:Generated_Source\PSoC5/cyfitter_cfg.c **** 		/* Copy device configuration data into registers */
 441:Generated_Source\PSoC5/cyfitter_cfg.c **** 		for (i = 0u; i < (sizeof(cfg_memcpy_list)/sizeof(cfg_memcpy_list[0])); i++)
 442:Generated_Source\PSoC5/cyfitter_cfg.c **** 		{
 443:Generated_Source\PSoC5/cyfitter_cfg.c **** 			const cfg_memcpy_t CYCODE * CYDATA mc = &cfg_memcpy_list[i];
 444:Generated_Source\PSoC5/cyfitter_cfg.c **** 			void * CYDATA destPtr = mc->dest;
 555              		.loc 1 444 0 is_stmt 1 discriminator 3
 556 0034 3048     		ldr	r0, .L36+4
 557 0036 A200     		lsls	r2, r4, #2
 558 0038 1119     		adds	r1, r2, r4
 559 003a 4B00     		lsls	r3, r1, #1
 560 003c 0344     		add	r3, r3, r0
 561              	.LVL38:
 445:Generated_Source\PSoC5/cyfitter_cfg.c **** 			const void * CYDATA srcPtr = mc->src;
 446:Generated_Source\PSoC5/cyfitter_cfg.c **** 			uint16 CYDATA numBytes = mc->size;
 447:Generated_Source\PSoC5/cyfitter_cfg.c **** 			CYCONFIGCPY(destPtr, srcPtr, numBytes);
 562              		.loc 1 447 0 discriminator 3
 563 003e 1A8F     		ldrh	r2, [r3, #56]
 564 0040 596B     		ldr	r1, [r3, #52]	@ unaligned
 565              	.LVL39:
 566 0042 186B     		ldr	r0, [r3, #48]	@ unaligned
 567              	.LVL40:
 568 0044 FFF7FEFF 		bl	CYCONFIGCPY
 569              	.LVL41:
 570              	.LBE5:
 441:Generated_Source\PSoC5/cyfitter_cfg.c **** 		{
 571              		.loc 1 441 0 discriminator 3
 572 0048 0134     		adds	r4, r4, #1
 573              	.LVL42:
 574 004a E4B2     		uxtb	r4, r4
 575              	.LVL43:
 576              	.L33:
 441:Generated_Source\PSoC5/cyfitter_cfg.c **** 		{
 577              		.loc 1 441 0 is_stmt 0 discriminator 1
 578 004c 022C     		cmp	r4, #2
 579 004e F1D9     		bls	.L34
 448:Generated_Source\PSoC5/cyfitter_cfg.c **** 		}
 449:Generated_Source\PSoC5/cyfitter_cfg.c **** 
 450:Generated_Source\PSoC5/cyfitter_cfg.c **** 		cfg_write_bytes32(cy_cfg_addr_table, cy_cfg_data_table);
 580              		.loc 1 450 0 is_stmt 1
 581 0050 2A49     		ldr	r1, .L36+8
 582 0052 4FF09040 		mov	r0, #1207959552
 583 0056 FFF7FEFF 		bl	cfg_write_bytes32
 584              	.LVL44:
 451:Generated_Source\PSoC5/cyfitter_cfg.c **** 
ARM GAS  C:\Users\ANDREW~1\AppData\Local\Temp\ccpZtOe3.s 			page 20


 452:Generated_Source\PSoC5/cyfitter_cfg.c **** 		/* Perform normal device configuration. Order is not critical for these items. */
 453:Generated_Source\PSoC5/cyfitter_cfg.c **** 		CY_SET_XTND_REG16((void CYFAR *)(CYREG_LUT0_CR), 0x0003u);
 585              		.loc 1 453 0
 586 005a 0322     		movs	r2, #3
 587 005c 284B     		ldr	r3, .L36+12
 588 005e 1A80     		strh	r2, [r3]	@ movhi
 454:Generated_Source\PSoC5/cyfitter_cfg.c **** 
 455:Generated_Source\PSoC5/cyfitter_cfg.c **** 		/* Enable digital routing */
 456:Generated_Source\PSoC5/cyfitter_cfg.c **** 		CY_SET_XTND_REG8((void CYFAR *)CYREG_BCTL0_BANK_CTL, CY_GET_XTND_REG8((void CYFAR *)CYREG_BCTL0_B
 589              		.loc 1 456 0
 590 0060 02F18042 		add	r2, r2, #1073741824
 591 0064 02F5A832 		add	r2, r2, #86016
 592 0068 1378     		ldrb	r3, [r2]	@ zero_extendqisi2
 593 006a 43F00203 		orr	r3, r3, #2
 594 006e 1370     		strb	r3, [r2]
 457:Generated_Source\PSoC5/cyfitter_cfg.c **** 		CY_SET_XTND_REG8((void CYFAR *)CYREG_BCTL1_BANK_CTL, CY_GET_XTND_REG8((void CYFAR *)CYREG_BCTL1_B
 595              		.loc 1 457 0
 596 0070 1032     		adds	r2, r2, #16
 597 0072 1378     		ldrb	r3, [r2]	@ zero_extendqisi2
 598 0074 43F00203 		orr	r3, r3, #2
 599 0078 1370     		strb	r3, [r2]
 458:Generated_Source\PSoC5/cyfitter_cfg.c **** 
 459:Generated_Source\PSoC5/cyfitter_cfg.c **** 		/* Enable UDB array */
 460:Generated_Source\PSoC5/cyfitter_cfg.c **** 		CY_SET_XTND_REG8((void CYFAR *)CYREG_PM_ACT_CFG0, CY_GET_XTND_REG8((void CYFAR *)CYREG_PM_ACT_CFG
 600              		.loc 1 460 0
 601 007a 224C     		ldr	r4, .L36+16
 602              	.LVL45:
 603 007c 2378     		ldrb	r3, [r4]	@ zero_extendqisi2
 604 007e 43F04003 		orr	r3, r3, #64
 605 0082 2370     		strb	r3, [r4]
 461:Generated_Source\PSoC5/cyfitter_cfg.c **** 		CY_SET_XTND_REG8((void CYFAR *)CYREG_PM_AVAIL_CR2, CY_GET_XTND_REG8((void CYFAR *)CYREG_PM_AVAIL_
 606              		.loc 1 461 0
 607 0084 A2F58632 		sub	r2, r2, #68608
 608 0088 513A     		subs	r2, r2, #81
 609 008a 1378     		ldrb	r3, [r2]	@ zero_extendqisi2
 610 008c 43F01003 		orr	r3, r3, #16
 611 0090 1370     		strb	r3, [r2]
 612              	.LBE3:
 462:Generated_Source\PSoC5/cyfitter_cfg.c **** 	}
 463:Generated_Source\PSoC5/cyfitter_cfg.c **** 
 464:Generated_Source\PSoC5/cyfitter_cfg.c **** 
 465:Generated_Source\PSoC5/cyfitter_cfg.c **** 	/* Perform second pass device configuration. These items must be configured in specific order afte
 466:Generated_Source\PSoC5/cyfitter_cfg.c **** 	CYCONFIGCPY((void CYFAR *)(CYREG_PRT0_DR), (const void CYFAR *)(BS_IOPINS0_0_VAL), 10u);
 613              		.loc 1 466 0
 614 0092 0A22     		movs	r2, #10
 615 0094 1C49     		ldr	r1, .L36+20
 616 0096 1D48     		ldr	r0, .L36+24
 617 0098 FFF7FEFF 		bl	CYCONFIGCPY
 618              	.LVL46:
 467:Generated_Source\PSoC5/cyfitter_cfg.c **** 	CYCONFIGCPY((void CYFAR *)(CYREG_PRT12_DR), (const void CYFAR *)(BS_IOPINS0_7_VAL), 10u);
 619              		.loc 1 467 0
 620 009c 0A22     		movs	r2, #10
 621 009e 1C49     		ldr	r1, .L36+28
 622 00a0 1C48     		ldr	r0, .L36+32
 623 00a2 FFF7FEFF 		bl	CYCONFIGCPY
 624              	.LVL47:
 468:Generated_Source\PSoC5/cyfitter_cfg.c **** 	CYCONFIGCPY((void CYFAR *)(CYREG_PRT1_DR), (const void CYFAR *)(BS_IOPINS0_1_VAL), 10u);
ARM GAS  C:\Users\ANDREW~1\AppData\Local\Temp\ccpZtOe3.s 			page 21


 625              		.loc 1 468 0
 626 00a6 0A22     		movs	r2, #10
 627 00a8 1B49     		ldr	r1, .L36+36
 628 00aa 1C48     		ldr	r0, .L36+40
 629 00ac FFF7FEFF 		bl	CYCONFIGCPY
 630              	.LVL48:
 469:Generated_Source\PSoC5/cyfitter_cfg.c **** 	CYCONFIGCPY((void CYFAR *)(CYREG_PRT2_DR), (const void CYFAR *)(BS_IOPINS0_2_VAL), 10u);
 631              		.loc 1 469 0
 632 00b0 0A22     		movs	r2, #10
 633 00b2 1B49     		ldr	r1, .L36+44
 634 00b4 1B48     		ldr	r0, .L36+48
 635 00b6 FFF7FEFF 		bl	CYCONFIGCPY
 636              	.LVL49:
 470:Generated_Source\PSoC5/cyfitter_cfg.c **** 	CYCONFIGCPY((void CYFAR *)(CYREG_PRT3_DR), (const void CYFAR *)(BS_IOPINS0_3_VAL), 10u);
 637              		.loc 1 470 0
 638 00ba 0A22     		movs	r2, #10
 639 00bc 1A49     		ldr	r1, .L36+52
 640 00be 1B48     		ldr	r0, .L36+56
 641 00c0 FFF7FEFF 		bl	CYCONFIGCPY
 642              	.LVL50:
 471:Generated_Source\PSoC5/cyfitter_cfg.c **** 	/* Switch Boost to the precision bandgap reference from its internal reference */
 472:Generated_Source\PSoC5/cyfitter_cfg.c **** 	CY_SET_REG8((void CYXDATA *)CYREG_BOOST_CR2, (CY_GET_REG8((void CYXDATA *)CYREG_BOOST_CR2) | 0x08u
 643              		.loc 1 472 0
 644 00c4 1A4A     		ldr	r2, .L36+60
 645 00c6 1378     		ldrb	r3, [r2]	@ zero_extendqisi2
 646 00c8 43F00803 		orr	r3, r3, #8
 647 00cc 1370     		strb	r3, [r2]
 473:Generated_Source\PSoC5/cyfitter_cfg.c **** 
 474:Generated_Source\PSoC5/cyfitter_cfg.c **** 	/* Set Flash Cycles based on max possible frequency in case a glitch occurs during ClockSetup(). *
 475:Generated_Source\PSoC5/cyfitter_cfg.c **** 	CY_SET_XTND_REG8((void CYFAR *)(CYREG_CACHE_CC_CTL), (((CYDEV_INSTRUCT_CACHE_ENABLED) != 0) ? 0x61
 648              		.loc 1 475 0
 649 00ce 194D     		ldr	r5, .L36+64
 650 00d0 6123     		movs	r3, #97
 651 00d2 2B70     		strb	r3, [r5]
 476:Generated_Source\PSoC5/cyfitter_cfg.c **** 	/* Setup clocks based on selections from Clock DWR */
 477:Generated_Source\PSoC5/cyfitter_cfg.c **** 	ClockSetup();
 652              		.loc 1 477 0
 653 00d4 FFF7FEFF 		bl	ClockSetup
 654              	.LVL51:
 478:Generated_Source\PSoC5/cyfitter_cfg.c **** 	/* Set Flash Cycles based on newly configured 24.00MHz Bus Clock. */
 479:Generated_Source\PSoC5/cyfitter_cfg.c **** 	CY_SET_XTND_REG8((void CYFAR *)(CYREG_CACHE_CC_CTL), (((CYDEV_INSTRUCT_CACHE_ENABLED) != 0) ? 0x81
 655              		.loc 1 479 0
 656 00d8 8123     		movs	r3, #129
 657 00da 2B70     		strb	r3, [r5]
 480:Generated_Source\PSoC5/cyfitter_cfg.c **** 	CY_SET_XTND_REG8((void CYFAR *)(CYREG_PANTHER_WAITPIPE), 0x01u);
 658              		.loc 1 480 0
 659 00dc 0122     		movs	r2, #1
 660 00de 164B     		ldr	r3, .L36+68
 661 00e0 1A70     		strb	r2, [r3]
 481:Generated_Source\PSoC5/cyfitter_cfg.c **** 
 482:Generated_Source\PSoC5/cyfitter_cfg.c **** 	/* Perform basic analog initialization to defaults */
 483:Generated_Source\PSoC5/cyfitter_cfg.c **** 	AnalogSetDefault();
 662              		.loc 1 483 0
 663 00e2 FFF7FEFF 		bl	AnalogSetDefault
 664              	.LVL52:
 484:Generated_Source\PSoC5/cyfitter_cfg.c **** 
 485:Generated_Source\PSoC5/cyfitter_cfg.c **** 	/* Configure alternate active mode */
ARM GAS  C:\Users\ANDREW~1\AppData\Local\Temp\ccpZtOe3.s 			page 22


 486:Generated_Source\PSoC5/cyfitter_cfg.c **** 	CYCONFIGCPY((void CYFAR *)CYDEV_PM_STBY_BASE, (const void CYFAR *)CYDEV_PM_ACT_BASE, 14u);
 665              		.loc 1 486 0
 666 00e6 0E22     		movs	r2, #14
 667 00e8 2146     		mov	r1, r4
 668 00ea 1448     		ldr	r0, .L36+72
 669 00ec FFF7FEFF 		bl	CYCONFIGCPY
 670              	.LVL53:
 671 00f0 38BD     		pop	{r3, r4, r5, pc}
 672              	.L37:
 673 00f2 00BF     		.align	2
 674              	.L36:
 675 00f4 E8460040 		.word	1073759976
 676 00f8 00000000 		.word	.LANCHOR0
 677 00fc 74000048 		.word	1207959668
 678 0100 48580040 		.word	1073764424
 679 0104 A0430040 		.word	1073759136
 680 0108 28060048 		.word	1207961128
 681 010c 00510040 		.word	1073762560
 682 0110 34060048 		.word	1207961140
 683 0114 C0510040 		.word	1073762752
 684 0118 40060048 		.word	1207961152
 685 011c 10510040 		.word	1073762576
 686 0120 4C060048 		.word	1207961164
 687 0124 20510040 		.word	1073762592
 688 0128 58060048 		.word	1207961176
 689 012c 30510040 		.word	1073762608
 690 0130 22430040 		.word	1073759010
 691 0134 00480040 		.word	1073760256
 692 0138 04000840 		.word	1074266116
 693 013c B0430040 		.word	1073759152
 694              		.cfi_endproc
 695              	.LFE8:
 696              		.size	cyfitter_cfg, .-cyfitter_cfg
 697              		.section	.rodata
 698              		.align	2
 699              		.set	.LANCHOR0,. + 0
 700              		.type	cfg_memset_list.5018, %object
 701              		.size	cfg_memset_list.5018, 48
 702              	cfg_memset_list.5018:
 703 0000 40510040 		.word	1073762624
 704 0004 3000     		.short	48
 705 0006 F0510040 		.4byte	1073762800
 706 000a 1000     		.short	16
 707 000c 00000140 		.word	1073807360
 708 0010 0010     		.short	4096
 709 0012 80140140 		.4byte	1073812608
 710 0016 8005     		.short	1408
 711 0018 801A0140 		.word	1073814144
 712 001c 8001     		.short	384
 713 001e 00400140 		.4byte	1073823744
 714 0022 000A     		.short	2560
 715 0024 004C0140 		.word	1073826816
 716 0028 0002     		.short	512
 717 002a 00500140 		.4byte	1073827840
 718 002e 2000     		.short	32
 719              		.type	cfg_memcpy_list.5019, %object
 720              		.size	cfg_memcpy_list.5019, 30
ARM GAS  C:\Users\ANDREW~1\AppData\Local\Temp\ccpZtOe3.s 			page 23


 721              	cfg_memcpy_list.5019:
 722 0030 60520040 		.word	1073762912
 723 0034 20050048 		.word	1207960864
 724 0038 0600     		.short	6
 725 003a 00140140 		.4byte	1073812480
 726 003e 28050048 		.4byte	1207960872
 727 0042 8000     		.short	128
 728 0044 001A0140 		.word	1073814016
 729 0048 A8050048 		.word	1207961000
 730 004c 8000     		.short	128
 731              		.text
 732              	.Letext0:
 733              		.file 2 "d:\\monash_apps\\psoc creator\\4.4\\psoc creator\\import\\gnu\\arm\\5.4.1\\lib\\gcc\\arm-
 734              		.file 3 "Generated_Source\\PSoC5\\cytypes.h"
 735              		.file 4 "Generated_Source\\PSoC5\\CyLib.h"