ARM GAS  C:\Users\ANDREW~1\AppData\Local\Temp\ccpWLb1v.s 			page 1


   1              		.syntax unified
   2              		.cpu cortex-m3
   3              		.fpu softvfp
   4              		.eabi_attribute 20, 1
   5              		.eabi_attribute 21, 1
   6              		.eabi_attribute 23, 3
   7              		.eabi_attribute 24, 1
   8              		.eabi_attribute 25, 1
   9              		.eabi_attribute 26, 1
  10              		.eabi_attribute 30, 1
  11              		.eabi_attribute 34, 1
  12              		.eabi_attribute 18, 4
  13              		.thumb
  14              		.syntax unified
  15              		.file	"main.c"
  16              		.text
  17              	.Ltext0:
  18              		.cfi_sections	.debug_frame
  19              		.section	.text.ISR,"ax",%progbits
  20              		.align	2
  21              		.global	ISR
  22              		.thumb
  23              		.thumb_func
  24              		.type	ISR, %function
  25              	ISR:
  26              	.LFB63:
  27              		.file 1 "main.c"
   1:main.c        **** /* ========================================
   2:main.c        ****  *
   3:main.c        ****  * Copyright YOUR COMPANY, THE YEAR
   4:main.c        ****  * All Rights Reserved
   5:main.c        ****  * UNPUBLISHED, LICENSED SOFTWARE.
   6:main.c        ****  *
   7:main.c        ****  * CONFIDENTIAL AND PROPRIETARY INFORMATION
   8:main.c        ****  * WHICH IS THE PROPERTY OF your company.
   9:main.c        ****  *
  10:main.c        ****  * ========================================
  11:main.c        **** */
  12:main.c        **** #include "project.h"
  13:main.c        **** 
  14:main.c        **** void draw_7Seg(const char* segmentPattern,int dp);
  15:main.c        **** void display_num(double value);
  16:main.c        **** 
  17:main.c        **** double counter = 0;
  18:main.c        **** int run_7_Seg = 0;
  19:main.c        **** 
  20:main.c        **** CY_ISR(ISR) // This is the ISR
  21:main.c        **** {
  28              		.loc 1 21 0
  29              		.cfi_startproc
  30              		@ args = 0, pretend = 0, frame = 0
  31              		@ frame_needed = 0, uses_anonymous_args = 0
  32              		@ link register save eliminated.
  22:main.c        ****     run_7_Seg = 1;
  33              		.loc 1 22 0
  34 0000 0122     		movs	r2, #1
  35 0002 014B     		ldr	r3, .L2
ARM GAS  C:\Users\ANDREW~1\AppData\Local\Temp\ccpWLb1v.s 			page 2


  36 0004 1A60     		str	r2, [r3]
  37 0006 7047     		bx	lr
  38              	.L3:
  39              		.align	2
  40              	.L2:
  41 0008 00000000 		.word	.LANCHOR0
  42              		.cfi_endproc
  43              	.LFE63:
  44              		.size	ISR, .-ISR
  45              		.global	__aeabi_dadd
  46              		.section	.text.MyCustomISR2,"ax",%progbits
  47              		.align	2
  48              		.global	MyCustomISR2
  49              		.thumb
  50              		.thumb_func
  51              		.type	MyCustomISR2, %function
  52              	MyCustomISR2:
  53              	.LFB64:
  23:main.c        **** }
  24:main.c        **** 
  25:main.c        **** CY_ISR(MyCustomISR2) // This is the ISR
  26:main.c        **** {
  54              		.loc 1 26 0
  55              		.cfi_startproc
  56              		@ args = 0, pretend = 0, frame = 0
  57              		@ frame_needed = 0, uses_anonymous_args = 0
  58 0000 10B5     		push	{r4, lr}
  59              		.cfi_def_cfa_offset 8
  60              		.cfi_offset 4, -8
  61              		.cfi_offset 14, -4
  27:main.c        ****     counter +=0.001;
  62              		.loc 1 27 0
  63 0002 074C     		ldr	r4, .L6+8
  64 0004 04A3     		adr	r3, .L6
  65 0006 D3E90023 		ldrd	r2, [r3]
  66 000a D4E90201 		ldrd	r0, [r4, #8]
  67 000e FFF7FEFF 		bl	__aeabi_dadd
  68              	.LVL0:
  69 0012 C4E90201 		strd	r0, [r4, #8]
  70 0016 10BD     		pop	{r4, pc}
  71              	.L7:
  72              		.align	3
  73              	.L6:
  74 0018 FCA9F1D2 		.word	-755914244
  75 001c 4D62503F 		.word	1062232653
  76 0020 00000000 		.word	.LANCHOR0
  77              		.cfi_endproc
  78              	.LFE64:
  79              		.size	MyCustomISR2, .-MyCustomISR2
  80              		.section	.text.draw_7Seg,"ax",%progbits
  81              		.align	2
  82              		.global	draw_7Seg
  83              		.thumb
  84              		.thumb_func
  85              		.type	draw_7Seg, %function
  86              	draw_7Seg:
  87              	.LFB67:
ARM GAS  C:\Users\ANDREW~1\AppData\Local\Temp\ccpWLb1v.s 			page 3


  28:main.c        **** }
  29:main.c        **** 
  30:main.c        **** int main(void)
  31:main.c        **** {
  32:main.c        ****     // Enable interrupts
  33:main.c        ****     CyGlobalIntEnable; 
  34:main.c        ****     isr_7Seg_ClearPending(); 
  35:main.c        ****     isr_2_ClearPending(); 
  36:main.c        **** 
  37:main.c        ****     isr_7Seg_StartEx(ISR); // Enable the interrupt service routine
  38:main.c        ****     isr_2_StartEx(MyCustomISR2); // Enable the interrupt service routine
  39:main.c        **** 
  40:main.c        ****     for(;;)
  41:main.c        ****     {
  42:main.c        ****         
  43:main.c        ****         
  44:main.c        ****         display_num(counter);
  45:main.c        ****         
  46:main.c        **** 
  47:main.c        **** 
  48:main.c        ****         /* Place your application code here. */
  49:main.c        ****     }
  50:main.c        **** }
  51:main.c        **** 
  52:main.c        **** 
  53:main.c        **** // ================================================================================================
  54:main.c        **** // 7 Segment display code
  55:main.c        **** const char charLookup[][8] = {
  56:main.c        ****   "1111110", // 0
  57:main.c        ****   "0110000", // 1
  58:main.c        ****   "1101101", // 2
  59:main.c        ****   "1111001", // 3
  60:main.c        ****   "0110011", // 4
  61:main.c        ****   "1011011", // 5
  62:main.c        ****   "1011111", // 6
  63:main.c        ****   "1110000", // 7
  64:main.c        ****   "1111111", // 8
  65:main.c        ****   "1111011", // 9
  66:main.c        ****   "0000000", // Space
  67:main.c        **** };
  68:main.c        **** int delayTime=5; // On time for each display to be turned on for
  69:main.c        **** double old_dis_val=0;
  70:main.c        **** 
  71:main.c        **** int D[4]= {0,0,0,0};
  72:main.c        **** int digits = 0;
  73:main.c        **** int dp[4]={0,0,0,0};
  74:main.c        **** unsigned long count = 0;
  75:main.c        ****         
  76:main.c        **** void display_num(double value)
  77:main.c        **** {       
  78:main.c        ****     if (run_7_Seg==1)
  79:main.c        ****     {
  80:main.c        ****         if(value != old_dis_val)
  81:main.c        ****         {
  82:main.c        ****             // Convert double to d1,d2,d3,d4,dp_pos
  83:main.c        ****             int dp_pos = 0;
  84:main.c        ****         
ARM GAS  C:\Users\ANDREW~1\AppData\Local\Temp\ccpWLb1v.s 			page 4


  85:main.c        ****             if (value>=1) // For values above 1
  86:main.c        ****             {
  87:main.c        ****                     while(value<1000)
  88:main.c        ****                 {
  89:main.c        ****                     value=value*10;
  90:main.c        ****                     dp_pos+=1;
  91:main.c        ****                 }
  92:main.c        ****                 // Extract integer and decimal parts
  93:main.c        ****                 digits = (int)value;
  94:main.c        ****                 
  95:main.c        ****                 D[0] = (int)(digits/1000)%10;
  96:main.c        ****                 D[1] = (int)(digits/100)%10;
  97:main.c        ****                 D[2] = (int)(digits/10)%10;
  98:main.c        ****                 D[3] = (int)(digits/1) %10;
  99:main.c        ****             }
 100:main.c        ****             else //For below 1, fix decimal point at digit 1 (eg. 0.9, 0.8, 0.01)
 101:main.c        ****             {
 102:main.c        ****                 dp_pos=3;
 103:main.c        ****                 
 104:main.c        ****                 digits = (int) (value*1000);
 105:main.c        ****                 
 106:main.c        ****                 D[0] = (int)(digits/1000)%10;
 107:main.c        ****                 D[1] = (int)(digits/100)%10;
 108:main.c        ****                 D[2] = (int)(digits/10)%10;
 109:main.c        ****                 D[3] = (int)(digits/1) %10;
 110:main.c        ****                 
 111:main.c        ****             }
 112:main.c        ****         
 113:main.c        ****          
 114:main.c        ****             ////////////////////////////////////////////
 115:main.c        ****             // fill each segments of the display
 116:main.c        ****             //int dp[4]={0,0,0,0};
 117:main.c        ****             dp[0] = 0;
 118:main.c        ****             dp[1] = 0;
 119:main.c        ****             dp[2] = 0;
 120:main.c        ****             dp[3] = 0;
 121:main.c        ****             dp[dp_pos]=1;
 122:main.c        ****             
 123:main.c        ****             old_dis_val = value;
 124:main.c        ****         }
 125:main.c        ****         
 126:main.c        ****         
 127:main.c        ****         // Loop through each display each time we run 7_seg display function
 128:main.c        ****         count++;
 129:main.c        ****         count = count %4; //limit count between 0 to 3
 130:main.c        ****         
 131:main.c        ****         //for (int i=0;i<4;i++)
 132:main.c        ****         //{
 133:main.c        ****         // Turn off all digits
 134:main.c        ****         Dis_D1_Write(1);
 135:main.c        ****         Dis_D2_Write(1);
 136:main.c        ****         Dis_D3_Write(1);
 137:main.c        ****         Dis_D4_Write(1);
 138:main.c        ****         
 139:main.c        ****         // Update new value to display
 140:main.c        ****         draw_7Seg(charLookup[D[count]],dp[3-count]);
 141:main.c        ****         
ARM GAS  C:\Users\ANDREW~1\AppData\Local\Temp\ccpWLb1v.s 			page 5


 142:main.c        ****         // Only show on specified section
 143:main.c        ****         if     (count==0)Dis_D1_Write(0);
 144:main.c        ****         else if(count==1)Dis_D2_Write(0);
 145:main.c        ****         else if(count==2)Dis_D3_Write(0);
 146:main.c        ****         else if(count==3)Dis_D4_Write(0);
 147:main.c        ****         
 148:main.c        ****         run_7_Seg =0;
 149:main.c        ****     }
 150:main.c        ****         
 151:main.c        ****         // Short delay to reduce flicker
 152:main.c        ****         //CyDelay(delayTime);
 153:main.c        ****         //}
 154:main.c        ****         
 155:main.c        **** }
 156:main.c        **** 
 157:main.c        **** int segmentPattern_array[7];  // Array to store the converted 1s and 0s (7 elements for 7 segments)
 158:main.c        **** void draw_7Seg(const char* segmentPattern,int dp)
 159:main.c        **** {
  88              		.loc 1 159 0
  89              		.cfi_startproc
  90              		@ args = 0, pretend = 0, frame = 0
  91              		@ frame_needed = 0, uses_anonymous_args = 0
  92              	.LVL1:
  93 0000 38B5     		push	{r3, r4, r5, lr}
  94              		.cfi_def_cfa_offset 16
  95              		.cfi_offset 3, -16
  96              		.cfi_offset 4, -12
  97              		.cfi_offset 5, -8
  98              		.cfi_offset 14, -4
  99 0002 0D46     		mov	r5, r1
 100              	.LVL2:
 101              	.LBB2:
 160:main.c        ****     // Convert string to integer
 161:main.c        ****     for (int i = 0; i < 7; i++) {
 102              		.loc 1 161 0
 103 0004 0023     		movs	r3, #0
 104 0006 05E0     		b	.L9
 105              	.LVL3:
 106              	.L10:
 162:main.c        ****         segmentPattern_array[i] = segmentPattern[i]-'0';
 107              		.loc 1 162 0 discriminator 3
 108 0008 C25C     		ldrb	r2, [r0, r3]	@ zero_extendqisi2
 109 000a 303A     		subs	r2, r2, #48
 110 000c 1B49     		ldr	r1, .L12
 111 000e 41F82320 		str	r2, [r1, r3, lsl #2]
 161:main.c        ****         segmentPattern_array[i] = segmentPattern[i]-'0';
 112              		.loc 1 161 0 discriminator 3
 113 0012 0133     		adds	r3, r3, #1
 114              	.LVL4:
 115              	.L9:
 161:main.c        ****         segmentPattern_array[i] = segmentPattern[i]-'0';
 116              		.loc 1 161 0 is_stmt 0 discriminator 1
 117 0014 062B     		cmp	r3, #6
 118 0016 F7DD     		ble	.L10
 119              	.LBE2:
 163:main.c        ****     }
 164:main.c        ****     
ARM GAS  C:\Users\ANDREW~1\AppData\Local\Temp\ccpWLb1v.s 			page 6


 165:main.c        ****     Dis_A_Write(!segmentPattern_array[0]);
 120              		.loc 1 165 0 is_stmt 1
 121 0018 184C     		ldr	r4, .L12
 122 001a 2068     		ldr	r0, [r4]
 123              	.LVL5:
 124 001c B0FA80F0 		clz	r0, r0
 125 0020 4009     		lsrs	r0, r0, #5
 126 0022 FFF7FEFF 		bl	Dis_A_Write
 127              	.LVL6:
 166:main.c        ****     Dis_B_Write(!segmentPattern_array[1]);
 128              		.loc 1 166 0
 129 0026 6068     		ldr	r0, [r4, #4]
 130 0028 B0FA80F0 		clz	r0, r0
 131 002c 4009     		lsrs	r0, r0, #5
 132 002e FFF7FEFF 		bl	Dis_B_Write
 133              	.LVL7:
 167:main.c        ****     Dis_C_Write(!segmentPattern_array[2]);
 134              		.loc 1 167 0
 135 0032 A068     		ldr	r0, [r4, #8]
 136 0034 B0FA80F0 		clz	r0, r0
 137 0038 4009     		lsrs	r0, r0, #5
 138 003a FFF7FEFF 		bl	Dis_C_Write
 139              	.LVL8:
 168:main.c        ****     Dis_D_Write(!segmentPattern_array[3]);
 140              		.loc 1 168 0
 141 003e E068     		ldr	r0, [r4, #12]
 142 0040 B0FA80F0 		clz	r0, r0
 143 0044 4009     		lsrs	r0, r0, #5
 144 0046 FFF7FEFF 		bl	Dis_D_Write
 145              	.LVL9:
 169:main.c        ****     Dis_E_Write(!segmentPattern_array[4]);
 146              		.loc 1 169 0
 147 004a 2069     		ldr	r0, [r4, #16]
 148 004c B0FA80F0 		clz	r0, r0
 149 0050 4009     		lsrs	r0, r0, #5
 150 0052 FFF7FEFF 		bl	Dis_E_Write
 151              	.LVL10:
 170:main.c        ****     Dis_F_Write(!segmentPattern_array[5]);
 152              		.loc 1 170 0
 153 0056 6069     		ldr	r0, [r4, #20]
 154 0058 B0FA80F0 		clz	r0, r0
 155 005c 4009     		lsrs	r0, r0, #5
 156 005e FFF7FEFF 		bl	Dis_F_Write
 157              	.LVL11:
 171:main.c        ****     Dis_G_Write(!segmentPattern_array[6]);
 158              		.loc 1 171 0
 159 0062 A069     		ldr	r0, [r4, #24]
 160 0064 B0FA80F0 		clz	r0, r0
 161 0068 4009     		lsrs	r0, r0, #5
 162 006a FFF7FEFF 		bl	Dis_G_Write
 163              	.LVL12:
 172:main.c        ****     Dis_DP_Write(!dp);
 164              		.loc 1 172 0
 165 006e B5FA85F0 		clz	r0, r5
 166 0072 4009     		lsrs	r0, r0, #5
 167 0074 FFF7FEFF 		bl	Dis_DP_Write
 168              	.LVL13:
ARM GAS  C:\Users\ANDREW~1\AppData\Local\Temp\ccpWLb1v.s 			page 7


 169 0078 38BD     		pop	{r3, r4, r5, pc}
 170              	.LVL14:
 171              	.L13:
 172 007a 00BF     		.align	2
 173              	.L12:
 174 007c 00000000 		.word	segmentPattern_array
 175              		.cfi_endproc
 176              	.LFE67:
 177              		.size	draw_7Seg, .-draw_7Seg
 178              		.global	__aeabi_dcmpeq
 179              		.global	__aeabi_dcmpge
 180              		.global	__aeabi_dmul
 181              		.global	__aeabi_dcmplt
 182              		.global	__aeabi_d2iz
 183              		.section	.text.display_num,"ax",%progbits
 184              		.align	2
 185              		.global	display_num
 186              		.thumb
 187              		.thumb_func
 188              		.type	display_num, %function
 189              	display_num:
 190              	.LFB66:
  77:main.c        ****     if (run_7_Seg==1)
 191              		.loc 1 77 0
 192              		.cfi_startproc
 193              		@ args = 0, pretend = 0, frame = 0
 194              		@ frame_needed = 0, uses_anonymous_args = 0
 195              	.LVL15:
 196 0000 F8B5     		push	{r3, r4, r5, r6, r7, lr}
 197              		.cfi_def_cfa_offset 24
 198              		.cfi_offset 3, -24
 199              		.cfi_offset 4, -20
 200              		.cfi_offset 5, -16
 201              		.cfi_offset 6, -12
 202              		.cfi_offset 7, -8
 203              		.cfi_offset 14, -4
  78:main.c        ****     {
 204              		.loc 1 78 0
 205 0002 764B     		ldr	r3, .L30
 206 0004 1B68     		ldr	r3, [r3]
 207 0006 012B     		cmp	r3, #1
 208 0008 40F0E780 		bne	.L14
 209 000c 0446     		mov	r4, r0
 210 000e 0D46     		mov	r5, r1
  80:main.c        ****         {
 211              		.loc 1 80 0
 212 0010 0246     		mov	r2, r0
 213 0012 0B46     		mov	r3, r1
 214 0014 7149     		ldr	r1, .L30
 215 0016 D1E90401 		ldrd	r0, [r1, #16]
 216              	.LVL16:
 217 001a FFF7FEFF 		bl	__aeabi_dcmpeq
 218              	.LVL17:
 219 001e 0028     		cmp	r0, #0
 220 0020 40F0A180 		bne	.L16
 221              	.LVL18:
 222              	.LBB3:
ARM GAS  C:\Users\ANDREW~1\AppData\Local\Temp\ccpWLb1v.s 			page 8


  85:main.c        ****             {
 223              		.loc 1 85 0
 224 0024 0022     		movs	r2, #0
 225 0026 6E4B     		ldr	r3, .L30+4
 226 0028 2046     		mov	r0, r4
 227 002a 2946     		mov	r1, r5
 228 002c FFF7FEFF 		bl	__aeabi_dcmpge
 229              	.LVL19:
 230 0030 50B9     		cbnz	r0, .L26
 231 0032 4EE0     		b	.L28
 232              	.LVL20:
 233              	.L20:
  89:main.c        ****                     dp_pos+=1;
 234              		.loc 1 89 0
 235 0034 0022     		movs	r2, #0
 236 0036 6B4B     		ldr	r3, .L30+8
 237 0038 2046     		mov	r0, r4
 238 003a 2946     		mov	r1, r5
 239 003c FFF7FEFF 		bl	__aeabi_dmul
 240              	.LVL21:
 241 0040 0446     		mov	r4, r0
 242              	.LVL22:
 243 0042 0D46     		mov	r5, r1
 244              	.LVL23:
  90:main.c        ****                 }
 245              		.loc 1 90 0
 246 0044 0136     		adds	r6, r6, #1
 247              	.LVL24:
 248 0046 00E0     		b	.L18
 249              	.LVL25:
 250              	.L26:
 251 0048 0026     		movs	r6, #0
 252              	.LVL26:
 253              	.L18:
  87:main.c        ****                 {
 254              		.loc 1 87 0
 255 004a 0022     		movs	r2, #0
 256 004c 664B     		ldr	r3, .L30+12
 257 004e 2046     		mov	r0, r4
 258 0050 2946     		mov	r1, r5
 259 0052 FFF7FEFF 		bl	__aeabi_dcmplt
 260              	.LVL27:
 261 0056 0028     		cmp	r0, #0
 262 0058 ECD1     		bne	.L20
  93:main.c        ****                 
 263              		.loc 1 93 0
 264 005a 2046     		mov	r0, r4
 265 005c 2946     		mov	r1, r5
 266 005e FFF7FEFF 		bl	__aeabi_d2iz
 267              	.LVL28:
 268 0062 5E49     		ldr	r1, .L30
 269 0064 8861     		str	r0, [r1, #24]
  95:main.c        ****                 D[1] = (int)(digits/100)%10;
 270              		.loc 1 95 0
 271 0066 614B     		ldr	r3, .L30+16
 272 0068 83FB003E 		smull	r3, lr, r3, r0
 273 006c C217     		asrs	r2, r0, #31
ARM GAS  C:\Users\ANDREW~1\AppData\Local\Temp\ccpWLb1v.s 			page 9


 274 006e C2EBAE1E 		rsb	lr, r2, lr, asr #6
 275 0072 5F4F     		ldr	r7, .L30+20
 276 0074 87FB0E3C 		smull	r3, ip, r7, lr
 277 0078 4FEAEE73 		asr	r3, lr, #31
 278 007c C3EBAC03 		rsb	r3, r3, ip, asr #2
 279 0080 03EB8303 		add	r3, r3, r3, lsl #2
 280 0084 AEEB4303 		sub	r3, lr, r3, lsl #1
 281 0088 CB61     		str	r3, [r1, #28]
  96:main.c        ****                 D[2] = (int)(digits/10)%10;
 282              		.loc 1 96 0
 283 008a 5A4B     		ldr	r3, .L30+24
 284 008c 83FB003E 		smull	r3, lr, r3, r0
 285 0090 C2EB6E1E 		rsb	lr, r2, lr, asr #5
 286 0094 87FB0E3C 		smull	r3, ip, r7, lr
 287 0098 4FEAEE73 		asr	r3, lr, #31
 288 009c C3EBAC03 		rsb	r3, r3, ip, asr #2
 289 00a0 03EB8303 		add	r3, r3, r3, lsl #2
 290 00a4 AEEB4303 		sub	r3, lr, r3, lsl #1
 291 00a8 0B62     		str	r3, [r1, #32]
  97:main.c        ****                 D[3] = (int)(digits/1) %10;
 292              		.loc 1 97 0
 293 00aa 87FB00E3 		smull	lr, r3, r7, r0
 294 00ae C2EBA303 		rsb	r3, r2, r3, asr #2
 295 00b2 87FB0327 		smull	r2, r7, r7, r3
 296 00b6 DA17     		asrs	r2, r3, #31
 297 00b8 C2EBA702 		rsb	r2, r2, r7, asr #2
 298 00bc 02EB8202 		add	r2, r2, r2, lsl #2
 299 00c0 A3EB4202 		sub	r2, r3, r2, lsl #1
 300 00c4 4A62     		str	r2, [r1, #36]
  98:main.c        ****             }
 301              		.loc 1 98 0
 302 00c6 03EB8303 		add	r3, r3, r3, lsl #2
 303 00ca A0EB4303 		sub	r3, r0, r3, lsl #1
 304 00ce 8B62     		str	r3, [r1, #40]
 305 00d0 3DE0     		b	.L21
 306              	.LVL29:
 307              	.L28:
 104:main.c        ****                 
 308              		.loc 1 104 0
 309 00d2 0022     		movs	r2, #0
 310 00d4 444B     		ldr	r3, .L30+12
 311 00d6 2046     		mov	r0, r4
 312 00d8 2946     		mov	r1, r5
 313 00da FFF7FEFF 		bl	__aeabi_dmul
 314              	.LVL30:
 315 00de FFF7FEFF 		bl	__aeabi_d2iz
 316              	.LVL31:
 317 00e2 3E4E     		ldr	r6, .L30
 318 00e4 B061     		str	r0, [r6, #24]
 106:main.c        ****                 D[1] = (int)(digits/100)%10;
 319              		.loc 1 106 0
 320 00e6 414F     		ldr	r7, .L30+16
 321 00e8 87FB0037 		smull	r3, r7, r7, r0
 322 00ec C317     		asrs	r3, r0, #31
 323 00ee C3EBA717 		rsb	r7, r3, r7, asr #6
 324 00f2 3F4A     		ldr	r2, .L30+20
 325 00f4 82FB071E 		smull	r1, lr, r2, r7
ARM GAS  C:\Users\ANDREW~1\AppData\Local\Temp\ccpWLb1v.s 			page 10


 326 00f8 F917     		asrs	r1, r7, #31
 327 00fa C1EBAE01 		rsb	r1, r1, lr, asr #2
 328 00fe 01EB8101 		add	r1, r1, r1, lsl #2
 329 0102 A7EB4101 		sub	r1, r7, r1, lsl #1
 330 0106 F161     		str	r1, [r6, #28]
 107:main.c        ****                 D[2] = (int)(digits/10)%10;
 331              		.loc 1 107 0
 332 0108 3A4F     		ldr	r7, .L30+24
 333 010a 87FB0017 		smull	r1, r7, r7, r0
 334 010e C3EB6717 		rsb	r7, r3, r7, asr #5
 335 0112 82FB071E 		smull	r1, lr, r2, r7
 336 0116 F917     		asrs	r1, r7, #31
 337 0118 C1EBAE01 		rsb	r1, r1, lr, asr #2
 338 011c 01EB8101 		add	r1, r1, r1, lsl #2
 339 0120 A7EB4101 		sub	r1, r7, r1, lsl #1
 340 0124 3162     		str	r1, [r6, #32]
 108:main.c        ****                 D[3] = (int)(digits/1) %10;
 341              		.loc 1 108 0
 342 0126 82FB0071 		smull	r7, r1, r2, r0
 343 012a C3EBA103 		rsb	r3, r3, r1, asr #2
 344 012e 82FB0321 		smull	r2, r1, r2, r3
 345 0132 DA17     		asrs	r2, r3, #31
 346 0134 C2EBA102 		rsb	r2, r2, r1, asr #2
 347 0138 02EB8202 		add	r2, r2, r2, lsl #2
 348 013c A3EB4202 		sub	r2, r3, r2, lsl #1
 349 0140 7262     		str	r2, [r6, #36]
 109:main.c        ****                 
 350              		.loc 1 109 0
 351 0142 03EB8303 		add	r3, r3, r3, lsl #2
 352 0146 A0EB4303 		sub	r3, r0, r3, lsl #1
 353 014a B362     		str	r3, [r6, #40]
 102:main.c        ****                 
 354              		.loc 1 102 0
 355 014c 0326     		movs	r6, #3
 356              	.LVL32:
 357              	.L21:
 117:main.c        ****             dp[1] = 0;
 358              		.loc 1 117 0
 359 014e 234B     		ldr	r3, .L30
 360 0150 0022     		movs	r2, #0
 361 0152 DA62     		str	r2, [r3, #44]
 118:main.c        ****             dp[2] = 0;
 362              		.loc 1 118 0
 363 0154 1A63     		str	r2, [r3, #48]
 119:main.c        ****             dp[3] = 0;
 364              		.loc 1 119 0
 365 0156 5A63     		str	r2, [r3, #52]
 120:main.c        ****             dp[dp_pos]=1;
 366              		.loc 1 120 0
 367 0158 9A63     		str	r2, [r3, #56]
 121:main.c        ****             
 368              		.loc 1 121 0
 369 015a 03EB8606 		add	r6, r3, r6, lsl #2
 370              	.LVL33:
 371 015e 0122     		movs	r2, #1
 372 0160 F262     		str	r2, [r6, #44]
 123:main.c        ****         }
ARM GAS  C:\Users\ANDREW~1\AppData\Local\Temp\ccpWLb1v.s 			page 11


 373              		.loc 1 123 0
 374 0162 C3E90445 		strd	r4, [r3, #16]
 375              	.LVL34:
 376              	.L16:
 377              	.LBE3:
 128:main.c        ****         count = count %4; //limit count between 0 to 3
 378              		.loc 1 128 0
 379 0166 1D4C     		ldr	r4, .L30
 380 0168 E36B     		ldr	r3, [r4, #60]
 381 016a 0133     		adds	r3, r3, #1
 129:main.c        ****         
 382              		.loc 1 129 0
 383 016c 03F00303 		and	r3, r3, #3
 384 0170 E363     		str	r3, [r4, #60]
 134:main.c        ****         Dis_D2_Write(1);
 385              		.loc 1 134 0
 386 0172 0120     		movs	r0, #1
 387 0174 FFF7FEFF 		bl	Dis_D1_Write
 388              	.LVL35:
 135:main.c        ****         Dis_D3_Write(1);
 389              		.loc 1 135 0
 390 0178 0120     		movs	r0, #1
 391 017a FFF7FEFF 		bl	Dis_D2_Write
 392              	.LVL36:
 136:main.c        ****         Dis_D4_Write(1);
 393              		.loc 1 136 0
 394 017e 0120     		movs	r0, #1
 395 0180 FFF7FEFF 		bl	Dis_D3_Write
 396              	.LVL37:
 137:main.c        ****         
 397              		.loc 1 137 0
 398 0184 0120     		movs	r0, #1
 399 0186 FFF7FEFF 		bl	Dis_D4_Write
 400              	.LVL38:
 140:main.c        ****         
 401              		.loc 1 140 0
 402 018a E36B     		ldr	r3, [r4, #60]
 403 018c 04EB8302 		add	r2, r4, r3, lsl #2
 404 0190 D069     		ldr	r0, [r2, #28]
 405 0192 C3F10303 		rsb	r3, r3, #3
 406 0196 04EB8303 		add	r3, r4, r3, lsl #2
 407 019a D96A     		ldr	r1, [r3, #44]
 408 019c 164B     		ldr	r3, .L30+28
 409 019e 03EBC000 		add	r0, r3, r0, lsl #3
 410 01a2 FFF7FEFF 		bl	draw_7Seg
 411              	.LVL39:
 143:main.c        ****         else if(count==1)Dis_D2_Write(0);
 412              		.loc 1 143 0
 413 01a6 E36B     		ldr	r3, [r4, #60]
 414 01a8 1BB9     		cbnz	r3, .L22
 143:main.c        ****         else if(count==1)Dis_D2_Write(0);
 415              		.loc 1 143 0 is_stmt 0 discriminator 1
 416 01aa 0020     		movs	r0, #0
 417 01ac FFF7FEFF 		bl	Dis_D1_Write
 418              	.LVL40:
 419 01b0 10E0     		b	.L23
 420              	.L22:
ARM GAS  C:\Users\ANDREW~1\AppData\Local\Temp\ccpWLb1v.s 			page 12


 144:main.c        ****         else if(count==2)Dis_D3_Write(0);
 421              		.loc 1 144 0 is_stmt 1
 422 01b2 012B     		cmp	r3, #1
 423 01b4 03D1     		bne	.L24
 144:main.c        ****         else if(count==2)Dis_D3_Write(0);
 424              		.loc 1 144 0 is_stmt 0 discriminator 1
 425 01b6 0020     		movs	r0, #0
 426 01b8 FFF7FEFF 		bl	Dis_D2_Write
 427              	.LVL41:
 428 01bc 0AE0     		b	.L23
 429              	.L24:
 145:main.c        ****         else if(count==3)Dis_D4_Write(0);
 430              		.loc 1 145 0 is_stmt 1
 431 01be 022B     		cmp	r3, #2
 432 01c0 03D1     		bne	.L25
 145:main.c        ****         else if(count==3)Dis_D4_Write(0);
 433              		.loc 1 145 0 is_stmt 0 discriminator 1
 434 01c2 0020     		movs	r0, #0
 435 01c4 FFF7FEFF 		bl	Dis_D3_Write
 436              	.LVL42:
 437 01c8 04E0     		b	.L23
 438              	.L25:
 146:main.c        ****         
 439              		.loc 1 146 0 is_stmt 1
 440 01ca 032B     		cmp	r3, #3
 441 01cc 02D1     		bne	.L23
 146:main.c        ****         
 442              		.loc 1 146 0 is_stmt 0 discriminator 1
 443 01ce 0020     		movs	r0, #0
 444 01d0 FFF7FEFF 		bl	Dis_D4_Write
 445              	.LVL43:
 446              	.L23:
 148:main.c        ****     }
 447              		.loc 1 148 0 is_stmt 1
 448 01d4 0022     		movs	r2, #0
 449 01d6 014B     		ldr	r3, .L30
 450 01d8 1A60     		str	r2, [r3]
 451              	.L14:
 452 01da F8BD     		pop	{r3, r4, r5, r6, r7, pc}
 453              	.L31:
 454              		.align	2
 455              	.L30:
 456 01dc 00000000 		.word	.LANCHOR0
 457 01e0 0000F03F 		.word	1072693248
 458 01e4 00002440 		.word	1076101120
 459 01e8 00408F40 		.word	1083129856
 460 01ec D34D6210 		.word	274877907
 461 01f0 67666666 		.word	1717986919
 462 01f4 1F85EB51 		.word	1374389535
 463 01f8 00000000 		.word	.LANCHOR1
 464              		.cfi_endproc
 465              	.LFE66:
 466              		.size	display_num, .-display_num
 467              		.section	.text.main,"ax",%progbits
 468              		.align	2
 469              		.global	main
 470              		.thumb
ARM GAS  C:\Users\ANDREW~1\AppData\Local\Temp\ccpWLb1v.s 			page 13


 471              		.thumb_func
 472              		.type	main, %function
 473              	main:
 474              	.LFB65:
  31:main.c        ****     // Enable interrupts
 475              		.loc 1 31 0
 476              		.cfi_startproc
 477              		@ Volatile: function does not return.
 478              		@ args = 0, pretend = 0, frame = 0
 479              		@ frame_needed = 0, uses_anonymous_args = 0
 480 0000 08B5     		push	{r3, lr}
 481              		.cfi_def_cfa_offset 8
 482              		.cfi_offset 3, -8
 483              		.cfi_offset 14, -4
  33:main.c        ****     isr_7Seg_ClearPending(); 
 484              		.loc 1 33 0
 485              		.syntax unified
 486              	@ 33 "main.c" 1
 487 0002 62B6     		CPSIE   i
 488              	@ 0 "" 2
  34:main.c        ****     isr_2_ClearPending(); 
 489              		.loc 1 34 0
 490              		.thumb
 491              		.syntax unified
 492 0004 FFF7FEFF 		bl	isr_7Seg_ClearPending
 493              	.LVL44:
  35:main.c        **** 
 494              		.loc 1 35 0
 495 0008 FFF7FEFF 		bl	isr_2_ClearPending
 496              	.LVL45:
  37:main.c        ****     isr_2_StartEx(MyCustomISR2); // Enable the interrupt service routine
 497              		.loc 1 37 0
 498 000c 0548     		ldr	r0, .L35
 499 000e FFF7FEFF 		bl	isr_7Seg_StartEx
 500              	.LVL46:
  38:main.c        **** 
 501              		.loc 1 38 0
 502 0012 0548     		ldr	r0, .L35+4
 503 0014 FFF7FEFF 		bl	isr_2_StartEx
 504              	.LVL47:
 505              	.L33:
  44:main.c        ****         
 506              		.loc 1 44 0 discriminator 1
 507 0018 044B     		ldr	r3, .L35+8
 508 001a D3E90201 		ldrd	r0, [r3, #8]
 509 001e FFF7FEFF 		bl	display_num
 510              	.LVL48:
 511 0022 F9E7     		b	.L33
 512              	.L36:
 513              		.align	2
 514              	.L35:
 515 0024 00000000 		.word	ISR
 516 0028 00000000 		.word	MyCustomISR2
 517 002c 00000000 		.word	.LANCHOR0
 518              		.cfi_endproc
 519              	.LFE65:
 520              		.size	main, .-main
ARM GAS  C:\Users\ANDREW~1\AppData\Local\Temp\ccpWLb1v.s 			page 14


 521              		.comm	segmentPattern_array,28,4
 522              		.global	count
 523              		.global	dp
 524              		.global	digits
 525              		.global	D
 526              		.global	old_dis_val
 527              		.global	delayTime
 528              		.global	charLookup
 529              		.global	run_7_Seg
 530              		.global	counter
 531              		.section	.rodata
 532              		.align	2
 533              		.set	.LANCHOR1,. + 0
 534              		.type	charLookup, %object
 535              		.size	charLookup, 88
 536              	charLookup:
 537 0000 31313131 		.ascii	"1111110\000"
 537      31313000 
 538 0008 30313130 		.ascii	"0110000\000"
 538      30303000 
 539 0010 31313031 		.ascii	"1101101\000"
 539      31303100 
 540 0018 31313131 		.ascii	"1111001\000"
 540      30303100 
 541 0020 30313130 		.ascii	"0110011\000"
 541      30313100 
 542 0028 31303131 		.ascii	"1011011\000"
 542      30313100 
 543 0030 31303131 		.ascii	"1011111\000"
 543      31313100 
 544 0038 31313130 		.ascii	"1110000\000"
 544      30303000 
 545 0040 31313131 		.ascii	"1111111\000"
 545      31313100 
 546 0048 31313131 		.ascii	"1111011\000"
 546      30313100 
 547 0050 30303030 		.ascii	"0000000\000"
 547      30303000 
 548              		.data
 549              		.align	2
 550              		.type	delayTime, %object
 551              		.size	delayTime, 4
 552              	delayTime:
 553 0000 05000000 		.word	5
 554              		.bss
 555              		.align	3
 556              		.set	.LANCHOR0,. + 0
 557              		.type	run_7_Seg, %object
 558              		.size	run_7_Seg, 4
 559              	run_7_Seg:
 560 0000 00000000 		.space	4
 561 0004 00000000 		.space	4
 562              		.type	counter, %object
 563              		.size	counter, 8
 564              	counter:
 565 0008 00000000 		.space	8
 565      00000000 
ARM GAS  C:\Users\ANDREW~1\AppData\Local\Temp\ccpWLb1v.s 			page 15


 566              		.type	old_dis_val, %object
 567              		.size	old_dis_val, 8
 568              	old_dis_val:
 569 0010 00000000 		.space	8
 569      00000000 
 570              		.type	digits, %object
 571              		.size	digits, 4
 572              	digits:
 573 0018 00000000 		.space	4
 574              		.type	D, %object
 575              		.size	D, 16
 576              	D:
 577 001c 00000000 		.space	16
 577      00000000 
 577      00000000 
 577      00000000 
 578              		.type	dp, %object
 579              		.size	dp, 16
 580              	dp:
 581 002c 00000000 		.space	16
 581      00000000 
 581      00000000 
 581      00000000 
 582              		.type	count, %object
 583              		.size	count, 4
 584              	count:
 585 003c 00000000 		.space	4
 586              		.text
 587              	.Letext0:
 588              		.file 2 "d:\\monash_apps\\psoc creator\\4.4\\psoc creator\\import\\gnu\\arm\\5.4.1\\arm-none-eabi\
 589              		.file 3 "d:\\monash_apps\\psoc creator\\4.4\\psoc creator\\import\\gnu\\arm\\5.4.1\\arm-none-eabi\
 590              		.file 4 "Generated_Source\\PSoC5/core_cm3.h"
 591              		.file 5 "Generated_Source\\PSoC5/Dis_A.h"
 592              		.file 6 "Generated_Source\\PSoC5/Dis_B.h"
 593              		.file 7 "Generated_Source\\PSoC5/Dis_C.h"
 594              		.file 8 "Generated_Source\\PSoC5/Dis_D.h"
 595              		.file 9 "Generated_Source\\PSoC5/Dis_E.h"
 596              		.file 10 "Generated_Source\\PSoC5/Dis_F.h"
 597              		.file 11 "Generated_Source\\PSoC5/Dis_G.h"
 598              		.file 12 "Generated_Source\\PSoC5/Dis_DP.h"
 599              		.file 13 "Generated_Source\\PSoC5/Dis_D1.h"
 600              		.file 14 "Generated_Source\\PSoC5/Dis_D2.h"
 601              		.file 15 "Generated_Source\\PSoC5/Dis_D3.h"
 602              		.file 16 "Generated_Source\\PSoC5/Dis_D4.h"
 603              		.file 17 "Generated_Source\\PSoC5/isr_7Seg.h"
 604              		.file 18 "Generated_Source\\PSoC5/isr_2.h"