ARM GAS  C:\Users\ANDREW~1\AppData\Local\Temp\ccxC4OPZ.s 			page 1


   1              		.syntax unified
   2              		.cpu cortex-m3
   3              		.fpu softvfp
   4              		.eabi_attribute 20, 1
   5              		.eabi_attribute 21, 1
   6              		.eabi_attribute 23, 3
   7              		.eabi_attribute 24, 1
   8              		.eabi_attribute 25, 1
   9              		.eabi_attribute 26, 1
  10              		.eabi_attribute 30, 1
  11              		.eabi_attribute 34, 1
  12              		.eabi_attribute 18, 4
  13              		.thumb
  14              		.syntax unified
  15              		.file	"main.c"
  16              		.text
  17              	.Ltext0:
  18              		.cfi_sections	.debug_frame
  19              		.section	.text.compare_qsort,"ax",%progbits
  20              		.align	2
  21              		.global	compare_qsort
  22              		.thumb
  23              		.thumb_func
  24              		.type	compare_qsort, %function
  25              	compare_qsort:
  26              	.LFB87:
  27              		.file 1 "main.c"
   1:main.c        **** 
   2:main.c        **** // ================================================================================================
   3:main.c        **** #include "project.h"
   4:main.c        **** #include <stdio.h>
   5:main.c        **** #include <stdlib.h>
   6:main.c        **** 
   7:main.c        **** void display_num(double value);
   8:main.c        **** void draw_7Seg(int number,int dp);
   9:main.c        **** CY_ISR(seg7_ISR);
  10:main.c        **** CY_ISR(Receive_Ultra);
  11:main.c        **** 
  12:main.c        **** void print_uart(int num);
  13:main.c        **** double current_second();
  14:main.c        **** void BuzzerSound(double duration);
  15:main.c        **** void BuzzerRuntime(double duration);
  16:main.c        **** void seg_runtime(double value);
  17:main.c        **** void  clear_7_seg();
  18:main.c        **** 
  19:main.c        **** void EEPROM_writeDouble(uint16 address, double value);
  20:main.c        **** double EEPROM_readDouble(uint16 address);
  21:main.c        **** void writeDoubleArrayToEEPROM(uint16 startAddress, double* array, uint16 arraySize);
  22:main.c        **** void readDoubleArrayFromEEPROM(uint16 startAddress, double* array, uint16 arraySize);
  23:main.c        **** void EEPROM_writeInt(uint16 address, int value);
  24:main.c        **** int EEPROM_readInt(uint16 address) ;
  25:main.c        **** 
  26:main.c        **** void mode_0(void);
  27:main.c        **** void mode_1(void);
  28:main.c        **** void mode_2(void);
  29:main.c        **** void mode_3(void);
  30:main.c        **** 
ARM GAS  C:\Users\ANDREW~1\AppData\Local\Temp\ccxC4OPZ.s 			page 2


  31:main.c        **** void MetricLedOn(void);
  32:main.c        **** void ImperialLedOn(void);
  33:main.c        **** void SingleButtonWait(void);
  34:main.c        **** void DoubleButtonWait(void);
  35:main.c        **** 
  36:main.c        **** float find_median(float arr[], int size);
  37:main.c        **** int compare_qsort(const void *a, const void *b);
  38:main.c        **** 
  39:main.c        **** double ultra_avg();
  40:main.c        **** double ultra_reading();
  41:main.c        **** 
  42:main.c        **** void runtime();
  43:main.c        **** void EEPROM_writeInt(uint16 address, int value);
  44:main.c        **** 
  45:main.c        **** 
  46:main.c        **** 
  47:main.c        **** 
  48:main.c        **** // ================================================================================================
  49:main.c        **** double counter = 0;
  50:main.c        **** 
  51:main.c        **** int time_passed_step=0;
  52:main.c        **** double previous_buzz= 0;
  53:main.c        **** 
  54:main.c        **** double buzz_duration=0;
  55:main.c        **** double seg_num =0;
  56:main.c        **** 
  57:main.c        **** 
  58:main.c        **** 
  59:main.c        **** int mode = 0;
  60:main.c        **** int group_num = 0;
  61:main.c        **** char cm_or_inch;
  62:main.c        **** 
  63:main.c        **** double distance=0;
  64:main.c        **** 
  65:main.c        **** 
  66:main.c        **** 
  67:main.c        **** int main(void)
  68:main.c        **** {
  69:main.c        ****     // Enable interrupts
  70:main.c        ****     CyGlobalIntEnable; 
  71:main.c        ****     
  72:main.c        ****     // 7 Segment display setup
  73:main.c        ****     isr_7Seg_ClearPending(); 
  74:main.c        ****     isr_7Seg_StartEx(seg7_ISR);  
  75:main.c        ****     
  76:main.c        ****     //  Ultrasonic transmitter setup
  77:main.c        ****     isr_6_ClearPending(); 
  78:main.c        ****     Timer_1_SetInterruptMode(3);
  79:main.c        ****     isr_6_StartEx(Receive_Ultra);  
  80:main.c        ****     
  81:main.c        ****     // Ultrasonic receiver setup
  82:main.c        ****     PGA_1_Start();
  83:main.c        ****     Opamp_1_Start();
  84:main.c        ****     Comp_1_Start();
  85:main.c        ****     VDAC8_1_Start();
  86:main.c        ****     Count7_1_Start(); 
  87:main.c        ****     
ARM GAS  C:\Users\ANDREW~1\AppData\Local\Temp\ccxC4OPZ.s 			page 3


  88:main.c        ****     // Global clock timer 
  89:main.c        ****     Timer_2_SetInterruptMode(3);
  90:main.c        ****     Timer_2_Start();
  91:main.c        ****     
  92:main.c        ****     // Setup EEPROM
  93:main.c        ****     EEPROM_Start(); 
  94:main.c        ****     
  95:main.c        ****     // Setup UART
  96:main.c        ****     UART_1_Start();
  97:main.c        ****     UART_1_PutString("Start UART");
  98:main.c        ****     CyDelay(5);
  99:main.c        ****     UART_1_WriteTxData(0x20);   
 100:main.c        ****     CyDelay(5);
 101:main.c        ****     
 102:main.c        ****     
 103:main.c        ****     group_num = EEPROM_ReadByte(0);
 104:main.c        ****     cm_or_inch = EEPROM_ReadByte(sizeof(int));
 105:main.c        ****     
 106:main.c        ****     
 107:main.c        ****     double setup_previous_time =current_second();
 108:main.c        ****     while((current_second()-setup_previous_time)<=6)
 109:main.c        ****     {
 110:main.c        ****         if((int)(current_second()-setup_previous_time) ==0) display_num(-5);
 111:main.c        ****         if((int)(current_second()-setup_previous_time) ==1) display_num(-6);
 112:main.c        ****         if((int)(current_second()-setup_previous_time) ==2) display_num(-7);
 113:main.c        ****         if((int)(current_second()-setup_previous_time) ==3) display_num(-8);
 114:main.c        ****         if((int)(current_second()-setup_previous_time) ==4) display_num(group_num);
 115:main.c        ****         if((int)(current_second()-setup_previous_time) ==5) 
 116:main.c        ****         {
 117:main.c        ****             if (cm_or_inch =='c') display_num(-1);
 118:main.c        ****             if (cm_or_inch =='i') display_num(-2);
 119:main.c        ****         }
 120:main.c        ****         
 121:main.c        ****         runtime();
 122:main.c        ****     }
 123:main.c        ****     
 124:main.c        ****     /*
 125:main.c        ****     double B[55] = 
 126:main.c        ****     {4.86, 5.37,6.21,6.89,7.41,
 127:main.c        ****      7.92,8.44,8.94,9.45,9.96, //7.5
 128:main.c        ****      10.46,11.49,12.00,12.79,13.50,//10
 129:main.c        ****      14.05,15.73,16.27,16.59,16.59, //12.5
 130:main.c        ****      17.43,17.94,18.46,18.97,19.48, //15
 131:main.c        ****      19.87,20.47,21.51,22.02,22.50, //17.5
 132:main.c        ****      23.31,23.77,24.57,25.08, 25.68, //20
 133:main.c        ****         
 134:main.c        ****     26.26, 27.08, 27.58, 28.36, 28.92, //22.5
 135:main.c        ****     29.7, 30.32, 31.19, 31.87, 32.82, //25
 136:main.c        ****     33.54, 34.54, 35.51, 36.14, 36.4, //27.5
 137:main.c        ****     36.93, 37.79, 38, 38.92, 39.68}; //30   
 138:main.c        ****     */
 139:main.c        ****     
 140:main.c        ****     //26.19, 26.83, 27.75, 28.55, //22.5
 141:main.c        ****     //29.56, 30.10, 30.34, 30.92, 31.94, //25
 142:main.c        ****     //32.52, 33.48, 34.12, 34.44,35.22, //27.5
 143:main.c        ****     //35.83, 36.49, 37.42, 38.1, 39.42,40.44}; //30  
 144:main.c        ****     
ARM GAS  C:\Users\ANDREW~1\AppData\Local\Temp\ccxC4OPZ.s 			page 4


 145:main.c        ****     /*double B[55] = 
 146:main.c        ****     {4.86, 5.37,6.21,6.89,7.41,
 147:main.c        ****      7.92,8.44,8.94,9.45,9.96, //7.5
 148:main.c        ****      10.46,11.49,12.00,12.79,13.50,//10
 149:main.c        ****      14.05,15.73,16.27,16.59,16.59, //12.5
 150:main.c        ****      17.43,17.94,18.46,18.97,19.48, //15
 151:main.c        ****      19.87,20.47,21.51,22.02,22.50, //17.5
 152:main.c        ****      23.31,23.77,24.57,25.08,// 25.52, //
 153:main.c        ****         
 154:main.c        ****     25.68, 
 155:main.c        ****         26.19, 26.83, 27.75, 28.55, //22
 156:main.c        ****     29.56, 30.10, 30.34, 30.92, 31.94,
 157:main.c        ****     32.52, 33.48, 34.12, 34.44,35.22,
 158:main.c        ****     35.83, 36.49, 37.42, 38.1, 39.42,40.44};    
 159:main.c        ****         */
 160:main.c        ****         
 161:main.c        ****     //26.09,26.62,27.29,28.20,28.50, //22
 162:main.c        ****     //29.67,30.19,30.93,31.72,32.38, 
 163:main.c        ****     //33.23,33.76,34.26,35.18,35.76,
 164:main.c        ****     //36.30,36.83,37.75,38.64,40.15};
 165:main.c        ****     
 166:main.c        ****     //28.5
 167:main.c        ****     // EEPROM Write startup
 168:main.c        ****     //
 169:main.c        ****     // Place your initialization/startup code here (e.g. MyInst_Start())
 170:main.c        ****     //int teamNumber = 200;
 171:main.c        ****     //EEPROM_writeInt(0, teamNumber);
 172:main.c        ****     //int nextAddress = sizeof(int);
 173:main.c        ****     //char measurementSystem = 'c';
 174:main.c        ****     //EEPROM_WriteByte((uint8)measurementSystem, nextAddress);
 175:main.c        ****     //nextAddress += sizeof(char);
 176:main.c        ****     //double calibration[55] = {0.0};
 177:main.c        ****     
 178:main.c        ****     //int nextAddress = sizeof(int);
 179:main.c        ****     //nextAddress += sizeof(char);
 180:main.c        ****     //writeDoubleArrayToEEPROM(nextAddress, B, 55);
 181:main.c        ****     
 182:main.c        ****     
 183:main.c        ****     //int eprom_read = EEPROM_ReadByte(0x00);
 184:main.c        ****     //int eprom_write =eprom_read+1;
 185:main.c        ****     //EEPROM_WriteByte(eprom_write,0x0000);
 186:main.c        ****     
 187:main.c        ****     
 188:main.c        ****     //int eprom_num = EEPROM_ReadByte(55*sizeof(double)+sizeof(char));
 189:main.c        ****     
 190:main.c        ****     
 191:main.c        ****     
 192:main.c        ****     double previous_second = current_second();
 193:main.c        ****     for(;;)
 194:main.c        ****     {
 195:main.c        ****     
 196:main.c        ****         
 197:main.c        ****         //UART_1_WriteTxData(0x20);    
 198:main.c        ****         //print_uart(mode);
 199:main.c        ****         
 200:main.c        ****         if (mode==0)
 201:main.c        ****         {
ARM GAS  C:\Users\ANDREW~1\AppData\Local\Temp\ccxC4OPZ.s 			page 5


 202:main.c        ****             //UART_1_PutString("Mode 0\n");
 203:main.c        ****             //CyDelay(5);
 204:main.c        ****             
 205:main.c        ****             EEPROM_WriteByte((uint8)cm_or_inch, sizeof(int));
 206:main.c        ****             mode_0();
 207:main.c        ****         
 208:main.c        ****         }
 209:main.c        ****         if (mode==1)
 210:main.c        ****         {
 211:main.c        ****             //UART_1_PutString("Mode 1\n");
 212:main.c        ****             //CyDelay(5);
 213:main.c        ****             
 214:main.c        ****             mode_1();
 215:main.c        ****         }
 216:main.c        ****         if (mode==2)
 217:main.c        ****         {
 218:main.c        ****            //UART_1_PutString("Mode 2\n");
 219:main.c        ****            //CyDelay(5);
 220:main.c        ****         
 221:main.c        ****            // TODO problem with EEPROM write
 222:main.c        ****            EEPROM_writeInt(0, group_num);
 223:main.c        ****            mode_2();
 224:main.c        ****         }
 225:main.c        ****         if (mode==3)
 226:main.c        ****         {
 227:main.c        ****             
 228:main.c        ****             //UART_1_PutString("Mode 3\n");
 229:main.c        ****             //CyDelay(5);
 230:main.c        ****             
 231:main.c        ****             mode_3();
 232:main.c        ****         }
 233:main.c        ****         //CyDelay(5);
 234:main.c        ****         
 235:main.c        ****         runtime();
 236:main.c        ****         
 237:main.c        ****         
 238:main.c        ****     }
 239:main.c        ****     
 240:main.c        **** }
 241:main.c        **** 
 242:main.c        **** // ================================================================================================
 243:main.c        **** //sleep mode
 244:main.c        **** void mode_0(void)
 245:main.c        **** {
 246:main.c        ****     double previous_second_decimal=current_second();
 247:main.c        ****     while (mode == 0) {
 248:main.c        ****         
 249:main.c        ****         //UART_1_PutString("1");
 250:main.c        ****         //CyDelay(5);
 251:main.c        ****         
 252:main.c        ****         //flash decimal point 1 second on, off
 253:main.c        ****         double time_diff = current_second()-previous_second_decimal;
 254:main.c        ****             
 255:main.c        ****         if (time_diff<=1)                               display_num(-3); //display decimal
 256:main.c        ****         else if ((time_diff > 1)  && (time_diff <= 2))  display_num(-4); //display blank
 257:main.c        ****         else previous_second_decimal = current_second();
 258:main.c        ****         
ARM GAS  C:\Users\ANDREW~1\AppData\Local\Temp\ccxC4OPZ.s 			page 6


 259:main.c        ****         
 260:main.c        ****         //check if either button is pressed
 261:main.c        ****         if ((Button_S2_Left_State_Read() == 0) || (Button_S4_Right_State_Read() == 0))
 262:main.c        ****         {
 263:main.c        ****             
 264:main.c        ****             //wait 0.2 seconds to delay check
 265:main.c        ****             double check_second = current_second();
 266:main.c        ****             while ((current_second() - check_second )<0.2)  runtime();
 267:main.c        ****             
 268:main.c        ****             
 269:main.c        ****             
 270:main.c        ****             //if both buttons pressed, wait 1 seconds to go to mode 1
 271:main.c        ****             if ((Button_S2_Left_State_Read() == 0) && (Button_S4_Right_State_Read() == 0))
 272:main.c        ****             {
 273:main.c        ****                 BuzzerSound(0.2);
 274:main.c        ****                 check_second = current_second();        
 275:main.c        ****                 while ((Button_S2_Left_State_Read() == 0) && (Button_S4_Right_State_Read() == 0))
 276:main.c        ****                 {
 277:main.c        ****                     runtime();
 278:main.c        ****                     if ((current_second()-check_second)>=1)
 279:main.c        ****                     {
 280:main.c        ****                         
 281:main.c        ****                         UART_1_PutString("Enter Mode 1\n");
 282:main.c        ****                         CyDelay(5);
 283:main.c        ****                         mode = 1;
 284:main.c        ****                         break;
 285:main.c        ****                     }
 286:main.c        ****                 }  
 287:main.c        ****             }
 288:main.c        ****             
 289:main.c        ****             //if instead just button 1 is pressed, go to mode 3
 290:main.c        ****             else if ((Button_S2_Left_State_Read() == 1) && (Button_S4_Right_State_Read() == 0))
 291:main.c        ****             {
 292:main.c        ****                 mode =3;
 293:main.c        ****             }
 294:main.c        ****         }
 295:main.c        ****         runtime();
 296:main.c        ****         
 297:main.c        ****         
 298:main.c        ****         
 299:main.c        ****     }
 300:main.c        **** }
 301:main.c        **** 
 302:main.c        **** //program mode
 303:main.c        **** void mode_1(void)
 304:main.c        **** {
 305:main.c        ****     double previous_second=0;
 306:main.c        ****     while (mode == 1) {
 307:main.c        ****        
 308:main.c        ****         runtime();
 309:main.c        ****         //flash group number
 310:main.c        ****         double time_diff = current_second()-previous_second;
 311:main.c        ****         if (time_diff<=1)
 312:main.c        ****         {
 313:main.c        ****            display_num(group_num); // group_num
 314:main.c        ****             //display_num(200); // group_num
 315:main.c        ****         }
ARM GAS  C:\Users\ANDREW~1\AppData\Local\Temp\ccxC4OPZ.s 			page 7


 316:main.c        ****         else if ((time_diff>1) && (time_diff<=1.5))
 317:main.c        ****         {
 318:main.c        ****             display_num(-4); // Blank
 319:main.c        ****         }
 320:main.c        ****         else
 321:main.c        ****         {
 322:main.c        ****             previous_second = current_second();
 323:main.c        ****         }
 324:main.c        ****        
 325:main.c        ****         
 326:main.c        ****         // Check to go to mode 2
 327:main.c        ****         if (Button_S5_Select_State_Read() == 0) // Assuming active low buttons
 328:main.c        ****         {
 329:main.c        ****             SingleButtonWait();
 330:main.c        ****             BuzzerSound(0.2);
 331:main.c        ****             mode = 2;
 332:main.c        ****         }
 333:main.c        ****         //check to increment number
 334:main.c        ****         if (Button_S3_Top_State_Read() == 0)
 335:main.c        ****         {
 336:main.c        ****             SingleButtonWait();
 337:main.c        ****             BuzzerSound(0.2);
 338:main.c        ****             group_num ++;
 339:main.c        ****         }
 340:main.c        ****         //check to decrement number
 341:main.c        ****         if (Button_S1_Bottom_State_Read() == 0)
 342:main.c        ****         {
 343:main.c        ****             SingleButtonWait();
 344:main.c        ****             BuzzerSound(0.2);
 345:main.c        ****             group_num --;
 346:main.c        ****         }
 347:main.c        ****     }
 348:main.c        **** }
 349:main.c        **** 
 350:main.c        **** //system change mode
 351:main.c        **** void mode_2(void)
 352:main.c        **** {
 353:main.c        ****     while (mode == 2)
 354:main.c        ****     {
 355:main.c        ****         runtime();
 356:main.c        ****         
 357:main.c        ****         // Display cm or inch
 358:main.c        ****         if (cm_or_inch =='c') display_num(-1);
 359:main.c        ****         if (cm_or_inch =='i') display_num(-2);
 360:main.c        ****         
 361:main.c        ****         
 362:main.c        ****         //check to go to mode 0
 363:main.c        ****         if (Button_S5_Select_State_Read() == 0)
 364:main.c        ****         {
 365:main.c        ****             SingleButtonWait();
 366:main.c        ****             BuzzerSound(0.2);
 367:main.c        ****             mode = 0;
 368:main.c        ****         }
 369:main.c        ****         //Set system to metric (centimeters)
 370:main.c        ****         if (Button_S3_Top_State_Read() == 0)
 371:main.c        ****         {
 372:main.c        ****             SingleButtonWait();
ARM GAS  C:\Users\ANDREW~1\AppData\Local\Temp\ccxC4OPZ.s 			page 8


 373:main.c        ****             BuzzerSound(0.2);
 374:main.c        ****             MetricLedOn();
 375:main.c        ****             
 376:main.c        ****             cm_or_inch = 'c'; // set system to use cm
 377:main.c        ****         }
 378:main.c        ****         //Set system to imperial (inches)
 379:main.c        ****         if (Button_S1_Bottom_State_Read() == 0)
 380:main.c        ****         {
 381:main.c        ****             SingleButtonWait();
 382:main.c        ****             BuzzerSound(0.2);
 383:main.c        ****             ImperialLedOn();
 384:main.c        ****             
 385:main.c        ****             cm_or_inch = 'i'; // set system to use inch
 386:main.c        ****             
 387:main.c        ****            
 388:main.c        ****         }
 389:main.c        ****     }
 390:main.c        ****     
 391:main.c        ****     EEPROM_WriteByte(cm_or_inch,sizeof(int));
 392:main.c        **** 
 393:main.c        **** }
 394:main.c        **** 
 395:main.c        ****  //ultrasonic reading and display mode
 396:main.c        **** void mode_3(void)
 397:main.c        **** {
 398:main.c        ****    
 399:main.c        ****     int flag_read = 1;
 400:main.c        ****     double previous_second;
 401:main.c        ****     while (mode == 3)
 402:main.c        ****     {
 403:main.c        ****         //check if first time entering loop
 404:main.c        ****         if (flag_read == 1)
 405:main.c        ****         {
 406:main.c        ****             //display_num(-4);
 407:main.c        ****             BuzzerSound(0.2);
 408:main.c        ****             distance = ultra_avg();
 409:main.c        ****             
 410:main.c        ****             previous_second= current_second();
 411:main.c        ****             
 412:main.c        ****             //clear_7_seg();
 413:main.c        ****             flag_read = 0;
 414:main.c        ****             
 415:main.c        ****             // output distance in cm currently
 416:main.c        ****             
 417:main.c        ****             // convert to inch if needed
 418:main.c        ****             
 419:main.c        ****             if (cm_or_inch =='i') distance = distance/2.54;
 420:main.c        ****             display_num(distance);
 421:main.c        ****         }
 422:main.c        ****        
 423:main.c        ****         runtime();
 424:main.c        ****        
 425:main.c        ****         //check if loop has gone for over 2 seconds
 426:main.c        ****         if (current_second()-previous_second >=2)
 427:main.c        ****         {
 428:main.c        ****             
 429:main.c        ****             //if button pressed, reset whole loop from start. else go to mode 0
ARM GAS  C:\Users\ANDREW~1\AppData\Local\Temp\ccxC4OPZ.s 			page 9


 430:main.c        ****             if (Button_S4_Right_State_Read() == 0)
 431:main.c        ****             {
 432:main.c        ****                 //clear_7_seg();
 433:main.c        ****                 BuzzerSound(0.2);
 434:main.c        ****                 flag_read=1;
 435:main.c        ****             }
 436:main.c        ****             else
 437:main.c        ****             {
 438:main.c        ****                 mode = 0;
 439:main.c        ****             }
 440:main.c        ****         }
 441:main.c        ****        
 442:main.c        ****     }
 443:main.c        ****    
 444:main.c        **** }
 445:main.c        **** 
 446:main.c        **** 
 447:main.c        **** 
 448:main.c        **** 
 449:main.c        **** void MetricLedOn(void)
 450:main.c        **** {
 451:main.c        ****     // TODO enable metric LED back again
 452:main.c        ****     LED2_Yellow_Write(0);
 453:main.c        ****     LED3_Green_Write(1);
 454:main.c        **** }
 455:main.c        **** 
 456:main.c        **** void ImperialLedOn(void)
 457:main.c        **** {
 458:main.c        ****     LED3_Green_Write(0);
 459:main.c        ****     LED2_Yellow_Write(1);
 460:main.c        **** 
 461:main.c        **** }
 462:main.c        **** 
 463:main.c        ****         
 464:main.c        **** void SingleButtonWait(void)
 465:main.c        **** {
 466:main.c        ****     while (Button_S3_Top_State_Read()==0 || Button_S5_Select_State_Read()==0 || Button_S1_Bottom_St
 467:main.c        ****     {
 468:main.c        ****         runtime();
 469:main.c        ****     }
 470:main.c        **** }
 471:main.c        **** 
 472:main.c        **** void DoubleButtonWait(void)
 473:main.c        **** {
 474:main.c        ****     while (Button_S5_Select_State_Read() == 0 && Button_S2_Left_State_Read() == 0)
 475:main.c        ****     {
 476:main.c        ****         runtime();
 477:main.c        ****     }
 478:main.c        **** }
 479:main.c        **** 
 480:main.c        **** // ================================================================================================
 481:main.c        **** /* System timer*/
 482:main.c        **** void runtime()
 483:main.c        **** {
 484:main.c        ****     BuzzerRuntime(buzz_duration);
 485:main.c        ****     seg_runtime(seg_num);
 486:main.c        ****     
ARM GAS  C:\Users\ANDREW~1\AppData\Local\Temp\ccxC4OPZ.s 			page 10


 487:main.c        ****     if (cm_or_inch =='i')ImperialLedOn();
 488:main.c        ****     else  MetricLedOn();
 489:main.c        ****     
 490:main.c        ****     /*if(mode==0) LED1_Red_Write(1);
 491:main.c        ****     if(mode==1) LED2_Yellow_Write(1);
 492:main.c        ****     if(mode==2) LED3_Green_Write(1);
 493:main.c        ****     if(mode==3) 
 494:main.c        ****     {
 495:main.c        ****         LED2_Yellow_Write(1);
 496:main.c        ****         LED3_Green_Write(1);
 497:main.c        ****     }*/
 498:main.c        ****     
 499:main.c        **** }
 500:main.c        **** 
 501:main.c        **** double current_second()
 502:main.c        **** {
 503:main.c        ****     double time = (double)(Timer_2_ReadPeriod()-Timer_2_ReadCounter());
 504:main.c        ****     time = time/100000;
 505:main.c        ****     
 506:main.c        ****     return time;
 507:main.c        **** }
 508:main.c        **** // ================================================================================================
 509:main.c        **** /* EEPROM */
 510:main.c        **** 
 511:main.c        **** void EEPROM_writeInt(uint16 address, int value) {
 512:main.c        ****     uint8* ptr = (uint8*) &value;  // Convert int to byte array
 513:main.c        ****     for (uint8 i = 0; i < sizeof(int); i++) {
 514:main.c        ****         EEPROM_WriteByte(ptr[i], address + i);
 515:main.c        ****     }
 516:main.c        **** }
 517:main.c        **** 
 518:main.c        **** 
 519:main.c        **** void EEPROM_writeDouble(uint16 address, double value) {
 520:main.c        ****     uint8* ptr = (uint8*)&value;  // Convert double to byte array
 521:main.c        ****     for (uint8 i = 0; i < sizeof(double); i++) {
 522:main.c        ****         EEPROM_WriteByte(ptr[i], address + i);
 523:main.c        ****     }
 524:main.c        **** }
 525:main.c        **** 
 526:main.c        **** double EEPROM_readDouble(uint16 address) {
 527:main.c        ****     double value = 0.0;
 528:main.c        ****     uint8* ptr = (uint8*)&value;
 529:main.c        ****     for (uint8 i = 0; i < sizeof(double); i++) {
 530:main.c        ****         ptr[i] = EEPROM_ReadByte(address + i);
 531:main.c        ****     }
 532:main.c        ****     return value;
 533:main.c        **** }
 534:main.c        **** 
 535:main.c        **** void writeDoubleArrayToEEPROM(uint16 startAddress, double* array, uint16 arraySize) {
 536:main.c        ****     for (uint16 i = 0; i < arraySize; i++) {
 537:main.c        ****         EEPROM_writeDouble(startAddress + i * sizeof(double), array[i]);
 538:main.c        ****     }
 539:main.c        **** }
 540:main.c        **** 
 541:main.c        **** void readDoubleArrayFromEEPROM(uint16 startAddress, double* array, uint16 arraySize) {
 542:main.c        ****     for (uint16 i = 0; i < arraySize; i++) {
 543:main.c        ****         array[i] = EEPROM_readDouble(startAddress + i * sizeof(double));
ARM GAS  C:\Users\ANDREW~1\AppData\Local\Temp\ccxC4OPZ.s 			page 11


 544:main.c        ****     }
 545:main.c        **** }
 546:main.c        **** /*
 547:main.c        **** void EEPROM_writeInt(uint16 address, int value) {
 548:main.c        ****     uint8 ptr = (uint8)(void*)&value;  // Convert int to byte array
 549:main.c        ****     for (uint8 i = 0; i < sizeof(int); i++) {
 550:main.c        ****         EEPROM_WriteByte(ptr[i], address + i);
 551:main.c        ****     }
 552:main.c        **** }
 553:main.c        **** 
 554:main.c        **** int EEPROM_readInt(uint16 address) {
 555:main.c        ****     int value = 0;
 556:main.c        ****     uint8 ptr = (uint8)(void*)&value;
 557:main.c        ****     for (uint8 i = 0; i < sizeof(int); i++) {
 558:main.c        ****         ptr[i] = EEPROM_ReadByte(address + i);
 559:main.c        ****     }
 560:main.c        ****     return value;
 561:main.c        **** }*/
 562:main.c        **** 
 563:main.c        **** // ================================================================================================
 564:main.c        **** /* UART communications */
 565:main.c        **** 
 566:main.c        **** uint8 value_text[16];
 567:main.c        **** void print_uart(int num)
 568:main.c        **** { 
 569:main.c        ****     int num_digits = 0;
 570:main.c        ****     int temp = num;
 571:main.c        ****     
 572:main.c        ****     // Count the number of digits (optional for pre-allocation)
 573:main.c        ****     while (temp != 0) {
 574:main.c        ****         temp /= 10;
 575:main.c        ****         num_digits++;
 576:main.c        ****     }
 577:main.c        **** 
 578:main.c        ****     for (int i = num_digits-1; i >= 0; --i) {
 579:main.c        ****         value_text[i] = num % 10;
 580:main.c        ****         num /= 10;
 581:main.c        ****     }
 582:main.c        ****     
 583:main.c        ****     for (int i = 0; i < num_digits; ++i) {
 584:main.c        ****         UART_1_WriteTxData(value_text[i]+0x30); //display number
 585:main.c        ****         CyDelay(5);
 586:main.c        ****     }
 587:main.c        ****     
 588:main.c        **** }
 589:main.c        **** 
 590:main.c        **** // ================================================================================================
 591:main.c        **** /* Buzzer */
 592:main.c        **** void BuzzerSound(double duration)
 593:main.c        **** {
 594:main.c        ****     previous_buzz = current_second();
 595:main.c        ****     buzz_duration= duration;
 596:main.c        **** }
 597:main.c        **** void BuzzerRuntime(double duration)
 598:main.c        **** {
 599:main.c        ****     double buzz_time_diff = current_second()-previous_buzz;
 600:main.c        ****     
ARM GAS  C:\Users\ANDREW~1\AppData\Local\Temp\ccxC4OPZ.s 			page 12


 601:main.c        ****     if(buzz_time_diff<duration) Buzzer_Write(0);  // Turn on buzzer
 602:main.c        ****     else Buzzer_Write(1); // Turn off buzzer
 603:main.c        **** }
 604:main.c        **** 
 605:main.c        **** 
 606:main.c        **** 
 607:main.c        **** // ================================================================================================
 608:main.c        **** /* Ultrasinic launch function*/
 609:main.c        **** 
 610:main.c        **** int waiting_ultra = 0;
 611:main.c        **** 
 612:main.c        **** double ultra_avg(){
 613:main.c        ****  
 614:main.c        ****     //UART_1_PutString("1");
 615:main.c        ****     //CyDelay(5);
 616:main.c        ****     float vals[10] = {0,0,0,0,0,0,0,0,0,0};
 617:main.c        ****     float count_median[20] = {0,0,0,0,0,0,0,0,0,0,0,0,0,0,0,0,0,0,0,0};
 618:main.c        ****     double predicted_dist;
 619:main.c        ****     double actual_dist;
 620:main.c        ****     
 621:main.c        ****     //UART_1_PutString("2");
 622:main.c        ****     //CyDelay(5);
 623:main.c        ****     for(int x = 0; x< 20 ; x++)
 624:main.c        ****     {
 625:main.c        ****         
 626:main.c        ****         //runtime();
 627:main.c        ****         //UART_1_PutString("3");
 628:main.c        ****         //CyDelay(5);
 629:main.c        ****          BuzzerRuntime(buzz_duration);
 630:main.c        ****         for (int i = 0; i < 10; i++) 
 631:main.c        ****         {    
 632:main.c        ****         //BuzzerRuntime(buzz_duration);
 633:main.c        ****             //runtime();
 634:main.c        ****         //UART_1_PutString("4");
 635:main.c        ****         //CyDelay(5);
 636:main.c        ****         vals[i] = ultra_reading();
 637:main.c        ****         }
 638:main.c        ****         
 639:main.c        ****         //UART_1_PutString("5");
 640:main.c        ****         //CyDelay(5);
 641:main.c        ****         count_median[x] = find_median(vals, 10);
 642:main.c        ****     }
 643:main.c        ****             
 644:main.c        ****     predicted_dist = find_median(count_median, 20);
 645:main.c        ****     
 646:main.c        ****     /*
 647:main.c        ****     // Linear fitting using eeprom values
 648:main.c        ****     float a1 = 0.798;
 649:main.c        ****     float a0 = -0.789;
 650:main.c        ****     actual_dist = a1* predicted_dist + a0;
 651:main.c        ****     */
 652:main.c        ****     //double A[55] = [0.5,1,1.5,2,2.5,3,3.5,4,4.5,5,5.5,6,6.5,7,8.5,9,9.5,10,
 653:main.c        ****     //                0.5,1,1.5,2,2.5,3,3.5,4,4.5,5,5.5,6,6.5,7,8.5,9,9.5,10
 654:main.c        ****     //]
 655:main.c        ****     
 656:main.c        ****     
 657:main.c        ****     
ARM GAS  C:\Users\ANDREW~1\AppData\Local\Temp\ccxC4OPZ.s 			page 13


 658:main.c        ****     /*double B[55] = 
 659:main.c        ****     {4.86, 5.37,6.21,6.89,7.41,
 660:main.c        ****      7.92,8.44,8.94,9.45,9.96,
 661:main.c        ****      10.46,11.49,12.00,12.79,13.50,
 662:main.c        ****      14.05,15.73,16.27,16.59,16.59,
 663:main.c        ****      17.43,17.94,18.46,18.97,19.48,
 664:main.c        ****      19.87,20.47,21.51,22.02,22.50,
 665:main.c        ****      23.31,23.77,24.57,25.08,25.52,
 666:main.c        ****      26.09,26.62,27.29,28.20,28.90,
 667:main.c        ****      29.67,30.19,30.93,31.72,32.38, 
 668:main.c        ****      33.23,33.76,34.26,35.18,35.76,
 669:main.c        ****      36.30,36.83,37.75,38.64,40.15};*/
 670:main.c        ****     double B[55];
 671:main.c        ****     
 672:main.c        ****     int nextAddress = sizeof(int);
 673:main.c        ****     nextAddress += sizeof(char);
 674:main.c        ****     
 675:main.c        ****     readDoubleArrayFromEEPROM(nextAddress , B, 55);
 676:main.c        ****     
 677:main.c        ****     double value = predicted_dist;
 678:main.c        ****     int index = 0;
 679:main.c        ****     while(value > B[index])
 680:main.c        ****     {
 681:main.c        ****         index++;
 682:main.c        ****     }
 683:main.c        ****     
 684:main.c        ****     double actual = 3+ 0.5*(index-1); 
 685:main.c        ****     double precentage = (value -  B[index-1]) / (B[index]-B[index-1]);
 686:main.c        ****     actual_dist = precentage*0.5 + actual;
 687:main.c        ****     
 688:main.c        ****     
 689:main.c        ****     return actual_dist;
 690:main.c        ****     //return predicted_dist;
 691:main.c        **** }
 692:main.c        **** 
 693:main.c        **** double ultra_reading()
 694:main.c        **** {
 695:main.c        ****     isr_6_ClearPending();
 696:main.c        ****     isr_6_StartEx(Receive_Ultra);  
 697:main.c        ****     
 698:main.c        ****     // Send pulse
 699:main.c        ****     Control_Reg_1_Write(1); // Reset counter to do more pulses
 700:main.c        ****     CyDelayUs(150);
 701:main.c        ****     Control_Reg_1_Write(0);
 702:main.c        ****     
 703:main.c        ****     Timer_1_Start();        // Start receiver timer
 704:main.c        ****     waiting_ultra =1;
 705:main.c        ****     
 706:main.c        ****     ////////////////////////////////////////////////////////////////////////////
 707:main.c        ****     // Wait for response
 708:main.c        ****     // TODO: may need to write blocking code to obtain ultrasonic values
 709:main.c        ****     double previous_ultra_second = current_second();
 710:main.c        ****     double time_diff = current_second()-previous_ultra_second;
 711:main.c        ****     
 712:main.c        ****     while((current_second()-previous_ultra_second)*1000 <=10)
 713:main.c        ****     {
 714:main.c        ****         //seg_runtime(seg_num);
ARM GAS  C:\Users\ANDREW~1\AppData\Local\Temp\ccxC4OPZ.s 			page 14


 715:main.c        ****         runtime();
 716:main.c        ****     }
 717:main.c        ****     //while(waiting_ultra==1 && (current_second()-previous_ultra_second)<0.01)
 718:main.c        ****    // {
 719:main.c        ****     //    runtime();
 720:main.c        ****     //}
 721:main.c        ****     
 722:main.c        ****     //runtime();
 723:main.c        ****     //seg_runtime(seg_num);
 724:main.c        ****     //CyDelay(10);
 725:main.c        ****     //seg_runtime(seg_num);
 726:main.c        ****     //runtime();
 727:main.c        **** 
 728:main.c        ****     double value =  (double)time_passed_step/10000; //in ms
 729:main.c        ****     distance = (34*value)/2;
 730:main.c        ****     
 731:main.c        ****     return distance;
 732:main.c        **** }
 733:main.c        **** void send_ultra_pulse()
 734:main.c        **** {
 735:main.c        ****     Control_Reg_1_Write(1); // Reset counter to do more pulses
 736:main.c        ****     CyDelayUs(150);
 737:main.c        ****     Control_Reg_1_Write(0);
 738:main.c        ****     
 739:main.c        ****     Timer_1_Start();        // Start receiver timer
 740:main.c        ****     
 741:main.c        ****     waiting_ultra =1;
 742:main.c        **** }
 743:main.c        **** 
 744:main.c        **** uint8 InterruptCnt;
 745:main.c        **** CY_ISR(Receive_Ultra)  // Ultrasonic Receiver
 746:main.c        **** {
 747:main.c        ****     Timer_1_Stop();
 748:main.c        ****     time_passed_step = Timer_1_ReadPeriod()-Timer_1_ReadCounter() ;
 749:main.c        ****     waiting_ultra =0;
 750:main.c        ****     
 751:main.c        ****     //print_uart(time_passed_step);
 752:main.c        **** }
 753:main.c        **** 
 754:main.c        **** // Compare two values for quick sort
 755:main.c        **** int compare_qsort(const void *a, const void *b)
 756:main.c        **** {
  28              		.loc 1 756 0
  29              		.cfi_startproc
  30              		@ args = 0, pretend = 0, frame = 0
  31              		@ frame_needed = 0, uses_anonymous_args = 0
  32              		@ link register save eliminated.
  33              	.LVL0:
 757:main.c        ****     return (*(int*)a - *(int*)b);
  34              		.loc 1 757 0
  35 0000 0068     		ldr	r0, [r0]
  36              	.LVL1:
  37 0002 0B68     		ldr	r3, [r1]
 758:main.c        **** }
  38              		.loc 1 758 0
  39 0004 C01A     		subs	r0, r0, r3
  40 0006 7047     		bx	lr
ARM GAS  C:\Users\ANDREW~1\AppData\Local\Temp\ccxC4OPZ.s 			page 15


  41              		.cfi_endproc
  42              	.LFE87:
  43              		.size	compare_qsort, .-compare_qsort
  44              		.section	.text.seg7_ISR,"ax",%progbits
  45              		.align	2
  46              		.global	seg7_ISR
  47              		.thumb
  48              		.thumb_func
  49              		.type	seg7_ISR, %function
  50              	seg7_ISR:
  51              	.LFB89:
 759:main.c        **** 
 760:main.c        **** // Find the median of a given array
 761:main.c        **** float find_median(float arr[], int size) 
 762:main.c        **** {
 763:main.c        ****     double median;
 764:main.c        ****     qsort(arr, size, sizeof(int), compare_qsort); // Sort the array
 765:main.c        **** 
 766:main.c        ****     // Check if the size of the array is odd or even
 767:main.c        ****     if (size % 2 == 0) 
 768:main.c        ****     {
 769:main.c        ****         median = (arr[(size/2)-2] + arr[(size/2)-1] + arr[size/2] + arr[(size/2)+1] + arr[(size/2)+
 770:main.c        ****     }
 771:main.c        ****     else
 772:main.c        ****     {
 773:main.c        **** //        median = (arr[(size - 1) / 2] + arr[size / 2]) / 2.0;
 774:main.c        ****         median = (arr[((size-1)/2)-2] + arr[((size-1)/2)-1] + arr[(size-1)/2] + arr[(size+1)/2]+ ar
 775:main.c        ****     }
 776:main.c        ****     return median;
 777:main.c        **** }
 778:main.c        **** // ================================================================================================
 779:main.c        **** /* Mid Level 7 Segment display code*/
 780:main.c        **** 
 781:main.c        **** //Global variable
 782:main.c        **** int run_7_Seg = 0;
 783:main.c        **** 
 784:main.c        **** // Interrupt routine for displaying each sections
 785:main.c        **** CY_ISR(seg7_ISR) 
 786:main.c        **** {
  52              		.loc 1 786 0
  53              		.cfi_startproc
  54              		@ args = 0, pretend = 0, frame = 0
  55              		@ frame_needed = 0, uses_anonymous_args = 0
  56              		@ link register save eliminated.
 787:main.c        ****     run_7_Seg = 1;
  57              		.loc 1 787 0
  58 0000 0122     		movs	r2, #1
  59 0002 014B     		ldr	r3, .L3
  60 0004 1A60     		str	r2, [r3]
  61 0006 7047     		bx	lr
  62              	.L4:
  63              		.align	2
  64              	.L3:
  65 0008 00000000 		.word	.LANCHOR0
  66              		.cfi_endproc
  67              	.LFE89:
  68              		.size	seg7_ISR, .-seg7_ISR
ARM GAS  C:\Users\ANDREW~1\AppData\Local\Temp\ccxC4OPZ.s 			page 16


  69              		.section	.text.Receive_Ultra,"ax",%progbits
  70              		.align	2
  71              		.global	Receive_Ultra
  72              		.thumb
  73              		.thumb_func
  74              		.type	Receive_Ultra, %function
  75              	Receive_Ultra:
  76              	.LFB86:
 746:main.c        ****     Timer_1_Stop();
  77              		.loc 1 746 0
  78              		.cfi_startproc
  79              		@ args = 0, pretend = 0, frame = 0
  80              		@ frame_needed = 0, uses_anonymous_args = 0
  81 0000 10B5     		push	{r4, lr}
  82              		.cfi_def_cfa_offset 8
  83              		.cfi_offset 4, -8
  84              		.cfi_offset 14, -4
 747:main.c        ****     time_passed_step = Timer_1_ReadPeriod()-Timer_1_ReadCounter() ;
  85              		.loc 1 747 0
  86 0002 FFF7FEFF 		bl	Timer_1_Stop
  87              	.LVL2:
 748:main.c        ****     waiting_ultra =0;
  88              		.loc 1 748 0
  89 0006 FFF7FEFF 		bl	Timer_1_ReadPeriod
  90              	.LVL3:
  91 000a 0446     		mov	r4, r0
  92 000c FFF7FEFF 		bl	Timer_1_ReadCounter
  93              	.LVL4:
  94 0010 201A     		subs	r0, r4, r0
  95 0012 024B     		ldr	r3, .L7
  96 0014 5860     		str	r0, [r3, #4]
 749:main.c        ****     
  97              		.loc 1 749 0
  98 0016 0022     		movs	r2, #0
  99 0018 9A60     		str	r2, [r3, #8]
 100 001a 10BD     		pop	{r4, pc}
 101              	.L8:
 102              		.align	2
 103              	.L7:
 104 001c 00000000 		.word	.LANCHOR0
 105              		.cfi_endproc
 106              	.LFE86:
 107              		.size	Receive_Ultra, .-Receive_Ultra
 108              		.section	.text.MetricLedOn,"ax",%progbits
 109              		.align	2
 110              		.global	MetricLedOn
 111              		.thumb
 112              		.thumb_func
 113              		.type	MetricLedOn, %function
 114              	MetricLedOn:
 115              	.LFB69:
 450:main.c        ****     // TODO enable metric LED back again
 116              		.loc 1 450 0
 117              		.cfi_startproc
 118              		@ args = 0, pretend = 0, frame = 0
 119              		@ frame_needed = 0, uses_anonymous_args = 0
 120 0000 08B5     		push	{r3, lr}
ARM GAS  C:\Users\ANDREW~1\AppData\Local\Temp\ccxC4OPZ.s 			page 17


 121              		.cfi_def_cfa_offset 8
 122              		.cfi_offset 3, -8
 123              		.cfi_offset 14, -4
 452:main.c        ****     LED3_Green_Write(1);
 124              		.loc 1 452 0
 125 0002 0020     		movs	r0, #0
 126 0004 FFF7FEFF 		bl	LED2_Yellow_Write
 127              	.LVL5:
 453:main.c        **** }
 128              		.loc 1 453 0
 129 0008 0120     		movs	r0, #1
 130 000a FFF7FEFF 		bl	LED3_Green_Write
 131              	.LVL6:
 132 000e 08BD     		pop	{r3, pc}
 133              		.cfi_endproc
 134              	.LFE69:
 135              		.size	MetricLedOn, .-MetricLedOn
 136              		.section	.text.ImperialLedOn,"ax",%progbits
 137              		.align	2
 138              		.global	ImperialLedOn
 139              		.thumb
 140              		.thumb_func
 141              		.type	ImperialLedOn, %function
 142              	ImperialLedOn:
 143              	.LFB70:
 457:main.c        ****     LED3_Green_Write(0);
 144              		.loc 1 457 0
 145              		.cfi_startproc
 146              		@ args = 0, pretend = 0, frame = 0
 147              		@ frame_needed = 0, uses_anonymous_args = 0
 148 0000 08B5     		push	{r3, lr}
 149              		.cfi_def_cfa_offset 8
 150              		.cfi_offset 3, -8
 151              		.cfi_offset 14, -4
 458:main.c        ****     LED2_Yellow_Write(1);
 152              		.loc 1 458 0
 153 0002 0020     		movs	r0, #0
 154 0004 FFF7FEFF 		bl	LED3_Green_Write
 155              	.LVL7:
 459:main.c        **** 
 156              		.loc 1 459 0
 157 0008 0120     		movs	r0, #1
 158 000a FFF7FEFF 		bl	LED2_Yellow_Write
 159              	.LVL8:
 160 000e 08BD     		pop	{r3, pc}
 161              		.cfi_endproc
 162              	.LFE70:
 163              		.size	ImperialLedOn, .-ImperialLedOn
 164              		.global	__aeabi_ui2d
 165              		.global	__aeabi_ddiv
 166              		.section	.text.current_second,"ax",%progbits
 167              		.align	2
 168              		.global	current_second
 169              		.thumb
 170              		.thumb_func
 171              		.type	current_second, %function
 172              	current_second:
ARM GAS  C:\Users\ANDREW~1\AppData\Local\Temp\ccxC4OPZ.s 			page 18


 173              	.LFB74:
 502:main.c        ****     double time = (double)(Timer_2_ReadPeriod()-Timer_2_ReadCounter());
 174              		.loc 1 502 0
 175              		.cfi_startproc
 176              		@ args = 0, pretend = 0, frame = 0
 177              		@ frame_needed = 0, uses_anonymous_args = 0
 178 0000 10B5     		push	{r4, lr}
 179              		.cfi_def_cfa_offset 8
 180              		.cfi_offset 4, -8
 181              		.cfi_offset 14, -4
 503:main.c        ****     time = time/100000;
 182              		.loc 1 503 0
 183 0002 FFF7FEFF 		bl	Timer_2_ReadPeriod
 184              	.LVL9:
 185 0006 0446     		mov	r4, r0
 186 0008 FFF7FEFF 		bl	Timer_2_ReadCounter
 187              	.LVL10:
 188 000c 201A     		subs	r0, r4, r0
 189 000e FFF7FEFF 		bl	__aeabi_ui2d
 190              	.LVL11:
 504:main.c        ****     
 191              		.loc 1 504 0
 192 0012 03A3     		adr	r3, .L15
 193 0014 D3E90023 		ldrd	r2, [r3]
 194 0018 FFF7FEFF 		bl	__aeabi_ddiv
 195              	.LVL12:
 507:main.c        **** // ================================================================================================
 196              		.loc 1 507 0
 197 001c 10BD     		pop	{r4, pc}
 198              	.L16:
 199 001e 00BF     		.align	3
 200              	.L15:
 201 0020 00000000 		.word	0
 202 0024 006AF840 		.word	1090021888
 203              		.cfi_endproc
 204              	.LFE74:
 205              		.size	current_second, .-current_second
 206              		.section	.text.EEPROM_writeInt,"ax",%progbits
 207              		.align	2
 208              		.global	EEPROM_writeInt
 209              		.thumb
 210              		.thumb_func
 211              		.type	EEPROM_writeInt, %function
 212              	EEPROM_writeInt:
 213              	.LFB75:
 511:main.c        ****     uint8* ptr = (uint8*) &value;  // Convert int to byte array
 214              		.loc 1 511 0
 215              		.cfi_startproc
 216              		@ args = 0, pretend = 0, frame = 8
 217              		@ frame_needed = 0, uses_anonymous_args = 0
 218              	.LVL13:
 219 0000 30B5     		push	{r4, r5, lr}
 220              		.cfi_def_cfa_offset 12
 221              		.cfi_offset 4, -12
 222              		.cfi_offset 5, -8
 223              		.cfi_offset 14, -4
 224 0002 83B0     		sub	sp, sp, #12
ARM GAS  C:\Users\ANDREW~1\AppData\Local\Temp\ccxC4OPZ.s 			page 19


 225              		.cfi_def_cfa_offset 24
 226 0004 0546     		mov	r5, r0
 227 0006 0191     		str	r1, [sp, #4]
 228              	.LVL14:
 229              	.LBB2:
 513:main.c        ****         EEPROM_WriteByte(ptr[i], address + i);
 230              		.loc 1 513 0
 231 0008 0024     		movs	r4, #0
 232 000a 07E0     		b	.L18
 233              	.LVL15:
 234              	.L19:
 514:main.c        ****     }
 235              		.loc 1 514 0 discriminator 3
 236 000c 2919     		adds	r1, r5, r4
 237 000e 89B2     		uxth	r1, r1
 238 0010 01AB     		add	r3, sp, #4
 239              	.LVL16:
 240 0012 185D     		ldrb	r0, [r3, r4]	@ zero_extendqisi2
 241 0014 FFF7FEFF 		bl	EEPROM_WriteByte
 242              	.LVL17:
 513:main.c        ****         EEPROM_WriteByte(ptr[i], address + i);
 243              		.loc 1 513 0 discriminator 3
 244 0018 0134     		adds	r4, r4, #1
 245              	.LVL18:
 246 001a E4B2     		uxtb	r4, r4
 247              	.LVL19:
 248              	.L18:
 513:main.c        ****         EEPROM_WriteByte(ptr[i], address + i);
 249              		.loc 1 513 0 is_stmt 0 discriminator 1
 250 001c 032C     		cmp	r4, #3
 251 001e F5D9     		bls	.L19
 252              	.LBE2:
 516:main.c        **** 
 253              		.loc 1 516 0 is_stmt 1
 254 0020 03B0     		add	sp, sp, #12
 255              		.cfi_def_cfa_offset 12
 256              		@ sp needed
 257 0022 30BD     		pop	{r4, r5, pc}
 258              		.cfi_endproc
 259              	.LFE75:
 260              		.size	EEPROM_writeInt, .-EEPROM_writeInt
 261              		.section	.text.EEPROM_writeDouble,"ax",%progbits
 262              		.align	2
 263              		.global	EEPROM_writeDouble
 264              		.thumb
 265              		.thumb_func
 266              		.type	EEPROM_writeDouble, %function
 267              	EEPROM_writeDouble:
 268              	.LFB76:
 519:main.c        ****     uint8* ptr = (uint8*)&value;  // Convert double to byte array
 269              		.loc 1 519 0
 270              		.cfi_startproc
 271              		@ args = 0, pretend = 0, frame = 8
 272              		@ frame_needed = 0, uses_anonymous_args = 0
 273              	.LVL20:
 274 0000 30B5     		push	{r4, r5, lr}
 275              		.cfi_def_cfa_offset 12
ARM GAS  C:\Users\ANDREW~1\AppData\Local\Temp\ccxC4OPZ.s 			page 20


 276              		.cfi_offset 4, -12
 277              		.cfi_offset 5, -8
 278              		.cfi_offset 14, -4
 279 0002 83B0     		sub	sp, sp, #12
 280              		.cfi_def_cfa_offset 24
 281 0004 0546     		mov	r5, r0
 282 0006 CDE90023 		strd	r2, [sp]
 283              	.LVL21:
 284              	.LBB3:
 521:main.c        ****         EEPROM_WriteByte(ptr[i], address + i);
 285              		.loc 1 521 0
 286 000a 0024     		movs	r4, #0
 287 000c 07E0     		b	.L22
 288              	.LVL22:
 289              	.L23:
 522:main.c        ****     }
 290              		.loc 1 522 0 discriminator 3
 291 000e 2919     		adds	r1, r5, r4
 292 0010 89B2     		uxth	r1, r1
 293 0012 1DF80400 		ldrb	r0, [sp, r4]	@ zero_extendqisi2
 294 0016 FFF7FEFF 		bl	EEPROM_WriteByte
 295              	.LVL23:
 521:main.c        ****         EEPROM_WriteByte(ptr[i], address + i);
 296              		.loc 1 521 0 discriminator 3
 297 001a 0134     		adds	r4, r4, #1
 298              	.LVL24:
 299 001c E4B2     		uxtb	r4, r4
 300              	.LVL25:
 301              	.L22:
 521:main.c        ****         EEPROM_WriteByte(ptr[i], address + i);
 302              		.loc 1 521 0 is_stmt 0 discriminator 1
 303 001e 072C     		cmp	r4, #7
 304 0020 F5D9     		bls	.L23
 305              	.LBE3:
 524:main.c        **** 
 306              		.loc 1 524 0 is_stmt 1
 307 0022 03B0     		add	sp, sp, #12
 308              		.cfi_def_cfa_offset 12
 309              	.LVL26:
 310              		@ sp needed
 311 0024 30BD     		pop	{r4, r5, pc}
 312              		.cfi_endproc
 313              	.LFE76:
 314              		.size	EEPROM_writeDouble, .-EEPROM_writeDouble
 315 0026 00BF     		.section	.text.EEPROM_readDouble,"ax",%progbits
 316              		.align	2
 317              		.global	EEPROM_readDouble
 318              		.thumb
 319              		.thumb_func
 320              		.type	EEPROM_readDouble, %function
 321              	EEPROM_readDouble:
 322              	.LFB77:
 526:main.c        ****     double value = 0.0;
 323              		.loc 1 526 0
 324              		.cfi_startproc
 325              		@ args = 0, pretend = 0, frame = 8
 326              		@ frame_needed = 0, uses_anonymous_args = 0
ARM GAS  C:\Users\ANDREW~1\AppData\Local\Temp\ccxC4OPZ.s 			page 21


 327              	.LVL27:
 328 0000 30B5     		push	{r4, r5, lr}
 329              		.cfi_def_cfa_offset 12
 330              		.cfi_offset 4, -12
 331              		.cfi_offset 5, -8
 332              		.cfi_offset 14, -4
 333 0002 83B0     		sub	sp, sp, #12
 334              		.cfi_def_cfa_offset 24
 335 0004 0546     		mov	r5, r0
 527:main.c        ****     uint8* ptr = (uint8*)&value;
 336              		.loc 1 527 0
 337 0006 0022     		movs	r2, #0
 338 0008 0023     		movs	r3, #0
 339 000a CDE90023 		strd	r2, [sp]
 340              	.LVL28:
 341              	.LBB4:
 529:main.c        ****         ptr[i] = EEPROM_ReadByte(address + i);
 342              		.loc 1 529 0
 343 000e 0024     		movs	r4, #0
 344 0010 07E0     		b	.L26
 345              	.LVL29:
 346              	.L27:
 530:main.c        ****     }
 347              		.loc 1 530 0 discriminator 3
 348 0012 2819     		adds	r0, r5, r4
 349 0014 80B2     		uxth	r0, r0
 350 0016 FFF7FEFF 		bl	EEPROM_ReadByte
 351              	.LVL30:
 352 001a 0DF80400 		strb	r0, [sp, r4]
 529:main.c        ****         ptr[i] = EEPROM_ReadByte(address + i);
 353              		.loc 1 529 0 discriminator 3
 354 001e 0134     		adds	r4, r4, #1
 355              	.LVL31:
 356 0020 E4B2     		uxtb	r4, r4
 357              	.LVL32:
 358              	.L26:
 529:main.c        ****         ptr[i] = EEPROM_ReadByte(address + i);
 359              		.loc 1 529 0 is_stmt 0 discriminator 1
 360 0022 072C     		cmp	r4, #7
 361 0024 F5D9     		bls	.L27
 362              	.LBE4:
 533:main.c        **** 
 363              		.loc 1 533 0 is_stmt 1
 364 0026 DDE90001 		ldrd	r0, [sp]
 365 002a 03B0     		add	sp, sp, #12
 366              		.cfi_def_cfa_offset 12
 367              	.LVL33:
 368              		@ sp needed
 369 002c 30BD     		pop	{r4, r5, pc}
 370              		.cfi_endproc
 371              	.LFE77:
 372              		.size	EEPROM_readDouble, .-EEPROM_readDouble
 373 002e 00BF     		.section	.text.writeDoubleArrayToEEPROM,"ax",%progbits
 374              		.align	2
 375              		.global	writeDoubleArrayToEEPROM
 376              		.thumb
 377              		.thumb_func
ARM GAS  C:\Users\ANDREW~1\AppData\Local\Temp\ccxC4OPZ.s 			page 22


 378              		.type	writeDoubleArrayToEEPROM, %function
 379              	writeDoubleArrayToEEPROM:
 380              	.LFB78:
 535:main.c        ****     for (uint16 i = 0; i < arraySize; i++) {
 381              		.loc 1 535 0
 382              		.cfi_startproc
 383              		@ args = 0, pretend = 0, frame = 0
 384              		@ frame_needed = 0, uses_anonymous_args = 0
 385              	.LVL34:
 386 0000 F8B5     		push	{r3, r4, r5, r6, r7, lr}
 387              		.cfi_def_cfa_offset 24
 388              		.cfi_offset 3, -24
 389              		.cfi_offset 4, -20
 390              		.cfi_offset 5, -16
 391              		.cfi_offset 6, -12
 392              		.cfi_offset 7, -8
 393              		.cfi_offset 14, -4
 394 0002 0746     		mov	r7, r0
 395 0004 0E46     		mov	r6, r1
 396 0006 1546     		mov	r5, r2
 397              	.LVL35:
 398              	.LBB5:
 536:main.c        ****         EEPROM_writeDouble(startAddress + i * sizeof(double), array[i]);
 399              		.loc 1 536 0
 400 0008 0024     		movs	r4, #0
 401 000a 09E0     		b	.L30
 402              	.LVL36:
 403              	.L31:
 537:main.c        ****     }
 404              		.loc 1 537 0 discriminator 3
 405 000c E000     		lsls	r0, r4, #3
 406 000e 3318     		adds	r3, r6, r0
 407 0010 3844     		add	r0, r0, r7
 408 0012 D3E90023 		ldrd	r2, [r3]
 409 0016 80B2     		uxth	r0, r0
 410 0018 FFF7FEFF 		bl	EEPROM_writeDouble
 411              	.LVL37:
 536:main.c        ****         EEPROM_writeDouble(startAddress + i * sizeof(double), array[i]);
 412              		.loc 1 536 0 discriminator 3
 413 001c 0134     		adds	r4, r4, #1
 414              	.LVL38:
 415 001e A4B2     		uxth	r4, r4
 416              	.LVL39:
 417              	.L30:
 536:main.c        ****         EEPROM_writeDouble(startAddress + i * sizeof(double), array[i]);
 418              		.loc 1 536 0 is_stmt 0 discriminator 1
 419 0020 AC42     		cmp	r4, r5
 420 0022 F3D3     		bcc	.L31
 421              	.LBE5:
 539:main.c        **** 
 422              		.loc 1 539 0 is_stmt 1
 423 0024 F8BD     		pop	{r3, r4, r5, r6, r7, pc}
 424              		.cfi_endproc
 425              	.LFE78:
 426              		.size	writeDoubleArrayToEEPROM, .-writeDoubleArrayToEEPROM
 427 0026 00BF     		.section	.text.readDoubleArrayFromEEPROM,"ax",%progbits
 428              		.align	2
ARM GAS  C:\Users\ANDREW~1\AppData\Local\Temp\ccxC4OPZ.s 			page 23


 429              		.global	readDoubleArrayFromEEPROM
 430              		.thumb
 431              		.thumb_func
 432              		.type	readDoubleArrayFromEEPROM, %function
 433              	readDoubleArrayFromEEPROM:
 434              	.LFB79:
 541:main.c        ****     for (uint16 i = 0; i < arraySize; i++) {
 435              		.loc 1 541 0
 436              		.cfi_startproc
 437              		@ args = 0, pretend = 0, frame = 0
 438              		@ frame_needed = 0, uses_anonymous_args = 0
 439              	.LVL40:
 440 0000 2DE9F041 		push	{r4, r5, r6, r7, r8, lr}
 441              		.cfi_def_cfa_offset 24
 442              		.cfi_offset 4, -24
 443              		.cfi_offset 5, -20
 444              		.cfi_offset 6, -16
 445              		.cfi_offset 7, -12
 446              		.cfi_offset 8, -8
 447              		.cfi_offset 14, -4
 448 0004 8046     		mov	r8, r0
 449 0006 0F46     		mov	r7, r1
 450 0008 1646     		mov	r6, r2
 451              	.LVL41:
 452              	.LBB6:
 542:main.c        ****         array[i] = EEPROM_readDouble(startAddress + i * sizeof(double));
 453              		.loc 1 542 0
 454 000a 0024     		movs	r4, #0
 455 000c 09E0     		b	.L34
 456              	.LVL42:
 457              	.L35:
 543:main.c        ****     }
 458              		.loc 1 543 0 discriminator 3
 459 000e E000     		lsls	r0, r4, #3
 460 0010 3D18     		adds	r5, r7, r0
 461 0012 4044     		add	r0, r0, r8
 462 0014 80B2     		uxth	r0, r0
 463 0016 FFF7FEFF 		bl	EEPROM_readDouble
 464              	.LVL43:
 465 001a C5E90001 		strd	r0, [r5]
 542:main.c        ****         array[i] = EEPROM_readDouble(startAddress + i * sizeof(double));
 466              		.loc 1 542 0 discriminator 3
 467 001e 0134     		adds	r4, r4, #1
 468              	.LVL44:
 469 0020 A4B2     		uxth	r4, r4
 470              	.LVL45:
 471              	.L34:
 542:main.c        ****         array[i] = EEPROM_readDouble(startAddress + i * sizeof(double));
 472              		.loc 1 542 0 is_stmt 0 discriminator 1
 473 0022 B442     		cmp	r4, r6
 474 0024 F3D3     		bcc	.L35
 475              	.LBE6:
 545:main.c        **** /*
 476              		.loc 1 545 0 is_stmt 1
 477 0026 BDE8F081 		pop	{r4, r5, r6, r7, r8, pc}
 478              		.cfi_endproc
 479              	.LFE79:
ARM GAS  C:\Users\ANDREW~1\AppData\Local\Temp\ccxC4OPZ.s 			page 24


 480              		.size	readDoubleArrayFromEEPROM, .-readDoubleArrayFromEEPROM
 481 002a 00BF     		.section	.text.print_uart,"ax",%progbits
 482              		.align	2
 483              		.global	print_uart
 484              		.thumb
 485              		.thumb_func
 486              		.type	print_uart, %function
 487              	print_uart:
 488              	.LFB80:
 568:main.c        ****     int num_digits = 0;
 489              		.loc 1 568 0
 490              		.cfi_startproc
 491              		@ args = 0, pretend = 0, frame = 0
 492              		@ frame_needed = 0, uses_anonymous_args = 0
 493              	.LVL46:
 494 0000 38B5     		push	{r3, r4, r5, lr}
 495              		.cfi_def_cfa_offset 16
 496              		.cfi_offset 3, -16
 497              		.cfi_offset 4, -12
 498              		.cfi_offset 5, -8
 499              		.cfi_offset 14, -4
 500              	.LVL47:
 570:main.c        ****     
 501              		.loc 1 570 0
 502 0002 0346     		mov	r3, r0
 569:main.c        ****     int temp = num;
 503              		.loc 1 569 0
 504 0004 0025     		movs	r5, #0
 573:main.c        ****         temp /= 10;
 505              		.loc 1 573 0
 506 0006 06E0     		b	.L38
 507              	.LVL48:
 508              	.L39:
 574:main.c        ****         num_digits++;
 509              		.loc 1 574 0
 510 0008 154A     		ldr	r2, .L45
 511 000a 82FB0312 		smull	r1, r2, r2, r3
 512 000e DB17     		asrs	r3, r3, #31
 513              	.LVL49:
 514 0010 C3EBA203 		rsb	r3, r3, r2, asr #2
 515              	.LVL50:
 575:main.c        ****     }
 516              		.loc 1 575 0
 517 0014 0135     		adds	r5, r5, #1
 518              	.LVL51:
 519              	.L38:
 573:main.c        ****         temp /= 10;
 520              		.loc 1 573 0
 521 0016 002B     		cmp	r3, #0
 522 0018 F6D1     		bne	.L39
 523              	.LBB7:
 578:main.c        ****         value_text[i] = num % 10;
 524              		.loc 1 578 0
 525 001a 6A1E     		subs	r2, r5, #1
 526              	.LVL52:
 527 001c 0EE0     		b	.L40
 528              	.LVL53:
ARM GAS  C:\Users\ANDREW~1\AppData\Local\Temp\ccxC4OPZ.s 			page 25


 529              	.L41:
 579:main.c        ****         num /= 10;
 530              		.loc 1 579 0 discriminator 3
 531 001e 104B     		ldr	r3, .L45
 532 0020 83FB0031 		smull	r3, r1, r3, r0
 533 0024 C317     		asrs	r3, r0, #31
 534 0026 C3EBA103 		rsb	r3, r3, r1, asr #2
 535 002a 1C46     		mov	r4, r3
 536 002c 03EB8303 		add	r3, r3, r3, lsl #2
 537 0030 5900     		lsls	r1, r3, #1
 538 0032 431A     		subs	r3, r0, r1
 539 0034 0B49     		ldr	r1, .L45+4
 540 0036 8B54     		strb	r3, [r1, r2]
 580:main.c        ****     }
 541              		.loc 1 580 0 discriminator 3
 542 0038 2046     		mov	r0, r4
 543              	.LVL54:
 578:main.c        ****         value_text[i] = num % 10;
 544              		.loc 1 578 0 discriminator 3
 545 003a 013A     		subs	r2, r2, #1
 546              	.LVL55:
 547              	.L40:
 578:main.c        ****         value_text[i] = num % 10;
 548              		.loc 1 578 0 is_stmt 0 discriminator 1
 549 003c 002A     		cmp	r2, #0
 550 003e EEDA     		bge	.L41
 551 0040 0024     		movs	r4, #0
 552 0042 09E0     		b	.L42
 553              	.LVL56:
 554              	.L43:
 555              	.LBE7:
 556              	.LBB8:
 584:main.c        ****         CyDelay(5);
 557              		.loc 1 584 0 is_stmt 1 discriminator 3
 558 0044 074B     		ldr	r3, .L45+4
 559 0046 185D     		ldrb	r0, [r3, r4]	@ zero_extendqisi2
 560 0048 3030     		adds	r0, r0, #48
 561 004a C0B2     		uxtb	r0, r0
 562 004c FFF7FEFF 		bl	UART_1_WriteTxData
 563              	.LVL57:
 585:main.c        ****     }
 564              		.loc 1 585 0 discriminator 3
 565 0050 0520     		movs	r0, #5
 566 0052 FFF7FEFF 		bl	CyDelay
 567              	.LVL58:
 583:main.c        ****         UART_1_WriteTxData(value_text[i]+0x30); //display number
 568              		.loc 1 583 0 discriminator 3
 569 0056 0134     		adds	r4, r4, #1
 570              	.LVL59:
 571              	.L42:
 583:main.c        ****         UART_1_WriteTxData(value_text[i]+0x30); //display number
 572              		.loc 1 583 0 is_stmt 0 discriminator 1
 573 0058 A542     		cmp	r5, r4
 574 005a F3DC     		bgt	.L43
 575              	.LBE8:
 588:main.c        **** 
 576              		.loc 1 588 0 is_stmt 1
ARM GAS  C:\Users\ANDREW~1\AppData\Local\Temp\ccxC4OPZ.s 			page 26


 577 005c 38BD     		pop	{r3, r4, r5, pc}
 578              	.LVL60:
 579              	.L46:
 580 005e 00BF     		.align	2
 581              	.L45:
 582 0060 67666666 		.word	1717986919
 583 0064 00000000 		.word	value_text
 584              		.cfi_endproc
 585              	.LFE80:
 586              		.size	print_uart, .-print_uart
 587              		.section	.text.BuzzerSound,"ax",%progbits
 588              		.align	2
 589              		.global	BuzzerSound
 590              		.thumb
 591              		.thumb_func
 592              		.type	BuzzerSound, %function
 593              	BuzzerSound:
 594              	.LFB81:
 593:main.c        ****     previous_buzz = current_second();
 595              		.loc 1 593 0
 596              		.cfi_startproc
 597              		@ args = 0, pretend = 0, frame = 0
 598              		@ frame_needed = 0, uses_anonymous_args = 0
 599              	.LVL61:
 600 0000 38B5     		push	{r3, r4, r5, lr}
 601              		.cfi_def_cfa_offset 16
 602              		.cfi_offset 3, -16
 603              		.cfi_offset 4, -12
 604              		.cfi_offset 5, -8
 605              		.cfi_offset 14, -4
 606 0002 0446     		mov	r4, r0
 607 0004 0D46     		mov	r5, r1
 594:main.c        ****     buzz_duration= duration;
 608              		.loc 1 594 0
 609 0006 FFF7FEFF 		bl	current_second
 610              	.LVL62:
 611 000a 034B     		ldr	r3, .L49
 612 000c C3E90401 		strd	r0, [r3, #16]
 595:main.c        **** }
 613              		.loc 1 595 0
 614 0010 C3E90645 		strd	r4, [r3, #24]
 615 0014 38BD     		pop	{r3, r4, r5, pc}
 616              	.L50:
 617 0016 00BF     		.align	2
 618              	.L49:
 619 0018 00000000 		.word	.LANCHOR0
 620              		.cfi_endproc
 621              	.LFE81:
 622              		.size	BuzzerSound, .-BuzzerSound
 623              		.global	__aeabi_dsub
 624              		.global	__aeabi_dcmplt
 625              		.section	.text.BuzzerRuntime,"ax",%progbits
 626              		.align	2
 627              		.global	BuzzerRuntime
 628              		.thumb
 629              		.thumb_func
 630              		.type	BuzzerRuntime, %function
ARM GAS  C:\Users\ANDREW~1\AppData\Local\Temp\ccxC4OPZ.s 			page 27


 631              	BuzzerRuntime:
 632              	.LFB82:
 598:main.c        ****     double buzz_time_diff = current_second()-previous_buzz;
 633              		.loc 1 598 0
 634              		.cfi_startproc
 635              		@ args = 0, pretend = 0, frame = 0
 636              		@ frame_needed = 0, uses_anonymous_args = 0
 637              	.LVL63:
 638 0000 38B5     		push	{r3, r4, r5, lr}
 639              		.cfi_def_cfa_offset 16
 640              		.cfi_offset 3, -16
 641              		.cfi_offset 4, -12
 642              		.cfi_offset 5, -8
 643              		.cfi_offset 14, -4
 644 0002 0446     		mov	r4, r0
 645 0004 0D46     		mov	r5, r1
 599:main.c        ****     
 646              		.loc 1 599 0
 647 0006 FFF7FEFF 		bl	current_second
 648              	.LVL64:
 649 000a 094B     		ldr	r3, .L58
 650 000c D3E90423 		ldrd	r2, [r3, #16]
 651 0010 FFF7FEFF 		bl	__aeabi_dsub
 652              	.LVL65:
 601:main.c        ****     else Buzzer_Write(1); // Turn off buzzer
 653              		.loc 1 601 0
 654 0014 2246     		mov	r2, r4
 655 0016 2B46     		mov	r3, r5
 656 0018 FFF7FEFF 		bl	__aeabi_dcmplt
 657              	.LVL66:
 658 001c 18B1     		cbz	r0, .L56
 601:main.c        ****     else Buzzer_Write(1); // Turn off buzzer
 659              		.loc 1 601 0 is_stmt 0 discriminator 1
 660 001e 0020     		movs	r0, #0
 661 0020 FFF7FEFF 		bl	Buzzer_Write
 662              	.LVL67:
 663 0024 38BD     		pop	{r3, r4, r5, pc}
 664              	.L56:
 602:main.c        **** }
 665              		.loc 1 602 0 is_stmt 1
 666 0026 0120     		movs	r0, #1
 667 0028 FFF7FEFF 		bl	Buzzer_Write
 668              	.LVL68:
 669 002c 38BD     		pop	{r3, r4, r5, pc}
 670              	.L59:
 671 002e 00BF     		.align	2
 672              	.L58:
 673 0030 00000000 		.word	.LANCHOR0
 674              		.cfi_endproc
 675              	.LFE82:
 676              		.size	BuzzerRuntime, .-BuzzerRuntime
 677              		.section	.text.send_ultra_pulse,"ax",%progbits
 678              		.align	2
 679              		.global	send_ultra_pulse
 680              		.thumb
 681              		.thumb_func
 682              		.type	send_ultra_pulse, %function
ARM GAS  C:\Users\ANDREW~1\AppData\Local\Temp\ccxC4OPZ.s 			page 28


 683              	send_ultra_pulse:
 684              	.LFB85:
 734:main.c        ****     Control_Reg_1_Write(1); // Reset counter to do more pulses
 685              		.loc 1 734 0
 686              		.cfi_startproc
 687              		@ args = 0, pretend = 0, frame = 0
 688              		@ frame_needed = 0, uses_anonymous_args = 0
 689 0000 08B5     		push	{r3, lr}
 690              		.cfi_def_cfa_offset 8
 691              		.cfi_offset 3, -8
 692              		.cfi_offset 14, -4
 735:main.c        ****     CyDelayUs(150);
 693              		.loc 1 735 0
 694 0002 0120     		movs	r0, #1
 695 0004 FFF7FEFF 		bl	Control_Reg_1_Write
 696              	.LVL69:
 736:main.c        ****     Control_Reg_1_Write(0);
 697              		.loc 1 736 0
 698 0008 9620     		movs	r0, #150
 699 000a FFF7FEFF 		bl	CyDelayUs
 700              	.LVL70:
 737:main.c        ****     
 701              		.loc 1 737 0
 702 000e 0020     		movs	r0, #0
 703 0010 FFF7FEFF 		bl	Control_Reg_1_Write
 704              	.LVL71:
 739:main.c        ****     
 705              		.loc 1 739 0
 706 0014 FFF7FEFF 		bl	Timer_1_Start
 707              	.LVL72:
 741:main.c        **** }
 708              		.loc 1 741 0
 709 0018 0122     		movs	r2, #1
 710 001a 014B     		ldr	r3, .L62
 711 001c 9A60     		str	r2, [r3, #8]
 712 001e 08BD     		pop	{r3, pc}
 713              	.L63:
 714              		.align	2
 715              	.L62:
 716 0020 00000000 		.word	.LANCHOR0
 717              		.cfi_endproc
 718              	.LFE85:
 719              		.size	send_ultra_pulse, .-send_ultra_pulse
 720              		.global	__aeabi_fadd
 721              		.global	__aeabi_f2d
 722              		.global	__aeabi_d2f
 723              		.section	.text.find_median,"ax",%progbits
 724              		.align	2
 725              		.global	find_median
 726              		.thumb
 727              		.thumb_func
 728              		.type	find_median, %function
 729              	find_median:
 730              	.LFB88:
 762:main.c        ****     double median;
 731              		.loc 1 762 0
 732              		.cfi_startproc
ARM GAS  C:\Users\ANDREW~1\AppData\Local\Temp\ccxC4OPZ.s 			page 29


 733              		@ args = 0, pretend = 0, frame = 0
 734              		@ frame_needed = 0, uses_anonymous_args = 0
 735              	.LVL73:
 736 0000 70B5     		push	{r4, r5, r6, lr}
 737              		.cfi_def_cfa_offset 16
 738              		.cfi_offset 4, -16
 739              		.cfi_offset 5, -12
 740              		.cfi_offset 6, -8
 741              		.cfi_offset 14, -4
 742 0002 0546     		mov	r5, r0
 743 0004 0C46     		mov	r4, r1
 764:main.c        **** 
 744              		.loc 1 764 0
 745 0006 2D4B     		ldr	r3, .L68
 746 0008 0422     		movs	r2, #4
 747 000a FFF7FEFF 		bl	qsort
 748              	.LVL74:
 767:main.c        ****     {
 749              		.loc 1 767 0
 750 000e 14F0010F 		tst	r4, #1
 751 0012 23D1     		bne	.L65
 769:main.c        ****     }
 752              		.loc 1 769 0
 753 0014 04EBD474 		add	r4, r4, r4, lsr #31
 754              	.LVL75:
 755 0018 6410     		asrs	r4, r4, #1
 756 001a 04F18043 		add	r3, r4, #1073741824
 757 001e 023B     		subs	r3, r3, #2
 758 0020 04F18042 		add	r2, r4, #1073741824
 759 0024 013A     		subs	r2, r2, #1
 760 0026 55F82210 		ldr	r1, [r5, r2, lsl #2]	@ float
 761 002a 55F82300 		ldr	r0, [r5, r3, lsl #2]	@ float
 762 002e FFF7FEFF 		bl	__aeabi_fadd
 763              	.LVL76:
 764 0032 55F82410 		ldr	r1, [r5, r4, lsl #2]	@ float
 765 0036 FFF7FEFF 		bl	__aeabi_fadd
 766              	.LVL77:
 767 003a 631C     		adds	r3, r4, #1
 768 003c 55F82310 		ldr	r1, [r5, r3, lsl #2]	@ float
 769 0040 FFF7FEFF 		bl	__aeabi_fadd
 770              	.LVL78:
 771 0044 0234     		adds	r4, r4, #2
 772 0046 55F82410 		ldr	r1, [r5, r4, lsl #2]	@ float
 773 004a FFF7FEFF 		bl	__aeabi_fadd
 774              	.LVL79:
 775 004e FFF7FEFF 		bl	__aeabi_f2d
 776              	.LVL80:
 777 0052 0022     		movs	r2, #0
 778 0054 1A4B     		ldr	r3, .L68+4
 779 0056 FFF7FEFF 		bl	__aeabi_ddiv
 780              	.LVL81:
 781 005a 2BE0     		b	.L66
 782              	.LVL82:
 783              	.L65:
 774:main.c        ****     }
 784              		.loc 1 774 0
 785 005c 661E     		subs	r6, r4, #1
ARM GAS  C:\Users\ANDREW~1\AppData\Local\Temp\ccxC4OPZ.s 			page 30


 786 005e 06EBD676 		add	r6, r6, r6, lsr #31
 787 0062 7610     		asrs	r6, r6, #1
 788 0064 06F18043 		add	r3, r6, #1073741824
 789 0068 023B     		subs	r3, r3, #2
 790 006a 06F18042 		add	r2, r6, #1073741824
 791 006e 013A     		subs	r2, r2, #1
 792 0070 55F82210 		ldr	r1, [r5, r2, lsl #2]	@ float
 793 0074 55F82300 		ldr	r0, [r5, r3, lsl #2]	@ float
 794 0078 FFF7FEFF 		bl	__aeabi_fadd
 795              	.LVL83:
 796 007c 55F82610 		ldr	r1, [r5, r6, lsl #2]	@ float
 797 0080 FFF7FEFF 		bl	__aeabi_fadd
 798              	.LVL84:
 799 0084 0134     		adds	r4, r4, #1
 800              	.LVL85:
 801 0086 04EBD474 		add	r4, r4, r4, lsr #31
 802              	.LVL86:
 803 008a 6410     		asrs	r4, r4, #1
 804 008c 55F82410 		ldr	r1, [r5, r4, lsl #2]	@ float
 805 0090 FFF7FEFF 		bl	__aeabi_fadd
 806              	.LVL87:
 807 0094 631C     		adds	r3, r4, #1
 808 0096 55F82310 		ldr	r1, [r5, r3, lsl #2]	@ float
 809 009a FFF7FEFF 		bl	__aeabi_fadd
 810              	.LVL88:
 811 009e 0234     		adds	r4, r4, #2
 812 00a0 55F82410 		ldr	r1, [r5, r4, lsl #2]	@ float
 813 00a4 FFF7FEFF 		bl	__aeabi_fadd
 814              	.LVL89:
 815 00a8 FFF7FEFF 		bl	__aeabi_f2d
 816              	.LVL90:
 817 00ac 0022     		movs	r2, #0
 818 00ae 054B     		ldr	r3, .L68+8
 819 00b0 FFF7FEFF 		bl	__aeabi_ddiv
 820              	.LVL91:
 821              	.L66:
 776:main.c        **** }
 822              		.loc 1 776 0
 823 00b4 FFF7FEFF 		bl	__aeabi_d2f
 824              	.LVL92:
 777:main.c        **** // ================================================================================================
 825              		.loc 1 777 0
 826 00b8 70BD     		pop	{r4, r5, r6, pc}
 827              	.LVL93:
 828              	.L69:
 829 00ba 00BF     		.align	2
 830              	.L68:
 831 00bc 00000000 		.word	compare_qsort
 832 00c0 00001440 		.word	1075052544
 833 00c4 00001840 		.word	1075314688
 834              		.cfi_endproc
 835              	.LFE88:
 836              		.size	find_median, .-find_median
 837              		.section	.text.display_num,"ax",%progbits
 838              		.align	2
 839              		.global	display_num
 840              		.thumb
ARM GAS  C:\Users\ANDREW~1\AppData\Local\Temp\ccxC4OPZ.s 			page 31


 841              		.thumb_func
 842              		.type	display_num, %function
 843              	display_num:
 844              	.LFB90:
 788:main.c        **** }
 789:main.c        **** 
 790:main.c        **** double old_dis_val=0;
 791:main.c        **** 
 792:main.c        **** int D[4]= {0,0,0,0};
 793:main.c        **** int dp[4]={0,0,0,0};
 794:main.c        **** unsigned long count = 0;
 795:main.c        **** 
 796:main.c        **** void display_num(double value)
 797:main.c        **** {
 845              		.loc 1 797 0
 846              		.cfi_startproc
 847              		@ args = 0, pretend = 0, frame = 0
 848              		@ frame_needed = 0, uses_anonymous_args = 0
 849              		@ link register save eliminated.
 850              	.LVL94:
 798:main.c        ****     seg_num = value;
 851              		.loc 1 798 0
 852 0000 014B     		ldr	r3, .L71
 853 0002 C3E90801 		strd	r0, [r3, #32]
 854 0006 7047     		bx	lr
 855              	.L72:
 856              		.align	2
 857              	.L71:
 858 0008 00000000 		.word	.LANCHOR0
 859              		.cfi_endproc
 860              	.LFE90:
 861              		.size	display_num, .-display_num
 862              		.section	.text.clear_7_seg,"ax",%progbits
 863              		.align	2
 864              		.global	clear_7_seg
 865              		.thumb
 866              		.thumb_func
 867              		.type	clear_7_seg, %function
 868              	clear_7_seg:
 869              	.LFB92:
 799:main.c        **** }
 800:main.c        **** void seg_runtime(double value){
 801:main.c        ****       
 802:main.c        ****     if (run_7_Seg==0) return; // Ignore the rest of the code when interrupt is not triggered
 803:main.c        ****     
 804:main.c        ****     //value_in = (int)(value_in*10);
 805:main.c        ****     //float value = (float) value_in / 10;
 806:main.c        ****     
 807:main.c        ****     
 808:main.c        ****     
 809:main.c        ****     
 810:main.c        ****     for (int i = 0; i < 4; ++i) dp[i] = 0; // Reset all 0 
 811:main.c        ****     if(value>0)
 812:main.c        ****     {
 813:main.c        ****         
 814:main.c        ****         if((value != old_dis_val))
 815:main.c        ****         {
ARM GAS  C:\Users\ANDREW~1\AppData\Local\Temp\ccxC4OPZ.s 			page 32


 816:main.c        ****             for (int i = 0; i < 4; ++i) dp[i] = 0; // Reset all 0 
 817:main.c        ****             dp[1]=1; 
 818:main.c        ****             
 819:main.c        ****             value = (int)(value*10);
 820:main.c        ****             float digits = (float) value / 10;
 821:main.c        ****             
 822:main.c        ****             if(digits <10) 
 823:main.c        ****             {
 824:main.c        ****                 D[0] =  10;
 825:main.c        ****                 D[1] = 10;
 826:main.c        ****                 D[2] = (int)(digits/1)%10;
 827:main.c        ****                 D[3] = (int)(digits*10) %10;
 828:main.c        ****                 
 829:main.c        ****             }
 830:main.c        ****             else if(digits <100)  
 831:main.c        ****             {
 832:main.c        ****                 D[0] =  10;
 833:main.c        ****                 D[1] = (int)(digits/10)%10;
 834:main.c        ****                 D[2] = (int)(digits/1)%10;
 835:main.c        ****                 D[3] = (int)(digits*10) %10;
 836:main.c        ****             }
 837:main.c        ****             else
 838:main.c        ****             {
 839:main.c        ****                 D[0] = (int)(digits/100)%10;
 840:main.c        ****                 D[1] = (int)(digits/10)%10;
 841:main.c        ****                 D[2] = (int)(digits/1)%10;
 842:main.c        ****                 D[3] = (int)(digits*10) %10;
 843:main.c        ****             }
 844:main.c        ****         }
 845:main.c        ****         
 846:main.c        ****         /*
 847:main.c        ****         //////////////// Code after this would only run once per interrupt////////////////
 848:main.c        ****         // Only update the value when it gets a new value (for consistency and save computation for
 849:main.c        ****         if((value != old_dis_val)){ 
 850:main.c        ****             // Convert double to d1,d2,d3,d4,dp_pos
 851:main.c        ****             int dp_pos = 0;
 852:main.c        ****             
 853:main.c        ****             if (value>=1){ // For values above 1
 854:main.c        ****             while(value<1000){
 855:main.c        ****                 value=value*10;
 856:main.c        ****                  dp_pos+=1;
 857:main.c        ****             }
 858:main.c        ****                     
 859:main.c        ****             // Extract integer and decimal parts
 860:main.c        ****             int digits = (int)value;
 861:main.c        ****                     
 862:main.c        ****             D[0] = (int)(digits/1000)%10;
 863:main.c        ****             D[1] = (int)(digits/100)%10;
 864:main.c        ****             D[2] = (int)(digits/10)%10;
 865:main.c        ****             D[3] = (int)(digits/1) %10;
 866:main.c        ****             }
 867:main.c        ****             else { //For below 1, fix decimal point to always show 4 significant figure (eg. 0.900,
 868:main.c        ****             dp_pos=3;
 869:main.c        ****             int digits = (int) (value*1000);
 870:main.c        ****                     
 871:main.c        ****             D[0] = (int)(digits/1000)%10;
 872:main.c        ****             D[1] = (int)(digits/100)%10;
ARM GAS  C:\Users\ANDREW~1\AppData\Local\Temp\ccxC4OPZ.s 			page 33


 873:main.c        ****             D[2] = (int)(digits/10)%10;
 874:main.c        ****             D[3] = (int)(digits/1) %10;
 875:main.c        ****             }
 876:main.c        ****             
 877:main.c        ****         ////////////////////////////////////////////
 878:main.c        ****         // fill each segments of the display
 879:main.c        ****         for (int i = 0; i < 4; ++i) dp[i] = 0; // Reset all 0 
 880:main.c        ****             dp[dp_pos]=1;
 881:main.c        ****                 
 882:main.c        ****             old_dis_val = value;
 883:main.c        ****         }
 884:main.c        ****         */
 885:main.c        ****         
 886:main.c        ****             
 887:main.c        ****     }
 888:main.c        ****     else if(value==0)
 889:main.c        ****     {
 890:main.c        ****         D[0] = 0; 
 891:main.c        ****         D[1] = 0;
 892:main.c        ****         D[2] = 0; 
 893:main.c        ****         D[3] = 0; 
 894:main.c        ****         dp[0]=1;
 895:main.c        ****     }
 896:main.c        ****     
 897:main.c        ****     else if(value== -1) //Show cm icon
 898:main.c        ****     {
 899:main.c        ****         D[0] = 15; //C
 900:main.c        ****         D[1] = 16; //E
 901:main.c        ****         D[2] = 18; //N
 902:main.c        ****         D[3] = 17; //t
 903:main.c        ****     }
 904:main.c        ****     else if(value== -2) //Show inch icon
 905:main.c        ****     {
 906:main.c        ****         D[0] = 13; //i 
 907:main.c        ****         D[1] = 12; //n 
 908:main.c        ****         D[2] = 11; //c
 909:main.c        ****         D[3] = 14; //h
 910:main.c        ****         
 911:main.c        ****     }
 912:main.c        ****     else if(value== -3) // Dot
 913:main.c        ****     {
 914:main.c        ****         D[0] = 10; //space
 915:main.c        ****         D[1] = 10; //space
 916:main.c        ****         D[2] = 10; //space
 917:main.c        ****         D[3] = 10; //space
 918:main.c        ****         dp[1]=1;
 919:main.c        ****     }
 920:main.c        ****     else if(value== -4) // Nothing
 921:main.c        ****     {
 922:main.c        ****         D[0] = 10; //space
 923:main.c        ****         D[1] = 10; //space
 924:main.c        ****         D[2] = 10; //space
 925:main.c        ****         D[3] = 10; //space
 926:main.c        ****         
 927:main.c        ****     }
 928:main.c        ****     else // reserve for startup
 929:main.c        ****     {
ARM GAS  C:\Users\ANDREW~1\AppData\Local\Temp\ccxC4OPZ.s 			page 34


 930:main.c        ****         D[0] = 10; //space
 931:main.c        ****         D[1] = 10; //space
 932:main.c        ****         D[2] = 10; //space
 933:main.c        ****         D[3] = 10; //space
 934:main.c        ****         
 935:main.c        ****         if(value ==-5) D[0] = 8; 
 936:main.c        ****         if(value ==-6) D[1] = 8; 
 937:main.c        ****         if(value ==-7) D[2] = 8; 
 938:main.c        ****         if(value ==-8) D[3] = 8; 
 939:main.c        ****     }
 940:main.c        ****     
 941:main.c        ****         
 942:main.c        ****     
 943:main.c        ****     
 944:main.c        ****     // Loop through each display each time we run 7_seg display function
 945:main.c        ****     count++;
 946:main.c        ****     count = count %4; //limit count between 0 to 3
 947:main.c        ****         
 948:main.c        ****     // Turn off all sections
 949:main.c        ****     Dis_D1_Write(1);
 950:main.c        ****     Dis_D2_Write(1);
 951:main.c        ****     Dis_D3_Write(1);
 952:main.c        ****     Dis_D4_Write(1);
 953:main.c        ****         
 954:main.c        ****     // Update to show a specific value
 955:main.c        ****     draw_7Seg(D[count],dp[3-count]);
 956:main.c        ****         
 957:main.c        ****     // Only show on specified section
 958:main.c        ****     if     (count==0)Dis_D1_Write(0);
 959:main.c        ****     else if(count==1)Dis_D2_Write(0);
 960:main.c        ****     else if(count==2)Dis_D3_Write(0);
 961:main.c        ****     else if(count==3)Dis_D4_Write(0);
 962:main.c        ****     
 963:main.c        ****     run_7_Seg =0;
 964:main.c        ****     
 965:main.c        **** }
 966:main.c        **** 
 967:main.c        **** void clear_7_seg()
 968:main.c        **** {
 870              		.loc 1 968 0
 871              		.cfi_startproc
 872              		@ args = 0, pretend = 0, frame = 0
 873              		@ frame_needed = 0, uses_anonymous_args = 0
 874 0000 08B5     		push	{r3, lr}
 875              		.cfi_def_cfa_offset 8
 876              		.cfi_offset 3, -8
 877              		.cfi_offset 14, -4
 969:main.c        ****     // Turn off all sections
 970:main.c        ****     Dis_D1_Write(1);
 878              		.loc 1 970 0
 879 0002 0120     		movs	r0, #1
 880 0004 FFF7FEFF 		bl	Dis_D1_Write
 881              	.LVL95:
 971:main.c        ****     Dis_D2_Write(1);
 882              		.loc 1 971 0
 883 0008 0120     		movs	r0, #1
 884 000a FFF7FEFF 		bl	Dis_D2_Write
ARM GAS  C:\Users\ANDREW~1\AppData\Local\Temp\ccxC4OPZ.s 			page 35


 885              	.LVL96:
 972:main.c        ****     Dis_D3_Write(1);
 886              		.loc 1 972 0
 887 000e 0120     		movs	r0, #1
 888 0010 FFF7FEFF 		bl	Dis_D3_Write
 889              	.LVL97:
 973:main.c        ****     Dis_D4_Write(1);
 890              		.loc 1 973 0
 891 0014 0120     		movs	r0, #1
 892 0016 FFF7FEFF 		bl	Dis_D4_Write
 893              	.LVL98:
 894 001a 08BD     		pop	{r3, pc}
 895              		.cfi_endproc
 896              	.LFE92:
 897              		.size	clear_7_seg, .-clear_7_seg
 898              		.section	.text.draw_7Seg,"ax",%progbits
 899              		.align	2
 900              		.global	draw_7Seg
 901              		.thumb
 902              		.thumb_func
 903              		.type	draw_7Seg, %function
 904              	draw_7Seg:
 905              	.LFB93:
 974:main.c        **** }
 975:main.c        **** 
 976:main.c        **** // ================================================================================================
 977:main.c        **** /* Low level 7 segment display conversion code*/
 978:main.c        **** // Lookup table for 0 to 9
 979:main.c        **** const char charLookup[][8] = {
 980:main.c        ****   "1111110", // 0
 981:main.c        ****   "0110000", // 1
 982:main.c        ****   "1101101", // 2
 983:main.c        ****   "1111001", // 3
 984:main.c        ****   "0110011", // 4
 985:main.c        ****   "1011011", // 5
 986:main.c        ****   "1011111", // 6
 987:main.c        ****   "1110000", // 7
 988:main.c        ****   "1111111", // 8
 989:main.c        ****   "1111011", // 9
 990:main.c        ****   "0000000", // Space - 10
 991:main.c        ****   "0001101", // c -11
 992:main.c        ****   "0010101", // n -12
 993:main.c        ****   "0010000", // i -13
 994:main.c        ****   "0010111", // h -14
 995:main.c        ****   "1001110", // big C -15
 996:main.c        ****   "1001111", // big E -16
 997:main.c        ****   "0001111", // t -17
 998:main.c        ****   "1110110", // big N -18
 999:main.c        **** };
1000:main.c        **** 
1001:main.c        **** // update pins to show a specific number and turn on the decimal point if required
1002:main.c        **** int segmentPattern_array[7];  // Array to store the converted 1s and 0s (7 elements for 7 segments)
1003:main.c        **** void draw_7Seg(int number,int dp)
1004:main.c        **** {
 906              		.loc 1 1004 0
 907              		.cfi_startproc
 908              		@ args = 0, pretend = 0, frame = 0
ARM GAS  C:\Users\ANDREW~1\AppData\Local\Temp\ccxC4OPZ.s 			page 36


 909              		@ frame_needed = 0, uses_anonymous_args = 0
 910              	.LVL99:
 911 0000 38B5     		push	{r3, r4, r5, lr}
 912              		.cfi_def_cfa_offset 16
 913              		.cfi_offset 3, -16
 914              		.cfi_offset 4, -12
 915              		.cfi_offset 5, -8
 916              		.cfi_offset 14, -4
 917 0002 0D46     		mov	r5, r1
1005:main.c        ****     const char* segmentPattern = charLookup[number];
 918              		.loc 1 1005 0
 919 0004 1E4B     		ldr	r3, .L79
 920 0006 03EBC000 		add	r0, r3, r0, lsl #3
 921              	.LVL100:
 922              	.LBB9:
1006:main.c        ****     
1007:main.c        ****     // Convert string to integer
1008:main.c        ****     for (int i = 0; i < 7; i++) {
 923              		.loc 1 1008 0
 924 000a 0023     		movs	r3, #0
 925 000c 05E0     		b	.L76
 926              	.LVL101:
 927              	.L77:
1009:main.c        ****         segmentPattern_array[i] = segmentPattern[i]-'0';
 928              		.loc 1 1009 0 discriminator 3
 929 000e C25C     		ldrb	r2, [r0, r3]	@ zero_extendqisi2
 930 0010 303A     		subs	r2, r2, #48
 931 0012 1C49     		ldr	r1, .L79+4
 932 0014 41F82320 		str	r2, [r1, r3, lsl #2]
1008:main.c        ****         segmentPattern_array[i] = segmentPattern[i]-'0';
 933              		.loc 1 1008 0 discriminator 3
 934 0018 0133     		adds	r3, r3, #1
 935              	.LVL102:
 936              	.L76:
1008:main.c        ****         segmentPattern_array[i] = segmentPattern[i]-'0';
 937              		.loc 1 1008 0 is_stmt 0 discriminator 1
 938 001a 062B     		cmp	r3, #6
 939 001c F7DD     		ble	.L77
 940              	.LBE9:
1010:main.c        ****     }
1011:main.c        ****     
1012:main.c        ****     Dis_A_Write(!segmentPattern_array[0]);
 941              		.loc 1 1012 0 is_stmt 1
 942 001e 194C     		ldr	r4, .L79+4
 943 0020 2068     		ldr	r0, [r4]
 944              	.LVL103:
 945 0022 B0FA80F0 		clz	r0, r0
 946 0026 4009     		lsrs	r0, r0, #5
 947 0028 FFF7FEFF 		bl	Dis_A_Write
 948              	.LVL104:
1013:main.c        ****     Dis_B_Write(!segmentPattern_array[1]);
 949              		.loc 1 1013 0
 950 002c 6068     		ldr	r0, [r4, #4]
 951 002e B0FA80F0 		clz	r0, r0
 952 0032 4009     		lsrs	r0, r0, #5
 953 0034 FFF7FEFF 		bl	Dis_B_Write
 954              	.LVL105:
ARM GAS  C:\Users\ANDREW~1\AppData\Local\Temp\ccxC4OPZ.s 			page 37


1014:main.c        ****     Dis_C_Write(!segmentPattern_array[2]);
 955              		.loc 1 1014 0
 956 0038 A068     		ldr	r0, [r4, #8]
 957 003a B0FA80F0 		clz	r0, r0
 958 003e 4009     		lsrs	r0, r0, #5
 959 0040 FFF7FEFF 		bl	Dis_C_Write
 960              	.LVL106:
1015:main.c        ****     Dis_D_Write(!segmentPattern_array[3]);
 961              		.loc 1 1015 0
 962 0044 E068     		ldr	r0, [r4, #12]
 963 0046 B0FA80F0 		clz	r0, r0
 964 004a 4009     		lsrs	r0, r0, #5
 965 004c FFF7FEFF 		bl	Dis_D_Write
 966              	.LVL107:
1016:main.c        ****     Dis_E_Write(!segmentPattern_array[4]);
 967              		.loc 1 1016 0
 968 0050 2069     		ldr	r0, [r4, #16]
 969 0052 B0FA80F0 		clz	r0, r0
 970 0056 4009     		lsrs	r0, r0, #5
 971 0058 FFF7FEFF 		bl	Dis_E_Write
 972              	.LVL108:
1017:main.c        ****     Dis_F_Write(!segmentPattern_array[5]);
 973              		.loc 1 1017 0
 974 005c 6069     		ldr	r0, [r4, #20]
 975 005e B0FA80F0 		clz	r0, r0
 976 0062 4009     		lsrs	r0, r0, #5
 977 0064 FFF7FEFF 		bl	Dis_F_Write
 978              	.LVL109:
1018:main.c        ****     Dis_G_Write(!segmentPattern_array[6]);
 979              		.loc 1 1018 0
 980 0068 A069     		ldr	r0, [r4, #24]
 981 006a B0FA80F0 		clz	r0, r0
 982 006e 4009     		lsrs	r0, r0, #5
 983 0070 FFF7FEFF 		bl	Dis_G_Write
 984              	.LVL110:
1019:main.c        ****     Dis_DP_Write(!dp);
 985              		.loc 1 1019 0
 986 0074 B5FA85F0 		clz	r0, r5
 987 0078 4009     		lsrs	r0, r0, #5
 988 007a FFF7FEFF 		bl	Dis_DP_Write
 989              	.LVL111:
 990 007e 38BD     		pop	{r3, r4, r5, pc}
 991              	.LVL112:
 992              	.L80:
 993              		.align	2
 994              	.L79:
 995 0080 00000000 		.word	.LANCHOR1
 996 0084 00000000 		.word	segmentPattern_array
 997              		.cfi_endproc
 998              	.LFE93:
 999              		.size	draw_7Seg, .-draw_7Seg
 1000              		.global	__aeabi_dcmpgt
 1001              		.global	__aeabi_dcmpeq
 1002              		.global	__aeabi_dmul
 1003              		.global	__aeabi_d2iz
 1004              		.global	__aeabi_i2d
 1005              		.global	__aeabi_fdiv
ARM GAS  C:\Users\ANDREW~1\AppData\Local\Temp\ccxC4OPZ.s 			page 38


 1006              		.global	__aeabi_fcmplt
 1007              		.global	__aeabi_f2iz
 1008              		.global	__aeabi_fmul
 1009              		.section	.text.seg_runtime,"ax",%progbits
 1010              		.align	2
 1011              		.global	seg_runtime
 1012              		.thumb
 1013              		.thumb_func
 1014              		.type	seg_runtime, %function
 1015              	seg_runtime:
 1016              	.LFB91:
 800:main.c        ****       
 1017              		.loc 1 800 0
 1018              		.cfi_startproc
 1019              		@ args = 0, pretend = 0, frame = 0
 1020              		@ frame_needed = 0, uses_anonymous_args = 0
 1021              	.LVL113:
 802:main.c        ****     
 1022              		.loc 1 802 0
 1023 0000 974B     		ldr	r3, .L138
 1024 0002 1B68     		ldr	r3, [r3]
 1025 0004 002B     		cmp	r3, #0
 1026 0006 00F0A181 		beq	.L137
 800:main.c        ****       
 1027              		.loc 1 800 0
 1028 000a 70B5     		push	{r4, r5, r6, lr}
 1029              		.cfi_def_cfa_offset 16
 1030              		.cfi_offset 4, -16
 1031              		.cfi_offset 5, -12
 1032              		.cfi_offset 6, -8
 1033              		.cfi_offset 14, -4
 1034 000c 0446     		mov	r4, r0
 1035 000e 0D46     		mov	r5, r1
 1036 0010 0023     		movs	r3, #0
 1037 0012 05E0     		b	.L83
 1038              	.LVL114:
 1039              	.L84:
 1040              	.LBB10:
 810:main.c        ****     if(value>0)
 1041              		.loc 1 810 0 discriminator 3
 1042 0014 924A     		ldr	r2, .L138
 1043 0016 02EB8302 		add	r2, r2, r3, lsl #2
 1044 001a 0021     		movs	r1, #0
 1045 001c 9162     		str	r1, [r2, #40]
 1046 001e 0133     		adds	r3, r3, #1
 1047              	.LVL115:
 1048              	.L83:
 810:main.c        ****     if(value>0)
 1049              		.loc 1 810 0 is_stmt 0 discriminator 1
 1050 0020 032B     		cmp	r3, #3
 1051 0022 F7DD     		ble	.L84
 1052              	.LBE10:
 811:main.c        ****     {
 1053              		.loc 1 811 0 is_stmt 1
 1054 0024 0022     		movs	r2, #0
 1055 0026 0023     		movs	r3, #0
 1056              	.LVL116:
ARM GAS  C:\Users\ANDREW~1\AppData\Local\Temp\ccxC4OPZ.s 			page 39


 1057 0028 2046     		mov	r0, r4
 1058              	.LVL117:
 1059 002a 2946     		mov	r1, r5
 1060 002c FFF7FEFF 		bl	__aeabi_dcmpgt
 1061              	.LVL118:
 1062 0030 0028     		cmp	r0, #0
 1063 0032 00F0C480 		beq	.L128
 814:main.c        ****         {
 1064              		.loc 1 814 0
 1065 0036 8A4B     		ldr	r3, .L138
 1066 0038 D3E90E23 		ldrd	r2, [r3, #56]
 1067 003c 2046     		mov	r0, r4
 1068 003e 2946     		mov	r1, r5
 1069 0040 FFF7FEFF 		bl	__aeabi_dcmpeq
 1070              	.LVL119:
 1071 0044 38B1     		cbz	r0, .L115
 1072              	.LBB11:
 1073 0046 49E1     		b	.L88
 1074              	.LVL120:
 1075              	.L89:
 1076              	.LBB12:
 816:main.c        ****             dp[1]=1; 
 1077              		.loc 1 816 0 discriminator 3
 1078 0048 854A     		ldr	r2, .L138
 1079 004a 02EB8302 		add	r2, r2, r3, lsl #2
 1080 004e 0021     		movs	r1, #0
 1081 0050 9162     		str	r1, [r2, #40]
 1082 0052 0133     		adds	r3, r3, #1
 1083              	.LVL121:
 1084 0054 00E0     		b	.L87
 1085              	.LVL122:
 1086              	.L115:
 1087              	.LBE12:
 1088              	.LBE11:
 1089 0056 0023     		movs	r3, #0
 1090              	.L87:
 1091              	.LVL123:
 1092              	.LBB14:
 1093              	.LBB13:
 816:main.c        ****             dp[1]=1; 
 1094              		.loc 1 816 0 is_stmt 0 discriminator 1
 1095 0058 032B     		cmp	r3, #3
 1096 005a F5DD     		ble	.L89
 1097              	.LBE13:
 817:main.c        ****             
 1098              		.loc 1 817 0 is_stmt 1
 1099 005c 0122     		movs	r2, #1
 1100 005e 804B     		ldr	r3, .L138
 1101              	.LVL124:
 1102 0060 DA62     		str	r2, [r3, #44]
 819:main.c        ****             float digits = (float) value / 10;
 1103              		.loc 1 819 0
 1104 0062 0022     		movs	r2, #0
 1105 0064 7F4B     		ldr	r3, .L138+4
 1106 0066 2046     		mov	r0, r4
 1107 0068 2946     		mov	r1, r5
 1108 006a FFF7FEFF 		bl	__aeabi_dmul
ARM GAS  C:\Users\ANDREW~1\AppData\Local\Temp\ccxC4OPZ.s 			page 40


 1109              	.LVL125:
 1110 006e FFF7FEFF 		bl	__aeabi_d2iz
 1111              	.LVL126:
 1112 0072 FFF7FEFF 		bl	__aeabi_i2d
 1113              	.LVL127:
 820:main.c        ****             
 1114              		.loc 1 820 0
 1115 0076 FFF7FEFF 		bl	__aeabi_d2f
 1116              	.LVL128:
 1117 007a 7B49     		ldr	r1, .L138+8
 1118 007c FFF7FEFF 		bl	__aeabi_fdiv
 1119              	.LVL129:
 1120 0080 0446     		mov	r4, r0
 1121              	.LVL130:
 822:main.c        ****             {
 1122              		.loc 1 822 0
 1123 0082 7949     		ldr	r1, .L138+8
 1124 0084 FFF7FEFF 		bl	__aeabi_fcmplt
 1125              	.LVL131:
 1126 0088 10B3     		cbz	r0, .L129
 824:main.c        ****                 D[1] = 10;
 1127              		.loc 1 824 0
 1128 008a 754D     		ldr	r5, .L138
 1129 008c 0A23     		movs	r3, #10
 1130 008e 2B64     		str	r3, [r5, #64]
 825:main.c        ****                 D[2] = (int)(digits/1)%10;
 1131              		.loc 1 825 0
 1132 0090 6B64     		str	r3, [r5, #68]
 826:main.c        ****                 D[3] = (int)(digits*10) %10;
 1133              		.loc 1 826 0
 1134 0092 2046     		mov	r0, r4
 1135 0094 FFF7FEFF 		bl	__aeabi_f2iz
 1136              	.LVL132:
 1137 0098 744E     		ldr	r6, .L138+12
 1138 009a 86FB0032 		smull	r3, r2, r6, r0
 1139 009e C317     		asrs	r3, r0, #31
 1140 00a0 C3EBA203 		rsb	r3, r3, r2, asr #2
 1141 00a4 03EB8303 		add	r3, r3, r3, lsl #2
 1142 00a8 A0EB4303 		sub	r3, r0, r3, lsl #1
 1143 00ac AB64     		str	r3, [r5, #72]
 827:main.c        ****                 
 1144              		.loc 1 827 0
 1145 00ae 6E49     		ldr	r1, .L138+8
 1146 00b0 2046     		mov	r0, r4
 1147 00b2 FFF7FEFF 		bl	__aeabi_fmul
 1148              	.LVL133:
 1149 00b6 FFF7FEFF 		bl	__aeabi_f2iz
 1150              	.LVL134:
 1151 00ba 86FB0036 		smull	r3, r6, r6, r0
 1152 00be C317     		asrs	r3, r0, #31
 1153 00c0 C3EBA603 		rsb	r3, r3, r6, asr #2
 1154 00c4 03EB8303 		add	r3, r3, r3, lsl #2
 1155 00c8 A0EB4303 		sub	r3, r0, r3, lsl #1
 1156 00cc EB64     		str	r3, [r5, #76]
 1157 00ce 05E1     		b	.L88
 1158              	.L129:
 830:main.c        ****             {
ARM GAS  C:\Users\ANDREW~1\AppData\Local\Temp\ccxC4OPZ.s 			page 41


 1159              		.loc 1 830 0
 1160 00d0 6749     		ldr	r1, .L138+16
 1161 00d2 2046     		mov	r0, r4
 1162 00d4 FFF7FEFF 		bl	__aeabi_fcmplt
 1163              	.LVL135:
 1164 00d8 88B3     		cbz	r0, .L130
 832:main.c        ****                 D[1] = (int)(digits/10)%10;
 1165              		.loc 1 832 0
 1166 00da 614D     		ldr	r5, .L138
 1167 00dc 0A23     		movs	r3, #10
 1168 00de 2B64     		str	r3, [r5, #64]
 833:main.c        ****                 D[2] = (int)(digits/1)%10;
 1169              		.loc 1 833 0
 1170 00e0 6149     		ldr	r1, .L138+8
 1171 00e2 2046     		mov	r0, r4
 1172 00e4 FFF7FEFF 		bl	__aeabi_fdiv
 1173              	.LVL136:
 1174 00e8 FFF7FEFF 		bl	__aeabi_f2iz
 1175              	.LVL137:
 1176 00ec 5F4E     		ldr	r6, .L138+12
 1177 00ee 86FB0032 		smull	r3, r2, r6, r0
 1178 00f2 C317     		asrs	r3, r0, #31
 1179 00f4 C3EBA203 		rsb	r3, r3, r2, asr #2
 1180 00f8 03EB8303 		add	r3, r3, r3, lsl #2
 1181 00fc A0EB4303 		sub	r3, r0, r3, lsl #1
 1182 0100 6B64     		str	r3, [r5, #68]
 834:main.c        ****                 D[3] = (int)(digits*10) %10;
 1183              		.loc 1 834 0
 1184 0102 2046     		mov	r0, r4
 1185 0104 FFF7FEFF 		bl	__aeabi_f2iz
 1186              	.LVL138:
 1187 0108 86FB0032 		smull	r3, r2, r6, r0
 1188 010c C317     		asrs	r3, r0, #31
 1189 010e C3EBA203 		rsb	r3, r3, r2, asr #2
 1190 0112 03EB8303 		add	r3, r3, r3, lsl #2
 1191 0116 A0EB4303 		sub	r3, r0, r3, lsl #1
 1192 011a AB64     		str	r3, [r5, #72]
 835:main.c        ****             }
 1193              		.loc 1 835 0
 1194 011c 5249     		ldr	r1, .L138+8
 1195 011e 2046     		mov	r0, r4
 1196 0120 FFF7FEFF 		bl	__aeabi_fmul
 1197              	.LVL139:
 1198 0124 FFF7FEFF 		bl	__aeabi_f2iz
 1199              	.LVL140:
 1200 0128 86FB0036 		smull	r3, r6, r6, r0
 1201 012c C317     		asrs	r3, r0, #31
 1202 012e C3EBA603 		rsb	r3, r3, r6, asr #2
 1203 0132 03EB8303 		add	r3, r3, r3, lsl #2
 1204 0136 A0EB4303 		sub	r3, r0, r3, lsl #1
 1205 013a EB64     		str	r3, [r5, #76]
 1206 013c CEE0     		b	.L88
 1207              	.L130:
 839:main.c        ****                 D[1] = (int)(digits/10)%10;
 1208              		.loc 1 839 0
 1209 013e 4C49     		ldr	r1, .L138+16
 1210 0140 2046     		mov	r0, r4
ARM GAS  C:\Users\ANDREW~1\AppData\Local\Temp\ccxC4OPZ.s 			page 42


 1211 0142 FFF7FEFF 		bl	__aeabi_fdiv
 1212              	.LVL141:
 1213 0146 FFF7FEFF 		bl	__aeabi_f2iz
 1214              	.LVL142:
 1215 014a 484E     		ldr	r6, .L138+12
 1216 014c 86FB0032 		smull	r3, r2, r6, r0
 1217 0150 C317     		asrs	r3, r0, #31
 1218 0152 C3EBA203 		rsb	r3, r3, r2, asr #2
 1219 0156 03EB8303 		add	r3, r3, r3, lsl #2
 1220 015a A0EB4303 		sub	r3, r0, r3, lsl #1
 1221 015e 404D     		ldr	r5, .L138
 1222 0160 2B64     		str	r3, [r5, #64]
 840:main.c        ****                 D[2] = (int)(digits/1)%10;
 1223              		.loc 1 840 0
 1224 0162 4149     		ldr	r1, .L138+8
 1225 0164 2046     		mov	r0, r4
 1226 0166 FFF7FEFF 		bl	__aeabi_fdiv
 1227              	.LVL143:
 1228 016a FFF7FEFF 		bl	__aeabi_f2iz
 1229              	.LVL144:
 1230 016e 86FB0032 		smull	r3, r2, r6, r0
 1231 0172 C317     		asrs	r3, r0, #31
 1232 0174 C3EBA203 		rsb	r3, r3, r2, asr #2
 1233 0178 03EB8303 		add	r3, r3, r3, lsl #2
 1234 017c A0EB4303 		sub	r3, r0, r3, lsl #1
 1235 0180 6B64     		str	r3, [r5, #68]
 841:main.c        ****                 D[3] = (int)(digits*10) %10;
 1236              		.loc 1 841 0
 1237 0182 2046     		mov	r0, r4
 1238 0184 FFF7FEFF 		bl	__aeabi_f2iz
 1239              	.LVL145:
 1240 0188 86FB0032 		smull	r3, r2, r6, r0
 1241 018c C317     		asrs	r3, r0, #31
 1242 018e C3EBA203 		rsb	r3, r3, r2, asr #2
 1243 0192 03EB8303 		add	r3, r3, r3, lsl #2
 1244 0196 A0EB4303 		sub	r3, r0, r3, lsl #1
 1245 019a AB64     		str	r3, [r5, #72]
 842:main.c        ****             }
 1246              		.loc 1 842 0
 1247 019c 3249     		ldr	r1, .L138+8
 1248 019e 2046     		mov	r0, r4
 1249 01a0 FFF7FEFF 		bl	__aeabi_fmul
 1250              	.LVL146:
 1251 01a4 FFF7FEFF 		bl	__aeabi_f2iz
 1252              	.LVL147:
 1253 01a8 86FB0036 		smull	r3, r6, r6, r0
 1254 01ac C317     		asrs	r3, r0, #31
 1255 01ae C3EBA603 		rsb	r3, r3, r6, asr #2
 1256 01b2 03EB8303 		add	r3, r3, r3, lsl #2
 1257 01b6 A0EB4303 		sub	r3, r0, r3, lsl #1
 1258 01ba EB64     		str	r3, [r5, #76]
 1259 01bc 8EE0     		b	.L88
 1260              	.LVL148:
 1261              	.L128:
 1262              	.LBE14:
 888:main.c        ****     {
 1263              		.loc 1 888 0
ARM GAS  C:\Users\ANDREW~1\AppData\Local\Temp\ccxC4OPZ.s 			page 43


 1264 01be 0022     		movs	r2, #0
 1265 01c0 0023     		movs	r3, #0
 1266 01c2 2046     		mov	r0, r4
 1267 01c4 2946     		mov	r1, r5
 1268 01c6 FFF7FEFF 		bl	__aeabi_dcmpeq
 1269              	.LVL149:
 1270 01ca 40B1     		cbz	r0, .L131
 890:main.c        ****         D[1] = 0;
 1271              		.loc 1 890 0
 1272 01cc 244B     		ldr	r3, .L138
 1273 01ce 0022     		movs	r2, #0
 1274 01d0 1A64     		str	r2, [r3, #64]
 891:main.c        ****         D[2] = 0; 
 1275              		.loc 1 891 0
 1276 01d2 5A64     		str	r2, [r3, #68]
 892:main.c        ****         D[3] = 0; 
 1277              		.loc 1 892 0
 1278 01d4 9A64     		str	r2, [r3, #72]
 893:main.c        ****         dp[0]=1;
 1279              		.loc 1 893 0
 1280 01d6 DA64     		str	r2, [r3, #76]
 894:main.c        ****     }
 1281              		.loc 1 894 0
 1282 01d8 0122     		movs	r2, #1
 1283 01da 9A62     		str	r2, [r3, #40]
 1284 01dc 7EE0     		b	.L88
 1285              	.L131:
 897:main.c        ****     {
 1286              		.loc 1 897 0
 1287 01de 0022     		movs	r2, #0
 1288 01e0 244B     		ldr	r3, .L138+20
 1289 01e2 2046     		mov	r0, r4
 1290 01e4 2946     		mov	r1, r5
 1291 01e6 FFF7FEFF 		bl	__aeabi_dcmpeq
 1292              	.LVL150:
 1293 01ea 48B1     		cbz	r0, .L132
 899:main.c        ****         D[1] = 16; //E
 1294              		.loc 1 899 0
 1295 01ec 1C4B     		ldr	r3, .L138
 1296 01ee 0F22     		movs	r2, #15
 1297 01f0 1A64     		str	r2, [r3, #64]
 900:main.c        ****         D[2] = 18; //N
 1298              		.loc 1 900 0
 1299 01f2 1022     		movs	r2, #16
 1300 01f4 5A64     		str	r2, [r3, #68]
 901:main.c        ****         D[3] = 17; //t
 1301              		.loc 1 901 0
 1302 01f6 1222     		movs	r2, #18
 1303 01f8 9A64     		str	r2, [r3, #72]
 902:main.c        ****     }
 1304              		.loc 1 902 0
 1305 01fa 1122     		movs	r2, #17
 1306 01fc DA64     		str	r2, [r3, #76]
 1307 01fe 6DE0     		b	.L88
 1308              	.L132:
 904:main.c        ****     {
 1309              		.loc 1 904 0
ARM GAS  C:\Users\ANDREW~1\AppData\Local\Temp\ccxC4OPZ.s 			page 44


 1310 0200 0022     		movs	r2, #0
 1311 0202 4FF04043 		mov	r3, #-1073741824
 1312 0206 2046     		mov	r0, r4
 1313 0208 2946     		mov	r1, r5
 1314 020a FFF7FEFF 		bl	__aeabi_dcmpeq
 1315              	.LVL151:
 1316 020e 48B1     		cbz	r0, .L133
 906:main.c        ****         D[1] = 12; //n 
 1317              		.loc 1 906 0
 1318 0210 134B     		ldr	r3, .L138
 1319 0212 0D22     		movs	r2, #13
 1320 0214 1A64     		str	r2, [r3, #64]
 907:main.c        ****         D[2] = 11; //c
 1321              		.loc 1 907 0
 1322 0216 0C22     		movs	r2, #12
 1323 0218 5A64     		str	r2, [r3, #68]
 908:main.c        ****         D[3] = 14; //h
 1324              		.loc 1 908 0
 1325 021a 0B22     		movs	r2, #11
 1326 021c 9A64     		str	r2, [r3, #72]
 909:main.c        ****         
 1327              		.loc 1 909 0
 1328 021e 0E22     		movs	r2, #14
 1329 0220 DA64     		str	r2, [r3, #76]
 1330 0222 5BE0     		b	.L88
 1331              	.L133:
 912:main.c        ****     {
 1332              		.loc 1 912 0
 1333 0224 0022     		movs	r2, #0
 1334 0226 144B     		ldr	r3, .L138+24
 1335 0228 2046     		mov	r0, r4
 1336 022a 2946     		mov	r1, r5
 1337 022c FFF7FEFF 		bl	__aeabi_dcmpeq
 1338              	.LVL152:
 1339 0230 40B1     		cbz	r0, .L134
 914:main.c        ****         D[1] = 10; //space
 1340              		.loc 1 914 0
 1341 0232 0B4B     		ldr	r3, .L138
 1342 0234 0A22     		movs	r2, #10
 1343 0236 1A64     		str	r2, [r3, #64]
 915:main.c        ****         D[2] = 10; //space
 1344              		.loc 1 915 0
 1345 0238 5A64     		str	r2, [r3, #68]
 916:main.c        ****         D[3] = 10; //space
 1346              		.loc 1 916 0
 1347 023a 9A64     		str	r2, [r3, #72]
 917:main.c        ****         dp[1]=1;
 1348              		.loc 1 917 0
 1349 023c DA64     		str	r2, [r3, #76]
 918:main.c        ****     }
 1350              		.loc 1 918 0
 1351 023e 0122     		movs	r2, #1
 1352 0240 DA62     		str	r2, [r3, #44]
 1353 0242 4BE0     		b	.L88
 1354              	.L134:
 920:main.c        ****     {
 1355              		.loc 1 920 0
ARM GAS  C:\Users\ANDREW~1\AppData\Local\Temp\ccxC4OPZ.s 			page 45


 1356 0244 0022     		movs	r2, #0
 1357 0246 0D4B     		ldr	r3, .L138+28
 1358 0248 2046     		mov	r0, r4
 1359 024a 2946     		mov	r1, r5
 1360 024c FFF7FEFF 		bl	__aeabi_dcmpeq
 1361              	.LVL153:
 1362 0250 B0B1     		cbz	r0, .L135
 922:main.c        ****         D[1] = 10; //space
 1363              		.loc 1 922 0
 1364 0252 034B     		ldr	r3, .L138
 1365 0254 0A22     		movs	r2, #10
 1366 0256 1A64     		str	r2, [r3, #64]
 923:main.c        ****         D[2] = 10; //space
 1367              		.loc 1 923 0
 1368 0258 5A64     		str	r2, [r3, #68]
 924:main.c        ****         D[3] = 10; //space
 1369              		.loc 1 924 0
 1370 025a 9A64     		str	r2, [r3, #72]
 925:main.c        ****         
 1371              		.loc 1 925 0
 1372 025c DA64     		str	r2, [r3, #76]
 1373 025e 3DE0     		b	.L88
 1374              	.L139:
 1375              		.align	2
 1376              	.L138:
 1377 0260 00000000 		.word	.LANCHOR0
 1378 0264 00002440 		.word	1076101120
 1379 0268 00002041 		.word	1092616192
 1380 026c 67666666 		.word	1717986919
 1381 0270 0000C842 		.word	1120403456
 1382 0274 0000F0BF 		.word	-1074790400
 1383 0278 000008C0 		.word	-1073217536
 1384 027c 000010C0 		.word	-1072693248
 1385              	.L135:
 930:main.c        ****         D[1] = 10; //space
 1386              		.loc 1 930 0
 1387 0280 334B     		ldr	r3, .L140
 1388 0282 0A22     		movs	r2, #10
 1389 0284 1A64     		str	r2, [r3, #64]
 931:main.c        ****         D[2] = 10; //space
 1390              		.loc 1 931 0
 1391 0286 5A64     		str	r2, [r3, #68]
 932:main.c        ****         D[3] = 10; //space
 1392              		.loc 1 932 0
 1393 0288 9A64     		str	r2, [r3, #72]
 933:main.c        ****         
 1394              		.loc 1 933 0
 1395 028a DA64     		str	r2, [r3, #76]
 935:main.c        ****         if(value ==-6) D[1] = 8; 
 1396              		.loc 1 935 0
 1397 028c 0022     		movs	r2, #0
 1398 028e 314B     		ldr	r3, .L140+4
 1399 0290 2046     		mov	r0, r4
 1400 0292 2946     		mov	r1, r5
 1401 0294 FFF7FEFF 		bl	__aeabi_dcmpeq
 1402              	.LVL154:
 1403 0298 10B1     		cbz	r0, .L104
ARM GAS  C:\Users\ANDREW~1\AppData\Local\Temp\ccxC4OPZ.s 			page 46


 935:main.c        ****         if(value ==-6) D[1] = 8; 
 1404              		.loc 1 935 0 is_stmt 0 discriminator 1
 1405 029a 0822     		movs	r2, #8
 1406 029c 2C4B     		ldr	r3, .L140
 1407 029e 1A64     		str	r2, [r3, #64]
 1408              	.L104:
 936:main.c        ****         if(value ==-7) D[2] = 8; 
 1409              		.loc 1 936 0 is_stmt 1
 1410 02a0 0022     		movs	r2, #0
 1411 02a2 2D4B     		ldr	r3, .L140+8
 1412 02a4 2046     		mov	r0, r4
 1413 02a6 2946     		mov	r1, r5
 1414 02a8 FFF7FEFF 		bl	__aeabi_dcmpeq
 1415              	.LVL155:
 1416 02ac 10B1     		cbz	r0, .L106
 936:main.c        ****         if(value ==-7) D[2] = 8; 
 1417              		.loc 1 936 0 is_stmt 0 discriminator 1
 1418 02ae 0822     		movs	r2, #8
 1419 02b0 274B     		ldr	r3, .L140
 1420 02b2 5A64     		str	r2, [r3, #68]
 1421              	.L106:
 937:main.c        ****         if(value ==-8) D[3] = 8; 
 1422              		.loc 1 937 0 is_stmt 1
 1423 02b4 0022     		movs	r2, #0
 1424 02b6 294B     		ldr	r3, .L140+12
 1425 02b8 2046     		mov	r0, r4
 1426 02ba 2946     		mov	r1, r5
 1427 02bc FFF7FEFF 		bl	__aeabi_dcmpeq
 1428              	.LVL156:
 1429 02c0 10B1     		cbz	r0, .L108
 937:main.c        ****         if(value ==-8) D[3] = 8; 
 1430              		.loc 1 937 0 is_stmt 0 discriminator 1
 1431 02c2 0822     		movs	r2, #8
 1432 02c4 224B     		ldr	r3, .L140
 1433 02c6 9A64     		str	r2, [r3, #72]
 1434              	.L108:
 938:main.c        ****     }
 1435              		.loc 1 938 0 is_stmt 1
 1436 02c8 0022     		movs	r2, #0
 1437 02ca 254B     		ldr	r3, .L140+16
 1438 02cc 2046     		mov	r0, r4
 1439 02ce 2946     		mov	r1, r5
 1440 02d0 FFF7FEFF 		bl	__aeabi_dcmpeq
 1441              	.LVL157:
 1442 02d4 10B1     		cbz	r0, .L88
 938:main.c        ****     }
 1443              		.loc 1 938 0 is_stmt 0 discriminator 1
 1444 02d6 0822     		movs	r2, #8
 1445 02d8 1D4B     		ldr	r3, .L140
 1446 02da DA64     		str	r2, [r3, #76]
 1447              	.LVL158:
 1448              	.L88:
 945:main.c        ****     count = count %4; //limit count between 0 to 3
 1449              		.loc 1 945 0 is_stmt 1
 1450 02dc 1C4C     		ldr	r4, .L140
 1451 02de 236D     		ldr	r3, [r4, #80]
 1452 02e0 0133     		adds	r3, r3, #1
ARM GAS  C:\Users\ANDREW~1\AppData\Local\Temp\ccxC4OPZ.s 			page 47


 946:main.c        ****         
 1453              		.loc 1 946 0
 1454 02e2 03F00303 		and	r3, r3, #3
 1455 02e6 2365     		str	r3, [r4, #80]
 949:main.c        ****     Dis_D2_Write(1);
 1456              		.loc 1 949 0
 1457 02e8 0120     		movs	r0, #1
 1458 02ea FFF7FEFF 		bl	Dis_D1_Write
 1459              	.LVL159:
 950:main.c        ****     Dis_D3_Write(1);
 1460              		.loc 1 950 0
 1461 02ee 0120     		movs	r0, #1
 1462 02f0 FFF7FEFF 		bl	Dis_D2_Write
 1463              	.LVL160:
 951:main.c        ****     Dis_D4_Write(1);
 1464              		.loc 1 951 0
 1465 02f4 0120     		movs	r0, #1
 1466 02f6 FFF7FEFF 		bl	Dis_D3_Write
 1467              	.LVL161:
 952:main.c        ****         
 1468              		.loc 1 952 0
 1469 02fa 0120     		movs	r0, #1
 1470 02fc FFF7FEFF 		bl	Dis_D4_Write
 1471              	.LVL162:
 955:main.c        ****         
 1472              		.loc 1 955 0
 1473 0300 236D     		ldr	r3, [r4, #80]
 1474 0302 C3F10302 		rsb	r2, r3, #3
 1475 0306 04EB8202 		add	r2, r4, r2, lsl #2
 1476 030a 04EB8303 		add	r3, r4, r3, lsl #2
 1477 030e 916A     		ldr	r1, [r2, #40]
 1478 0310 186C     		ldr	r0, [r3, #64]
 1479 0312 FFF7FEFF 		bl	draw_7Seg
 1480              	.LVL163:
 958:main.c        ****     else if(count==1)Dis_D2_Write(0);
 1481              		.loc 1 958 0
 1482 0316 236D     		ldr	r3, [r4, #80]
 1483 0318 1BB9     		cbnz	r3, .L111
 958:main.c        ****     else if(count==1)Dis_D2_Write(0);
 1484              		.loc 1 958 0 is_stmt 0 discriminator 1
 1485 031a 0020     		movs	r0, #0
 1486 031c FFF7FEFF 		bl	Dis_D1_Write
 1487              	.LVL164:
 1488 0320 10E0     		b	.L112
 1489              	.L111:
 959:main.c        ****     else if(count==2)Dis_D3_Write(0);
 1490              		.loc 1 959 0 is_stmt 1
 1491 0322 012B     		cmp	r3, #1
 1492 0324 03D1     		bne	.L113
 959:main.c        ****     else if(count==2)Dis_D3_Write(0);
 1493              		.loc 1 959 0 is_stmt 0 discriminator 1
 1494 0326 0020     		movs	r0, #0
 1495 0328 FFF7FEFF 		bl	Dis_D2_Write
 1496              	.LVL165:
 1497 032c 0AE0     		b	.L112
 1498              	.L113:
 960:main.c        ****     else if(count==3)Dis_D4_Write(0);
ARM GAS  C:\Users\ANDREW~1\AppData\Local\Temp\ccxC4OPZ.s 			page 48


 1499              		.loc 1 960 0 is_stmt 1
 1500 032e 022B     		cmp	r3, #2
 1501 0330 03D1     		bne	.L114
 960:main.c        ****     else if(count==3)Dis_D4_Write(0);
 1502              		.loc 1 960 0 is_stmt 0 discriminator 1
 1503 0332 0020     		movs	r0, #0
 1504 0334 FFF7FEFF 		bl	Dis_D3_Write
 1505              	.LVL166:
 1506 0338 04E0     		b	.L112
 1507              	.L114:
 961:main.c        ****     
 1508              		.loc 1 961 0 is_stmt 1
 1509 033a 032B     		cmp	r3, #3
 1510 033c 02D1     		bne	.L112
 961:main.c        ****     
 1511              		.loc 1 961 0 is_stmt 0 discriminator 1
 1512 033e 0020     		movs	r0, #0
 1513 0340 FFF7FEFF 		bl	Dis_D4_Write
 1514              	.LVL167:
 1515              	.L112:
 963:main.c        ****     
 1516              		.loc 1 963 0 is_stmt 1
 1517 0344 0022     		movs	r2, #0
 1518 0346 024B     		ldr	r3, .L140
 1519 0348 1A60     		str	r2, [r3]
 1520 034a 70BD     		pop	{r4, r5, r6, pc}
 1521              	.LVL168:
 1522              	.L137:
 1523              		.cfi_def_cfa_offset 0
 1524              		.cfi_restore 4
 1525              		.cfi_restore 5
 1526              		.cfi_restore 6
 1527              		.cfi_restore 14
 1528 034c 7047     		bx	lr
 1529              	.L141:
 1530 034e 00BF     		.align	2
 1531              	.L140:
 1532 0350 00000000 		.word	.LANCHOR0
 1533 0354 000014C0 		.word	-1072431104
 1534 0358 000018C0 		.word	-1072168960
 1535 035c 00001CC0 		.word	-1071906816
 1536 0360 000020C0 		.word	-1071644672
 1537              		.cfi_endproc
 1538              	.LFE91:
 1539              		.size	seg_runtime, .-seg_runtime
 1540              		.section	.text.runtime,"ax",%progbits
 1541              		.align	2
 1542              		.global	runtime
 1543              		.thumb
 1544              		.thumb_func
 1545              		.type	runtime, %function
 1546              	runtime:
 1547              	.LFB73:
 483:main.c        ****     BuzzerRuntime(buzz_duration);
 1548              		.loc 1 483 0
 1549              		.cfi_startproc
 1550              		@ args = 0, pretend = 0, frame = 0
ARM GAS  C:\Users\ANDREW~1\AppData\Local\Temp\ccxC4OPZ.s 			page 49


 1551              		@ frame_needed = 0, uses_anonymous_args = 0
 1552 0000 10B5     		push	{r4, lr}
 1553              		.cfi_def_cfa_offset 8
 1554              		.cfi_offset 4, -8
 1555              		.cfi_offset 14, -4
 484:main.c        ****     seg_runtime(seg_num);
 1556              		.loc 1 484 0
 1557 0002 094C     		ldr	r4, .L146
 1558 0004 D4E90601 		ldrd	r0, [r4, #24]
 1559 0008 FFF7FEFF 		bl	BuzzerRuntime
 1560              	.LVL169:
 485:main.c        ****     
 1561              		.loc 1 485 0
 1562 000c D4E90801 		ldrd	r0, [r4, #32]
 1563 0010 FFF7FEFF 		bl	seg_runtime
 1564              	.LVL170:
 487:main.c        ****     else  MetricLedOn();
 1565              		.loc 1 487 0
 1566 0014 054B     		ldr	r3, .L146+4
 1567 0016 1B78     		ldrb	r3, [r3]	@ zero_extendqisi2
 1568 0018 692B     		cmp	r3, #105
 1569 001a 02D1     		bne	.L143
 487:main.c        ****     else  MetricLedOn();
 1570              		.loc 1 487 0 is_stmt 0 discriminator 1
 1571 001c FFF7FEFF 		bl	ImperialLedOn
 1572              	.LVL171:
 1573 0020 10BD     		pop	{r4, pc}
 1574              	.L143:
 488:main.c        ****     
 1575              		.loc 1 488 0 is_stmt 1
 1576 0022 FFF7FEFF 		bl	MetricLedOn
 1577              	.LVL172:
 1578 0026 10BD     		pop	{r4, pc}
 1579              	.L147:
 1580              		.align	2
 1581              	.L146:
 1582 0028 00000000 		.word	.LANCHOR0
 1583 002c 00000000 		.word	cm_or_inch
 1584              		.cfi_endproc
 1585              	.LFE73:
 1586              		.size	runtime, .-runtime
 1587              		.global	__aeabi_dcmple
 1588              		.global	__aeabi_dcmpge
 1589              		.section	.text.mode_0,"ax",%progbits
 1590              		.align	2
 1591              		.global	mode_0
 1592              		.thumb
 1593              		.thumb_func
 1594              		.type	mode_0, %function
 1595              	mode_0:
 1596              	.LFB65:
 245:main.c        ****     double previous_second_decimal=current_second();
 1597              		.loc 1 245 0
 1598              		.cfi_startproc
 1599              		@ args = 0, pretend = 0, frame = 0
 1600              		@ frame_needed = 0, uses_anonymous_args = 0
 1601 0000 F8B5     		push	{r3, r4, r5, r6, r7, lr}
ARM GAS  C:\Users\ANDREW~1\AppData\Local\Temp\ccxC4OPZ.s 			page 50


 1602              		.cfi_def_cfa_offset 24
 1603              		.cfi_offset 3, -24
 1604              		.cfi_offset 4, -20
 1605              		.cfi_offset 5, -16
 1606              		.cfi_offset 6, -12
 1607              		.cfi_offset 7, -8
 1608              		.cfi_offset 14, -4
 246:main.c        ****     while (mode == 0) {
 1609              		.loc 1 246 0
 1610 0002 FFF7FEFF 		bl	current_second
 1611              	.LVL173:
 1612 0006 0646     		mov	r6, r0
 1613 0008 0F46     		mov	r7, r1
 1614              	.LVL174:
 247:main.c        ****         
 1615              		.loc 1 247 0
 1616 000a 7FE0     		b	.L149
 1617              	.L164:
 1618              	.LBB15:
 253:main.c        ****             
 1619              		.loc 1 253 0
 1620 000c FFF7FEFF 		bl	current_second
 1621              	.LVL175:
 1622 0010 3246     		mov	r2, r6
 1623 0012 3B46     		mov	r3, r7
 1624 0014 FFF7FEFF 		bl	__aeabi_dsub
 1625              	.LVL176:
 1626 0018 0446     		mov	r4, r0
 1627 001a 0D46     		mov	r5, r1
 1628              	.LVL177:
 255:main.c        ****         else if ((time_diff > 1)  && (time_diff <= 2))  display_num(-4); //display blank
 1629              		.loc 1 255 0
 1630 001c 0022     		movs	r2, #0
 1631 001e 404B     		ldr	r3, .L171+8
 1632 0020 FFF7FEFF 		bl	__aeabi_dcmple
 1633              	.LVL178:
 1634 0024 20B1     		cbz	r0, .L169
 255:main.c        ****         else if ((time_diff > 1)  && (time_diff <= 2))  display_num(-4); //display blank
 1635              		.loc 1 255 0 is_stmt 0 discriminator 1
 1636 0026 0020     		movs	r0, #0
 1637 0028 3E49     		ldr	r1, .L171+12
 1638 002a FFF7FEFF 		bl	display_num
 1639              	.LVL179:
 1640 002e 17E0     		b	.L152
 1641              	.L169:
 256:main.c        ****         else previous_second_decimal = current_second();
 1642              		.loc 1 256 0 is_stmt 1
 1643 0030 0022     		movs	r2, #0
 1644 0032 3B4B     		ldr	r3, .L171+8
 1645 0034 2046     		mov	r0, r4
 1646 0036 2946     		mov	r1, r5
 1647 0038 FFF7FEFF 		bl	__aeabi_dcmpgt
 1648              	.LVL180:
 1649 003c 60B1     		cbz	r0, .L153
 256:main.c        ****         else previous_second_decimal = current_second();
 1650              		.loc 1 256 0 is_stmt 0 discriminator 1
 1651 003e 0022     		movs	r2, #0
ARM GAS  C:\Users\ANDREW~1\AppData\Local\Temp\ccxC4OPZ.s 			page 51


 1652 0040 4FF08043 		mov	r3, #1073741824
 1653 0044 2046     		mov	r0, r4
 1654 0046 2946     		mov	r1, r5
 1655 0048 FFF7FEFF 		bl	__aeabi_dcmple
 1656              	.LVL181:
 1657 004c 20B1     		cbz	r0, .L153
 256:main.c        ****         else previous_second_decimal = current_second();
 1658              		.loc 1 256 0 discriminator 2
 1659 004e 0020     		movs	r0, #0
 1660 0050 3549     		ldr	r1, .L171+16
 1661 0052 FFF7FEFF 		bl	display_num
 1662              	.LVL182:
 1663 0056 03E0     		b	.L152
 1664              	.L153:
 257:main.c        ****         
 1665              		.loc 1 257 0 is_stmt 1
 1666 0058 FFF7FEFF 		bl	current_second
 1667              	.LVL183:
 1668 005c 0646     		mov	r6, r0
 1669              	.LVL184:
 1670 005e 0F46     		mov	r7, r1
 1671              	.LVL185:
 1672              	.L152:
 261:main.c        ****         {
 1673              		.loc 1 261 0
 1674 0060 FFF7FEFF 		bl	Button_S2_Left_State_Read
 1675              	.LVL186:
 1676 0064 18B1     		cbz	r0, .L156
 261:main.c        ****         {
 1677              		.loc 1 261 0 is_stmt 0 discriminator 1
 1678 0066 FFF7FEFF 		bl	Button_S4_Right_State_Read
 1679              	.LVL187:
 1680 006a 0028     		cmp	r0, #0
 1681 006c 4CD1     		bne	.L157
 1682              	.L156:
 1683              	.LBB16:
 265:main.c        ****             while ((current_second() - check_second )<0.2)  runtime();
 1684              		.loc 1 265 0 is_stmt 1
 1685 006e FFF7FEFF 		bl	current_second
 1686              	.LVL188:
 1687 0072 0446     		mov	r4, r0
 1688              	.LVL189:
 1689 0074 0D46     		mov	r5, r1
 1690              	.LVL190:
 266:main.c        ****             
 1691              		.loc 1 266 0
 1692 0076 01E0     		b	.L158
 1693              	.L159:
 266:main.c        ****             
 1694              		.loc 1 266 0 is_stmt 0 discriminator 2
 1695 0078 FFF7FEFF 		bl	runtime
 1696              	.LVL191:
 1697              	.L158:
 266:main.c        ****             
 1698              		.loc 1 266 0 discriminator 1
 1699 007c FFF7FEFF 		bl	current_second
 1700              	.LVL192:
ARM GAS  C:\Users\ANDREW~1\AppData\Local\Temp\ccxC4OPZ.s 			page 52


 1701 0080 2246     		mov	r2, r4
 1702 0082 2B46     		mov	r3, r5
 1703 0084 FFF7FEFF 		bl	__aeabi_dsub
 1704              	.LVL193:
 1705 0088 23A3     		adr	r3, .L171
 1706 008a D3E90023 		ldrd	r2, [r3]
 1707 008e FFF7FEFF 		bl	__aeabi_dcmplt
 1708              	.LVL194:
 1709 0092 0028     		cmp	r0, #0
 1710 0094 F0D1     		bne	.L159
 271:main.c        ****             {
 1711              		.loc 1 271 0 is_stmt 1
 1712 0096 FFF7FEFF 		bl	Button_S2_Left_State_Read
 1713              	.LVL195:
 1714 009a 58BB     		cbnz	r0, .L160
 271:main.c        ****             {
 1715              		.loc 1 271 0 is_stmt 0 discriminator 1
 1716 009c FFF7FEFF 		bl	Button_S4_Right_State_Read
 1717              	.LVL196:
 1718 00a0 40BB     		cbnz	r0, .L160
 273:main.c        ****                 check_second = current_second();        
 1719              		.loc 1 273 0 is_stmt 1
 1720 00a2 1DA1     		adr	r1, .L171
 1721 00a4 D1E90001 		ldrd	r0, [r1]
 1722 00a8 FFF7FEFF 		bl	BuzzerSound
 1723              	.LVL197:
 274:main.c        ****                 while ((Button_S2_Left_State_Read() == 0) && (Button_S4_Right_State_Read() == 0))
 1724              		.loc 1 274 0
 1725 00ac FFF7FEFF 		bl	current_second
 1726              	.LVL198:
 1727 00b0 0446     		mov	r4, r0
 1728              	.LVL199:
 1729 00b2 0D46     		mov	r5, r1
 1730              	.LVL200:
 275:main.c        ****                 {
 1731              		.loc 1 275 0
 1732 00b4 16E0     		b	.L161
 1733              	.L163:
 277:main.c        ****                     if ((current_second()-check_second)>=1)
 1734              		.loc 1 277 0
 1735 00b6 FFF7FEFF 		bl	runtime
 1736              	.LVL201:
 278:main.c        ****                     {
 1737              		.loc 1 278 0
 1738 00ba FFF7FEFF 		bl	current_second
 1739              	.LVL202:
 1740 00be 2246     		mov	r2, r4
 1741 00c0 2B46     		mov	r3, r5
 1742 00c2 FFF7FEFF 		bl	__aeabi_dsub
 1743              	.LVL203:
 1744 00c6 0022     		movs	r2, #0
 1745 00c8 154B     		ldr	r3, .L171+8
 1746 00ca FFF7FEFF 		bl	__aeabi_dcmpge
 1747              	.LVL204:
 1748 00ce 48B1     		cbz	r0, .L161
 281:main.c        ****                         CyDelay(5);
 1749              		.loc 1 281 0
ARM GAS  C:\Users\ANDREW~1\AppData\Local\Temp\ccxC4OPZ.s 			page 53


 1750 00d0 1648     		ldr	r0, .L171+20
 1751 00d2 FFF7FEFF 		bl	UART_1_PutString
 1752              	.LVL205:
 282:main.c        ****                         mode = 1;
 1753              		.loc 1 282 0
 1754 00d6 0520     		movs	r0, #5
 1755 00d8 FFF7FEFF 		bl	CyDelay
 1756              	.LVL206:
 283:main.c        ****                         break;
 1757              		.loc 1 283 0
 1758 00dc 0122     		movs	r2, #1
 1759 00de 144B     		ldr	r3, .L171+24
 1760 00e0 5A65     		str	r2, [r3, #84]
 284:main.c        ****                     }
 1761              		.loc 1 284 0
 1762 00e2 11E0     		b	.L157
 1763              	.L161:
 275:main.c        ****                 {
 1764              		.loc 1 275 0
 1765 00e4 FFF7FEFF 		bl	Button_S2_Left_State_Read
 1766              	.LVL207:
 1767 00e8 70B9     		cbnz	r0, .L157
 275:main.c        ****                 {
 1768              		.loc 1 275 0 is_stmt 0 discriminator 1
 1769 00ea FFF7FEFF 		bl	Button_S4_Right_State_Read
 1770              	.LVL208:
 1771 00ee 0028     		cmp	r0, #0
 1772 00f0 E1D0     		beq	.L163
 1773 00f2 09E0     		b	.L157
 1774              	.L160:
 290:main.c        ****             {
 1775              		.loc 1 290 0 is_stmt 1
 1776 00f4 FFF7FEFF 		bl	Button_S2_Left_State_Read
 1777              	.LVL209:
 1778 00f8 0128     		cmp	r0, #1
 1779 00fa 05D1     		bne	.L157
 290:main.c        ****             {
 1780              		.loc 1 290 0 is_stmt 0 discriminator 1
 1781 00fc FFF7FEFF 		bl	Button_S4_Right_State_Read
 1782              	.LVL210:
 1783 0100 10B9     		cbnz	r0, .L157
 292:main.c        ****             }
 1784              		.loc 1 292 0 is_stmt 1
 1785 0102 0322     		movs	r2, #3
 1786 0104 0A4B     		ldr	r3, .L171+24
 1787 0106 5A65     		str	r2, [r3, #84]
 1788              	.LVL211:
 1789              	.L157:
 1790              	.LBE16:
 295:main.c        ****         
 1791              		.loc 1 295 0
 1792 0108 FFF7FEFF 		bl	runtime
 1793              	.LVL212:
 1794              	.L149:
 1795              	.LBE15:
 247:main.c        ****         
 1796              		.loc 1 247 0
ARM GAS  C:\Users\ANDREW~1\AppData\Local\Temp\ccxC4OPZ.s 			page 54


 1797 010c 084B     		ldr	r3, .L171+24
 1798 010e 5B6D     		ldr	r3, [r3, #84]
 1799 0110 002B     		cmp	r3, #0
 1800 0112 3FF47BAF 		beq	.L164
 300:main.c        **** 
 1801              		.loc 1 300 0
 1802 0116 F8BD     		pop	{r3, r4, r5, r6, r7, pc}
 1803              	.LVL213:
 1804              	.L172:
 1805              		.align	3
 1806              	.L171:
 1807 0118 9A999999 		.word	-1717986918
 1808 011c 9999C93F 		.word	1070176665
 1809 0120 0000F03F 		.word	1072693248
 1810 0124 000008C0 		.word	-1073217536
 1811 0128 000010C0 		.word	-1072693248
 1812 012c 00000000 		.word	.LC0
 1813 0130 00000000 		.word	.LANCHOR0
 1814              		.cfi_endproc
 1815              	.LFE65:
 1816              		.size	mode_0, .-mode_0
 1817              		.section	.text.SingleButtonWait,"ax",%progbits
 1818              		.align	2
 1819              		.global	SingleButtonWait
 1820              		.thumb
 1821              		.thumb_func
 1822              		.type	SingleButtonWait, %function
 1823              	SingleButtonWait:
 1824              	.LFB71:
 465:main.c        ****     while (Button_S3_Top_State_Read()==0 || Button_S5_Select_State_Read()==0 || Button_S1_Bottom_St
 1825              		.loc 1 465 0
 1826              		.cfi_startproc
 1827              		@ args = 0, pretend = 0, frame = 0
 1828              		@ frame_needed = 0, uses_anonymous_args = 0
 1829 0000 08B5     		push	{r3, lr}
 1830              		.cfi_def_cfa_offset 8
 1831              		.cfi_offset 3, -8
 1832              		.cfi_offset 14, -4
 466:main.c        ****     {
 1833              		.loc 1 466 0
 1834 0002 01E0     		b	.L174
 1835              	.L175:
 468:main.c        ****     }
 1836              		.loc 1 468 0
 1837 0004 FFF7FEFF 		bl	runtime
 1838              	.LVL214:
 1839              	.L174:
 466:main.c        ****     {
 1840              		.loc 1 466 0
 1841 0008 FFF7FEFF 		bl	Button_S3_Top_State_Read
 1842              	.LVL215:
 1843 000c 0028     		cmp	r0, #0
 1844 000e F9D0     		beq	.L175
 466:main.c        ****     {
 1845              		.loc 1 466 0 is_stmt 0 discriminator 1
 1846 0010 FFF7FEFF 		bl	Button_S5_Select_State_Read
 1847              	.LVL216:
ARM GAS  C:\Users\ANDREW~1\AppData\Local\Temp\ccxC4OPZ.s 			page 55


 1848 0014 0028     		cmp	r0, #0
 1849 0016 F5D0     		beq	.L175
 466:main.c        ****     {
 1850              		.loc 1 466 0 discriminator 2
 1851 0018 FFF7FEFF 		bl	Button_S1_Bottom_State_Read
 1852              	.LVL217:
 1853 001c 0028     		cmp	r0, #0
 1854 001e F1D0     		beq	.L175
 470:main.c        **** 
 1855              		.loc 1 470 0 is_stmt 1
 1856 0020 08BD     		pop	{r3, pc}
 1857              		.cfi_endproc
 1858              	.LFE71:
 1859              		.size	SingleButtonWait, .-SingleButtonWait
 1860 0022 00BF     		.section	.text.mode_1,"ax",%progbits
 1861              		.align	2
 1862              		.global	mode_1
 1863              		.thumb
 1864              		.thumb_func
 1865              		.type	mode_1, %function
 1866              	mode_1:
 1867              	.LFB66:
 304:main.c        ****     double previous_second=0;
 1868              		.loc 1 304 0
 1869              		.cfi_startproc
 1870              		@ args = 0, pretend = 0, frame = 0
 1871              		@ frame_needed = 0, uses_anonymous_args = 0
 1872 0000 F8B5     		push	{r3, r4, r5, r6, r7, lr}
 1873              		.cfi_def_cfa_offset 24
 1874              		.cfi_offset 3, -24
 1875              		.cfi_offset 4, -20
 1876              		.cfi_offset 5, -16
 1877              		.cfi_offset 6, -12
 1878              		.cfi_offset 7, -8
 1879              		.cfi_offset 14, -4
 1880              	.LVL218:
 305:main.c        ****     while (mode == 1) {
 1881              		.loc 1 305 0
 1882 0002 0026     		movs	r6, #0
 1883 0004 0027     		movs	r7, #0
 306:main.c        ****        
 1884              		.loc 1 306 0
 1885 0006 55E0     		b	.L178
 1886              	.LVL219:
 1887              	.L188:
 1888              	.LBB17:
 308:main.c        ****         //flash group number
 1889              		.loc 1 308 0
 1890 0008 FFF7FEFF 		bl	runtime
 1891              	.LVL220:
 310:main.c        ****         if (time_diff<=1)
 1892              		.loc 1 310 0
 1893 000c FFF7FEFF 		bl	current_second
 1894              	.LVL221:
 1895 0010 3246     		mov	r2, r6
 1896 0012 3B46     		mov	r3, r7
 1897 0014 FFF7FEFF 		bl	__aeabi_dsub
ARM GAS  C:\Users\ANDREW~1\AppData\Local\Temp\ccxC4OPZ.s 			page 56


 1898              	.LVL222:
 1899 0018 0446     		mov	r4, r0
 1900 001a 0D46     		mov	r5, r1
 1901              	.LVL223:
 311:main.c        ****         {
 1902              		.loc 1 311 0
 1903 001c 0022     		movs	r2, #0
 1904 001e 2A4B     		ldr	r3, .L194+8
 1905 0020 FFF7FEFF 		bl	__aeabi_dcmple
 1906              	.LVL224:
 1907 0024 30B1     		cbz	r0, .L192
 313:main.c        ****             //display_num(200); // group_num
 1908              		.loc 1 313 0
 1909 0026 294B     		ldr	r3, .L194+12
 1910 0028 986D     		ldr	r0, [r3, #88]
 1911 002a FFF7FEFF 		bl	__aeabi_i2d
 1912              	.LVL225:
 1913 002e FFF7FEFF 		bl	display_num
 1914              	.LVL226:
 1915 0032 16E0     		b	.L181
 1916              	.L192:
 316:main.c        ****         {
 1917              		.loc 1 316 0
 1918 0034 0022     		movs	r2, #0
 1919 0036 244B     		ldr	r3, .L194+8
 1920 0038 2046     		mov	r0, r4
 1921 003a 2946     		mov	r1, r5
 1922 003c FFF7FEFF 		bl	__aeabi_dcmpgt
 1923              	.LVL227:
 1924 0040 58B1     		cbz	r0, .L182
 316:main.c        ****         {
 1925              		.loc 1 316 0 is_stmt 0 discriminator 1
 1926 0042 0022     		movs	r2, #0
 1927 0044 224B     		ldr	r3, .L194+16
 1928 0046 2046     		mov	r0, r4
 1929 0048 2946     		mov	r1, r5
 1930 004a FFF7FEFF 		bl	__aeabi_dcmple
 1931              	.LVL228:
 1932 004e 20B1     		cbz	r0, .L182
 318:main.c        ****         }
 1933              		.loc 1 318 0 is_stmt 1
 1934 0050 0020     		movs	r0, #0
 1935 0052 2049     		ldr	r1, .L194+20
 1936 0054 FFF7FEFF 		bl	display_num
 1937              	.LVL229:
 1938 0058 03E0     		b	.L181
 1939              	.L182:
 322:main.c        ****         }
 1940              		.loc 1 322 0
 1941 005a FFF7FEFF 		bl	current_second
 1942              	.LVL230:
 1943 005e 0646     		mov	r6, r0
 1944              	.LVL231:
 1945 0060 0F46     		mov	r7, r1
 1946              	.LVL232:
 1947              	.L181:
 327:main.c        ****         {
ARM GAS  C:\Users\ANDREW~1\AppData\Local\Temp\ccxC4OPZ.s 			page 57


 1948              		.loc 1 327 0
 1949 0062 FFF7FEFF 		bl	Button_S5_Select_State_Read
 1950              	.LVL233:
 1951 0066 48B9     		cbnz	r0, .L185
 329:main.c        ****             BuzzerSound(0.2);
 1952              		.loc 1 329 0
 1953 0068 FFF7FEFF 		bl	SingleButtonWait
 1954              	.LVL234:
 330:main.c        ****             mode = 2;
 1955              		.loc 1 330 0
 1956 006c 14A1     		adr	r1, .L194
 1957 006e D1E90001 		ldrd	r0, [r1]
 1958 0072 FFF7FEFF 		bl	BuzzerSound
 1959              	.LVL235:
 331:main.c        ****         }
 1960              		.loc 1 331 0
 1961 0076 0222     		movs	r2, #2
 1962 0078 144B     		ldr	r3, .L194+12
 1963 007a 5A65     		str	r2, [r3, #84]
 1964              	.L185:
 334:main.c        ****         {
 1965              		.loc 1 334 0
 1966 007c FFF7FEFF 		bl	Button_S3_Top_State_Read
 1967              	.LVL236:
 1968 0080 50B9     		cbnz	r0, .L186
 336:main.c        ****             BuzzerSound(0.2);
 1969              		.loc 1 336 0
 1970 0082 FFF7FEFF 		bl	SingleButtonWait
 1971              	.LVL237:
 337:main.c        ****             group_num ++;
 1972              		.loc 1 337 0
 1973 0086 0EA1     		adr	r1, .L194
 1974 0088 D1E90001 		ldrd	r0, [r1]
 1975 008c FFF7FEFF 		bl	BuzzerSound
 1976              	.LVL238:
 338:main.c        ****         }
 1977              		.loc 1 338 0
 1978 0090 0E4A     		ldr	r2, .L194+12
 1979 0092 936D     		ldr	r3, [r2, #88]
 1980 0094 0133     		adds	r3, r3, #1
 1981 0096 9365     		str	r3, [r2, #88]
 1982              	.L186:
 341:main.c        ****         {
 1983              		.loc 1 341 0
 1984 0098 FFF7FEFF 		bl	Button_S1_Bottom_State_Read
 1985              	.LVL239:
 1986 009c 50B9     		cbnz	r0, .L178
 343:main.c        ****             BuzzerSound(0.2);
 1987              		.loc 1 343 0
 1988 009e FFF7FEFF 		bl	SingleButtonWait
 1989              	.LVL240:
 344:main.c        ****             group_num --;
 1990              		.loc 1 344 0
 1991 00a2 07A1     		adr	r1, .L194
 1992 00a4 D1E90001 		ldrd	r0, [r1]
 1993 00a8 FFF7FEFF 		bl	BuzzerSound
 1994              	.LVL241:
ARM GAS  C:\Users\ANDREW~1\AppData\Local\Temp\ccxC4OPZ.s 			page 58


 345:main.c        ****         }
 1995              		.loc 1 345 0
 1996 00ac 074A     		ldr	r2, .L194+12
 1997 00ae 936D     		ldr	r3, [r2, #88]
 1998 00b0 013B     		subs	r3, r3, #1
 1999 00b2 9365     		str	r3, [r2, #88]
 2000              	.LVL242:
 2001              	.L178:
 2002              	.LBE17:
 306:main.c        ****        
 2003              		.loc 1 306 0
 2004 00b4 054B     		ldr	r3, .L194+12
 2005 00b6 5B6D     		ldr	r3, [r3, #84]
 2006 00b8 012B     		cmp	r3, #1
 2007 00ba A5D0     		beq	.L188
 348:main.c        **** 
 2008              		.loc 1 348 0
 2009 00bc F8BD     		pop	{r3, r4, r5, r6, r7, pc}
 2010              	.LVL243:
 2011              	.L195:
 2012 00be 00BF     		.align	3
 2013              	.L194:
 2014 00c0 9A999999 		.word	-1717986918
 2015 00c4 9999C93F 		.word	1070176665
 2016 00c8 0000F03F 		.word	1072693248
 2017 00cc 00000000 		.word	.LANCHOR0
 2018 00d0 0000F83F 		.word	1073217536
 2019 00d4 000010C0 		.word	-1072693248
 2020              		.cfi_endproc
 2021              	.LFE66:
 2022              		.size	mode_1, .-mode_1
 2023              		.section	.text.mode_2,"ax",%progbits
 2024              		.align	2
 2025              		.global	mode_2
 2026              		.thumb
 2027              		.thumb_func
 2028              		.type	mode_2, %function
 2029              	mode_2:
 2030              	.LFB67:
 352:main.c        ****     while (mode == 2)
 2031              		.loc 1 352 0
 2032              		.cfi_startproc
 2033              		@ args = 0, pretend = 0, frame = 0
 2034              		@ frame_needed = 0, uses_anonymous_args = 0
 2035 0000 08B5     		push	{r3, lr}
 2036              		.cfi_def_cfa_offset 8
 2037              		.cfi_offset 3, -8
 2038              		.cfi_offset 14, -4
 353:main.c        ****     {
 2039              		.loc 1 353 0
 2040 0002 3DE0     		b	.L202
 2041              	.L203:
 355:main.c        ****         
 2042              		.loc 1 355 0
 2043 0004 FFF7FEFF 		bl	runtime
 2044              	.LVL244:
 358:main.c        ****         if (cm_or_inch =='i') display_num(-2);
ARM GAS  C:\Users\ANDREW~1\AppData\Local\Temp\ccxC4OPZ.s 			page 59


 2045              		.loc 1 358 0
 2046 0008 254B     		ldr	r3, .L205+8
 2047 000a 1B78     		ldrb	r3, [r3]	@ zero_extendqisi2
 2048 000c 632B     		cmp	r3, #99
 2049 000e 03D1     		bne	.L198
 358:main.c        ****         if (cm_or_inch =='i') display_num(-2);
 2050              		.loc 1 358 0 is_stmt 0 discriminator 1
 2051 0010 0020     		movs	r0, #0
 2052 0012 2449     		ldr	r1, .L205+12
 2053 0014 FFF7FEFF 		bl	display_num
 2054              	.LVL245:
 2055              	.L198:
 359:main.c        ****         
 2056              		.loc 1 359 0 is_stmt 1
 2057 0018 214B     		ldr	r3, .L205+8
 2058 001a 1B78     		ldrb	r3, [r3]	@ zero_extendqisi2
 2059 001c 692B     		cmp	r3, #105
 2060 001e 04D1     		bne	.L199
 359:main.c        ****         
 2061              		.loc 1 359 0 is_stmt 0 discriminator 1
 2062 0020 0020     		movs	r0, #0
 2063 0022 4FF04041 		mov	r1, #-1073741824
 2064 0026 FFF7FEFF 		bl	display_num
 2065              	.LVL246:
 2066              	.L199:
 363:main.c        ****         {
 2067              		.loc 1 363 0 is_stmt 1
 2068 002a FFF7FEFF 		bl	Button_S5_Select_State_Read
 2069              	.LVL247:
 2070 002e 48B9     		cbnz	r0, .L200
 365:main.c        ****             BuzzerSound(0.2);
 2071              		.loc 1 365 0
 2072 0030 FFF7FEFF 		bl	SingleButtonWait
 2073              	.LVL248:
 366:main.c        ****             mode = 0;
 2074              		.loc 1 366 0
 2075 0034 18A1     		adr	r1, .L205
 2076 0036 D1E90001 		ldrd	r0, [r1]
 2077 003a FFF7FEFF 		bl	BuzzerSound
 2078              	.LVL249:
 367:main.c        ****         }
 2079              		.loc 1 367 0
 2080 003e 0022     		movs	r2, #0
 2081 0040 194B     		ldr	r3, .L205+16
 2082 0042 5A65     		str	r2, [r3, #84]
 2083              	.L200:
 370:main.c        ****         {
 2084              		.loc 1 370 0
 2085 0044 FFF7FEFF 		bl	Button_S3_Top_State_Read
 2086              	.LVL250:
 2087 0048 58B9     		cbnz	r0, .L201
 372:main.c        ****             BuzzerSound(0.2);
 2088              		.loc 1 372 0
 2089 004a FFF7FEFF 		bl	SingleButtonWait
 2090              	.LVL251:
 373:main.c        ****             MetricLedOn();
 2091              		.loc 1 373 0
ARM GAS  C:\Users\ANDREW~1\AppData\Local\Temp\ccxC4OPZ.s 			page 60


 2092 004e 12A1     		adr	r1, .L205
 2093 0050 D1E90001 		ldrd	r0, [r1]
 2094 0054 FFF7FEFF 		bl	BuzzerSound
 2095              	.LVL252:
 374:main.c        ****             
 2096              		.loc 1 374 0
 2097 0058 FFF7FEFF 		bl	MetricLedOn
 2098              	.LVL253:
 376:main.c        ****         }
 2099              		.loc 1 376 0
 2100 005c 6322     		movs	r2, #99
 2101 005e 104B     		ldr	r3, .L205+8
 2102 0060 1A70     		strb	r2, [r3]
 2103              	.L201:
 379:main.c        ****         {
 2104              		.loc 1 379 0
 2105 0062 FFF7FEFF 		bl	Button_S1_Bottom_State_Read
 2106              	.LVL254:
 2107 0066 58B9     		cbnz	r0, .L202
 381:main.c        ****             BuzzerSound(0.2);
 2108              		.loc 1 381 0
 2109 0068 FFF7FEFF 		bl	SingleButtonWait
 2110              	.LVL255:
 382:main.c        ****             ImperialLedOn();
 2111              		.loc 1 382 0
 2112 006c 0AA1     		adr	r1, .L205
 2113 006e D1E90001 		ldrd	r0, [r1]
 2114 0072 FFF7FEFF 		bl	BuzzerSound
 2115              	.LVL256:
 383:main.c        ****             
 2116              		.loc 1 383 0
 2117 0076 FFF7FEFF 		bl	ImperialLedOn
 2118              	.LVL257:
 385:main.c        ****             
 2119              		.loc 1 385 0
 2120 007a 6922     		movs	r2, #105
 2121 007c 084B     		ldr	r3, .L205+8
 2122 007e 1A70     		strb	r2, [r3]
 2123              	.L202:
 353:main.c        ****     {
 2124              		.loc 1 353 0
 2125 0080 094B     		ldr	r3, .L205+16
 2126 0082 5B6D     		ldr	r3, [r3, #84]
 2127 0084 022B     		cmp	r3, #2
 2128 0086 BDD0     		beq	.L203
 391:main.c        **** 
 2129              		.loc 1 391 0
 2130 0088 0421     		movs	r1, #4
 2131 008a 054B     		ldr	r3, .L205+8
 2132 008c 1878     		ldrb	r0, [r3]	@ zero_extendqisi2
 2133 008e FFF7FEFF 		bl	EEPROM_WriteByte
 2134              	.LVL258:
 2135 0092 08BD     		pop	{r3, pc}
 2136              	.L206:
 2137 0094 AFF30080 		.align	3
 2138              	.L205:
 2139 0098 9A999999 		.word	-1717986918
ARM GAS  C:\Users\ANDREW~1\AppData\Local\Temp\ccxC4OPZ.s 			page 61


 2140 009c 9999C93F 		.word	1070176665
 2141 00a0 00000000 		.word	cm_or_inch
 2142 00a4 0000F0BF 		.word	-1074790400
 2143 00a8 00000000 		.word	.LANCHOR0
 2144              		.cfi_endproc
 2145              	.LFE67:
 2146              		.size	mode_2, .-mode_2
 2147              		.section	.text.DoubleButtonWait,"ax",%progbits
 2148              		.align	2
 2149              		.global	DoubleButtonWait
 2150              		.thumb
 2151              		.thumb_func
 2152              		.type	DoubleButtonWait, %function
 2153              	DoubleButtonWait:
 2154              	.LFB72:
 473:main.c        ****     while (Button_S5_Select_State_Read() == 0 && Button_S2_Left_State_Read() == 0)
 2155              		.loc 1 473 0
 2156              		.cfi_startproc
 2157              		@ args = 0, pretend = 0, frame = 0
 2158              		@ frame_needed = 0, uses_anonymous_args = 0
 2159 0000 08B5     		push	{r3, lr}
 2160              		.cfi_def_cfa_offset 8
 2161              		.cfi_offset 3, -8
 2162              		.cfi_offset 14, -4
 474:main.c        ****     {
 2163              		.loc 1 474 0
 2164 0002 01E0     		b	.L208
 2165              	.L210:
 476:main.c        ****     }
 2166              		.loc 1 476 0
 2167 0004 FFF7FEFF 		bl	runtime
 2168              	.LVL259:
 2169              	.L208:
 474:main.c        ****     {
 2170              		.loc 1 474 0
 2171 0008 FFF7FEFF 		bl	Button_S5_Select_State_Read
 2172              	.LVL260:
 2173 000c 18B9     		cbnz	r0, .L207
 474:main.c        ****     {
 2174              		.loc 1 474 0 is_stmt 0 discriminator 1
 2175 000e FFF7FEFF 		bl	Button_S2_Left_State_Read
 2176              	.LVL261:
 2177 0012 0028     		cmp	r0, #0
 2178 0014 F6D0     		beq	.L210
 2179              	.L207:
 2180 0016 08BD     		pop	{r3, pc}
 2181              		.cfi_endproc
 2182              	.LFE72:
 2183              		.size	DoubleButtonWait, .-DoubleButtonWait
 2184              		.section	.text.ultra_reading,"ax",%progbits
 2185              		.align	2
 2186              		.global	ultra_reading
 2187              		.thumb
 2188              		.thumb_func
 2189              		.type	ultra_reading, %function
 2190              	ultra_reading:
 2191              	.LFB84:
ARM GAS  C:\Users\ANDREW~1\AppData\Local\Temp\ccxC4OPZ.s 			page 62


 694:main.c        ****     isr_6_ClearPending();
 2192              		.loc 1 694 0 is_stmt 1
 2193              		.cfi_startproc
 2194              		@ args = 0, pretend = 0, frame = 0
 2195              		@ frame_needed = 0, uses_anonymous_args = 0
 2196 0000 38B5     		push	{r3, r4, r5, lr}
 2197              		.cfi_def_cfa_offset 16
 2198              		.cfi_offset 3, -16
 2199              		.cfi_offset 4, -12
 2200              		.cfi_offset 5, -8
 2201              		.cfi_offset 14, -4
 695:main.c        ****     isr_6_StartEx(Receive_Ultra);  
 2202              		.loc 1 695 0
 2203 0002 FFF7FEFF 		bl	isr_6_ClearPending
 2204              	.LVL262:
 696:main.c        ****     
 2205              		.loc 1 696 0
 2206 0006 2248     		ldr	r0, .L216+8
 2207 0008 FFF7FEFF 		bl	isr_6_StartEx
 2208              	.LVL263:
 699:main.c        ****     CyDelayUs(150);
 2209              		.loc 1 699 0
 2210 000c 0120     		movs	r0, #1
 2211 000e FFF7FEFF 		bl	Control_Reg_1_Write
 2212              	.LVL264:
 700:main.c        ****     Control_Reg_1_Write(0);
 2213              		.loc 1 700 0
 2214 0012 9620     		movs	r0, #150
 2215 0014 FFF7FEFF 		bl	CyDelayUs
 2216              	.LVL265:
 701:main.c        ****     
 2217              		.loc 1 701 0
 2218 0018 0020     		movs	r0, #0
 2219 001a FFF7FEFF 		bl	Control_Reg_1_Write
 2220              	.LVL266:
 703:main.c        ****     waiting_ultra =1;
 2221              		.loc 1 703 0
 2222 001e FFF7FEFF 		bl	Timer_1_Start
 2223              	.LVL267:
 704:main.c        ****     
 2224              		.loc 1 704 0
 2225 0022 0122     		movs	r2, #1
 2226 0024 1B4B     		ldr	r3, .L216+12
 2227 0026 9A60     		str	r2, [r3, #8]
 709:main.c        ****     double time_diff = current_second()-previous_ultra_second;
 2228              		.loc 1 709 0
 2229 0028 FFF7FEFF 		bl	current_second
 2230              	.LVL268:
 2231 002c 0446     		mov	r4, r0
 2232 002e 0D46     		mov	r5, r1
 2233              	.LVL269:
 710:main.c        ****     
 2234              		.loc 1 710 0
 2235 0030 FFF7FEFF 		bl	current_second
 2236              	.LVL270:
 712:main.c        ****     {
 2237              		.loc 1 712 0
ARM GAS  C:\Users\ANDREW~1\AppData\Local\Temp\ccxC4OPZ.s 			page 63


 2238 0034 01E0     		b	.L213
 2239              	.L214:
 715:main.c        ****     }
 2240              		.loc 1 715 0
 2241 0036 FFF7FEFF 		bl	runtime
 2242              	.LVL271:
 2243              	.L213:
 712:main.c        ****     {
 2244              		.loc 1 712 0
 2245 003a FFF7FEFF 		bl	current_second
 2246              	.LVL272:
 2247 003e 2246     		mov	r2, r4
 2248 0040 2B46     		mov	r3, r5
 2249 0042 FFF7FEFF 		bl	__aeabi_dsub
 2250              	.LVL273:
 2251 0046 0022     		movs	r2, #0
 2252 0048 134B     		ldr	r3, .L216+16
 2253 004a FFF7FEFF 		bl	__aeabi_dmul
 2254              	.LVL274:
 2255 004e 0022     		movs	r2, #0
 2256 0050 124B     		ldr	r3, .L216+20
 2257 0052 FFF7FEFF 		bl	__aeabi_dcmple
 2258              	.LVL275:
 2259 0056 0028     		cmp	r0, #0
 2260 0058 EDD1     		bne	.L214
 728:main.c        ****     distance = (34*value)/2;
 2261              		.loc 1 728 0
 2262 005a 0E4C     		ldr	r4, .L216+12
 2263              	.LVL276:
 2264 005c 6068     		ldr	r0, [r4, #4]
 2265 005e FFF7FEFF 		bl	__aeabi_i2d
 2266              	.LVL277:
 2267 0062 09A3     		adr	r3, .L216
 2268 0064 D3E90023 		ldrd	r2, [r3]
 2269 0068 FFF7FEFF 		bl	__aeabi_ddiv
 2270              	.LVL278:
 729:main.c        ****     
 2271              		.loc 1 729 0
 2272 006c 0022     		movs	r2, #0
 2273 006e 0C4B     		ldr	r3, .L216+24
 2274 0070 FFF7FEFF 		bl	__aeabi_dmul
 2275              	.LVL279:
 2276 0074 0022     		movs	r2, #0
 2277 0076 0B4B     		ldr	r3, .L216+28
 2278 0078 FFF7FEFF 		bl	__aeabi_dmul
 2279              	.LVL280:
 2280 007c C4E91801 		strd	r0, [r4, #96]
 732:main.c        **** void send_ultra_pulse()
 2281              		.loc 1 732 0
 2282 0080 38BD     		pop	{r3, r4, r5, pc}
 2283              	.L217:
 2284 0082 00BFAFF3 		.align	3
 2284      0080
 2285              	.L216:
 2286 0088 00000000 		.word	0
 2287 008c 0088C340 		.word	1086556160
 2288 0090 00000000 		.word	Receive_Ultra
ARM GAS  C:\Users\ANDREW~1\AppData\Local\Temp\ccxC4OPZ.s 			page 64


 2289 0094 00000000 		.word	.LANCHOR0
 2290 0098 00408F40 		.word	1083129856
 2291 009c 00002440 		.word	1076101120
 2292 00a0 00004140 		.word	1078001664
 2293 00a4 0000E03F 		.word	1071644672
 2294              		.cfi_endproc
 2295              	.LFE84:
 2296              		.size	ultra_reading, .-ultra_reading
 2297              		.global	__aeabi_dadd
 2298              		.section	.text.ultra_avg,"ax",%progbits
 2299              		.align	2
 2300              		.global	ultra_avg
 2301              		.thumb
 2302              		.thumb_func
 2303              		.type	ultra_avg, %function
 2304              	ultra_avg:
 2305              	.LFB83:
 612:main.c        ****  
 2306              		.loc 1 612 0
 2307              		.cfi_startproc
 2308              		@ args = 0, pretend = 0, frame = 560
 2309              		@ frame_needed = 0, uses_anonymous_args = 0
 2310 0000 2DE9F04F 		push	{r4, r5, r6, r7, r8, r9, r10, fp, lr}
 2311              		.cfi_def_cfa_offset 36
 2312              		.cfi_offset 4, -36
 2313              		.cfi_offset 5, -32
 2314              		.cfi_offset 6, -28
 2315              		.cfi_offset 7, -24
 2316              		.cfi_offset 8, -20
 2317              		.cfi_offset 9, -16
 2318              		.cfi_offset 10, -12
 2319              		.cfi_offset 11, -8
 2320              		.cfi_offset 14, -4
 2321 0004 ADF50D7D 		sub	sp, sp, #564
 2322              		.cfi_def_cfa_offset 600
 616:main.c        ****     float count_median[20] = {0,0,0,0,0,0,0,0,0,0,0,0,0,0,0,0,0,0,0,0};
 2323              		.loc 1 616 0
 2324 0008 2822     		movs	r2, #40
 2325 000a 0021     		movs	r1, #0
 2326 000c 82A8     		add	r0, sp, #520
 2327 000e FFF7FEFF 		bl	memset
 2328              	.LVL281:
 617:main.c        ****     double predicted_dist;
 2329              		.loc 1 617 0
 2330 0012 5022     		movs	r2, #80
 2331 0014 0021     		movs	r1, #0
 2332 0016 6EA8     		add	r0, sp, #440
 2333 0018 FFF7FEFF 		bl	memset
 2334              	.LVL282:
 2335              	.LBB18:
 623:main.c        ****     {
 2336              		.loc 1 623 0
 2337 001c 0026     		movs	r6, #0
 2338 001e 1CE0     		b	.L219
 2339              	.LVL283:
 2340              	.L222:
 629:main.c        ****         for (int i = 0; i < 10; i++) 
ARM GAS  C:\Users\ANDREW~1\AppData\Local\Temp\ccxC4OPZ.s 			page 65


 2341              		.loc 1 629 0
 2342 0020 384B     		ldr	r3, .L226
 2343 0022 D3E90601 		ldrd	r0, [r3, #24]
 2344 0026 FFF7FEFF 		bl	BuzzerRuntime
 2345              	.LVL284:
 2346              	.LBB19:
 630:main.c        ****         {    
 2347              		.loc 1 630 0
 2348 002a 0024     		movs	r4, #0
 2349 002c 09E0     		b	.L220
 2350              	.LVL285:
 2351              	.L221:
 636:main.c        ****         }
 2352              		.loc 1 636 0 discriminator 3
 2353 002e FFF7FEFF 		bl	ultra_reading
 2354              	.LVL286:
 2355 0032 8CAB     		add	r3, sp, #560
 2356 0034 03EB8405 		add	r5, r3, r4, lsl #2
 2357 0038 FFF7FEFF 		bl	__aeabi_d2f
 2358              	.LVL287:
 2359 003c 45F8280C 		str	r0, [r5, #-40]	@ float
 630:main.c        ****         {    
 2360              		.loc 1 630 0 discriminator 3
 2361 0040 0134     		adds	r4, r4, #1
 2362              	.LVL288:
 2363              	.L220:
 630:main.c        ****         {    
 2364              		.loc 1 630 0 is_stmt 0 discriminator 1
 2365 0042 092C     		cmp	r4, #9
 2366 0044 F3DD     		ble	.L221
 2367              	.LBE19:
 641:main.c        ****     }
 2368              		.loc 1 641 0 is_stmt 1 discriminator 2
 2369 0046 0A21     		movs	r1, #10
 2370 0048 82A8     		add	r0, sp, #520
 2371 004a FFF7FEFF 		bl	find_median
 2372              	.LVL289:
 2373 004e 8CAB     		add	r3, sp, #560
 2374 0050 03EB8603 		add	r3, r3, r6, lsl #2
 2375 0054 43F8780C 		str	r0, [r3, #-120]	@ float
 623:main.c        ****     {
 2376              		.loc 1 623 0 discriminator 2
 2377 0058 0136     		adds	r6, r6, #1
 2378              	.LVL290:
 2379              	.L219:
 623:main.c        ****     {
 2380              		.loc 1 623 0 is_stmt 0 discriminator 1
 2381 005a 132E     		cmp	r6, #19
 2382 005c E0DD     		ble	.L222
 2383              	.LBE18:
 644:main.c        ****     
 2384              		.loc 1 644 0 is_stmt 1
 2385 005e 1421     		movs	r1, #20
 2386 0060 6EA8     		add	r0, sp, #440
 2387 0062 FFF7FEFF 		bl	find_median
 2388              	.LVL291:
 2389 0066 FFF7FEFF 		bl	__aeabi_f2d
ARM GAS  C:\Users\ANDREW~1\AppData\Local\Temp\ccxC4OPZ.s 			page 66


 2390              	.LVL292:
 2391 006a 0646     		mov	r6, r0
 2392              	.LVL293:
 2393 006c 0F46     		mov	r7, r1
 2394              	.LVL294:
 675:main.c        ****     
 2395              		.loc 1 675 0
 2396 006e 3722     		movs	r2, #55
 2397 0070 6946     		mov	r1, sp
 2398 0072 0520     		movs	r0, #5
 2399 0074 FFF7FEFF 		bl	readDoubleArrayFromEEPROM
 2400              	.LVL295:
 678:main.c        ****     while(value > B[index])
 2401              		.loc 1 678 0
 2402 0078 4FF00008 		mov	r8, #0
 679:main.c        ****     {
 2403              		.loc 1 679 0
 2404 007c 01E0     		b	.L223
 2405              	.LVL296:
 2406              	.L224:
 681:main.c        ****     }
 2407              		.loc 1 681 0
 2408 007e 08F10108 		add	r8, r8, #1
 2409              	.LVL297:
 2410              	.L223:
 679:main.c        ****     {
 2411              		.loc 1 679 0
 2412 0082 0DEBC803 		add	r3, sp, r8, lsl #3
 2413 0086 D3E90045 		ldrd	r4, [r3]
 2414 008a 2246     		mov	r2, r4
 2415 008c 2B46     		mov	r3, r5
 2416 008e 3046     		mov	r0, r6
 2417 0090 3946     		mov	r1, r7
 2418 0092 FFF7FEFF 		bl	__aeabi_dcmpgt
 2419              	.LVL298:
 2420 0096 0028     		cmp	r0, #0
 2421 0098 F1D1     		bne	.L224
 684:main.c        ****     double precentage = (value -  B[index-1]) / (B[index]-B[index-1]);
 2422              		.loc 1 684 0
 2423 009a 08F1FF38 		add	r8, r8, #-1
 2424              	.LVL299:
 2425 009e 4046     		mov	r0, r8
 2426 00a0 FFF7FEFF 		bl	__aeabi_i2d
 2427              	.LVL300:
 2428 00a4 0022     		movs	r2, #0
 2429 00a6 184B     		ldr	r3, .L226+4
 2430 00a8 FFF7FEFF 		bl	__aeabi_dmul
 2431              	.LVL301:
 2432 00ac 0022     		movs	r2, #0
 2433 00ae 174B     		ldr	r3, .L226+8
 2434 00b0 FFF7FEFF 		bl	__aeabi_dadd
 2435              	.LVL302:
 2436 00b4 8246     		mov	r10, r0
 2437 00b6 8B46     		mov	fp, r1
 2438              	.LVL303:
 685:main.c        ****     actual_dist = precentage*0.5 + actual;
 2439              		.loc 1 685 0
ARM GAS  C:\Users\ANDREW~1\AppData\Local\Temp\ccxC4OPZ.s 			page 67


 2440 00b8 0DEBC808 		add	r8, sp, r8, lsl #3
 2441              	.LVL304:
 2442 00bc 98E80003 		ldmia	r8, {r8-r9}
 2443 00c0 4246     		mov	r2, r8
 2444 00c2 4B46     		mov	r3, r9
 2445 00c4 3046     		mov	r0, r6
 2446 00c6 3946     		mov	r1, r7
 2447 00c8 FFF7FEFF 		bl	__aeabi_dsub
 2448              	.LVL305:
 2449 00cc 0646     		mov	r6, r0
 2450              	.LVL306:
 2451 00ce 0F46     		mov	r7, r1
 2452 00d0 4246     		mov	r2, r8
 2453 00d2 4B46     		mov	r3, r9
 2454 00d4 2046     		mov	r0, r4
 2455 00d6 2946     		mov	r1, r5
 2456 00d8 FFF7FEFF 		bl	__aeabi_dsub
 2457              	.LVL307:
 2458 00dc 0246     		mov	r2, r0
 2459 00de 0B46     		mov	r3, r1
 2460 00e0 3046     		mov	r0, r6
 2461 00e2 3946     		mov	r1, r7
 2462 00e4 FFF7FEFF 		bl	__aeabi_ddiv
 2463              	.LVL308:
 686:main.c        ****     
 2464              		.loc 1 686 0
 2465 00e8 0022     		movs	r2, #0
 2466 00ea 074B     		ldr	r3, .L226+4
 2467 00ec FFF7FEFF 		bl	__aeabi_dmul
 2468              	.LVL309:
 2469 00f0 0246     		mov	r2, r0
 2470 00f2 0B46     		mov	r3, r1
 2471 00f4 5046     		mov	r0, r10
 2472 00f6 5946     		mov	r1, fp
 2473 00f8 FFF7FEFF 		bl	__aeabi_dadd
 2474              	.LVL310:
 691:main.c        **** 
 2475              		.loc 1 691 0
 2476 00fc 0DF50D7D 		add	sp, sp, #564
 2477              		.cfi_def_cfa_offset 36
 2478              		@ sp needed
 2479 0100 BDE8F08F 		pop	{r4, r5, r6, r7, r8, r9, r10, fp, pc}
 2480              	.LVL311:
 2481              	.L227:
 2482              		.align	2
 2483              	.L226:
 2484 0104 00000000 		.word	.LANCHOR0
 2485 0108 0000E03F 		.word	1071644672
 2486 010c 00000840 		.word	1074266112
 2487              		.cfi_endproc
 2488              	.LFE83:
 2489              		.size	ultra_avg, .-ultra_avg
 2490              		.section	.text.mode_3,"ax",%progbits
 2491              		.align	2
 2492              		.global	mode_3
 2493              		.thumb
 2494              		.thumb_func
ARM GAS  C:\Users\ANDREW~1\AppData\Local\Temp\ccxC4OPZ.s 			page 68


 2495              		.type	mode_3, %function
 2496              	mode_3:
 2497              	.LFB68:
 397:main.c        ****    
 2498              		.loc 1 397 0
 2499              		.cfi_startproc
 2500              		@ args = 0, pretend = 0, frame = 0
 2501              		@ frame_needed = 0, uses_anonymous_args = 0
 2502 0000 D0B5     		push	{r4, r6, r7, lr}
 2503              		.cfi_def_cfa_offset 16
 2504              		.cfi_offset 4, -16
 2505              		.cfi_offset 6, -12
 2506              		.cfi_offset 7, -8
 2507              		.cfi_offset 14, -4
 2508              	.LVL312:
 399:main.c        ****     double previous_second;
 2509              		.loc 1 399 0
 2510 0002 0124     		movs	r4, #1
 401:main.c        ****     {
 2511              		.loc 1 401 0
 2512 0004 3DE0     		b	.L229
 2513              	.LVL313:
 2514              	.L235:
 404:main.c        ****         {
 2515              		.loc 1 404 0
 2516 0006 0CB3     		cbz	r4, .L230
 407:main.c        ****             distance = ultra_avg();
 2517              		.loc 1 407 0
 2518 0008 21A1     		adr	r1, .L238
 2519 000a D1E90001 		ldrd	r0, [r1]
 2520 000e FFF7FEFF 		bl	BuzzerSound
 2521              	.LVL314:
 408:main.c        ****             
 2522              		.loc 1 408 0
 2523 0012 FFF7FEFF 		bl	ultra_avg
 2524              	.LVL315:
 2525 0016 224B     		ldr	r3, .L238+16
 2526 0018 C3E91801 		strd	r0, [r3, #96]
 410:main.c        ****             
 2527              		.loc 1 410 0
 2528 001c FFF7FEFF 		bl	current_second
 2529              	.LVL316:
 2530 0020 0646     		mov	r6, r0
 2531              	.LVL317:
 2532 0022 0F46     		mov	r7, r1
 2533              	.LVL318:
 419:main.c        ****             display_num(distance);
 2534              		.loc 1 419 0
 2535 0024 1F4B     		ldr	r3, .L238+20
 2536 0026 1B78     		ldrb	r3, [r3]	@ zero_extendqisi2
 2537 0028 692B     		cmp	r3, #105
 2538 002a 09D1     		bne	.L231
 419:main.c        ****             display_num(distance);
 2539              		.loc 1 419 0 is_stmt 0 discriminator 1
 2540 002c 1C4C     		ldr	r4, .L238+16
 2541 002e 1AA3     		adr	r3, .L238+8
 2542 0030 D3E90023 		ldrd	r2, [r3]
ARM GAS  C:\Users\ANDREW~1\AppData\Local\Temp\ccxC4OPZ.s 			page 69


 2543 0034 D4E91801 		ldrd	r0, [r4, #96]
 2544 0038 FFF7FEFF 		bl	__aeabi_ddiv
 2545              	.LVL319:
 2546 003c C4E91801 		strd	r0, [r4, #96]
 2547              	.L231:
 420:main.c        ****         }
 2548              		.loc 1 420 0 is_stmt 1
 2549 0040 174B     		ldr	r3, .L238+16
 2550 0042 D3E91801 		ldrd	r0, [r3, #96]
 2551 0046 FFF7FEFF 		bl	display_num
 2552              	.LVL320:
 413:main.c        ****             
 2553              		.loc 1 413 0
 2554 004a 0024     		movs	r4, #0
 2555              	.LVL321:
 2556              	.L230:
 423:main.c        ****        
 2557              		.loc 1 423 0
 2558 004c FFF7FEFF 		bl	runtime
 2559              	.LVL322:
 426:main.c        ****         {
 2560              		.loc 1 426 0
 2561 0050 FFF7FEFF 		bl	current_second
 2562              	.LVL323:
 2563 0054 3246     		mov	r2, r6
 2564 0056 3B46     		mov	r3, r7
 2565 0058 FFF7FEFF 		bl	__aeabi_dsub
 2566              	.LVL324:
 2567 005c 0022     		movs	r2, #0
 2568 005e 4FF08043 		mov	r3, #1073741824
 2569 0062 FFF7FEFF 		bl	__aeabi_dcmpge
 2570              	.LVL325:
 2571 0066 60B1     		cbz	r0, .L229
 430:main.c        ****             {
 2572              		.loc 1 430 0
 2573 0068 FFF7FEFF 		bl	Button_S4_Right_State_Read
 2574              	.LVL326:
 2575 006c 30B9     		cbnz	r0, .L234
 433:main.c        ****                 flag_read=1;
 2576              		.loc 1 433 0
 2577 006e 08A1     		adr	r1, .L238
 2578 0070 D1E90001 		ldrd	r0, [r1]
 2579 0074 FFF7FEFF 		bl	BuzzerSound
 2580              	.LVL327:
 434:main.c        ****             }
 2581              		.loc 1 434 0
 2582 0078 0124     		movs	r4, #1
 2583 007a 02E0     		b	.L229
 2584              	.LVL328:
 2585              	.L234:
 438:main.c        ****             }
 2586              		.loc 1 438 0
 2587 007c 0022     		movs	r2, #0
 2588 007e 084B     		ldr	r3, .L238+16
 2589 0080 5A65     		str	r2, [r3, #84]
 2590              	.LVL329:
 2591              	.L229:
ARM GAS  C:\Users\ANDREW~1\AppData\Local\Temp\ccxC4OPZ.s 			page 70


 401:main.c        ****     {
 2592              		.loc 1 401 0
 2593 0082 074B     		ldr	r3, .L238+16
 2594 0084 5B6D     		ldr	r3, [r3, #84]
 2595 0086 032B     		cmp	r3, #3
 2596 0088 BDD0     		beq	.L235
 444:main.c        **** 
 2597              		.loc 1 444 0
 2598 008a D0BD     		pop	{r4, r6, r7, pc}
 2599              	.LVL330:
 2600              	.L239:
 2601 008c AFF30080 		.align	3
 2602              	.L238:
 2603 0090 9A999999 		.word	-1717986918
 2604 0094 9999C93F 		.word	1070176665
 2605 0098 52B81E85 		.word	-2061584302
 2606 009c EB510440 		.word	1074024939
 2607 00a0 00000000 		.word	.LANCHOR0
 2608 00a4 00000000 		.word	cm_or_inch
 2609              		.cfi_endproc
 2610              	.LFE68:
 2611              		.size	mode_3, .-mode_3
 2612              		.section	.text.main,"ax",%progbits
 2613              		.align	2
 2614              		.global	main
 2615              		.thumb
 2616              		.thumb_func
 2617              		.type	main, %function
 2618              	main:
 2619              	.LFB64:
  68:main.c        ****     // Enable interrupts
 2620              		.loc 1 68 0
 2621              		.cfi_startproc
 2622              		@ args = 0, pretend = 0, frame = 0
 2623              		@ frame_needed = 0, uses_anonymous_args = 0
 2624 0000 38B5     		push	{r3, r4, r5, lr}
 2625              		.cfi_def_cfa_offset 16
 2626              		.cfi_offset 3, -16
 2627              		.cfi_offset 4, -12
 2628              		.cfi_offset 5, -8
 2629              		.cfi_offset 14, -4
  70:main.c        ****     
 2630              		.loc 1 70 0
 2631              		.syntax unified
 2632              	@ 70 "main.c" 1
 2633 0002 62B6     		CPSIE   i
 2634              	@ 0 "" 2
  73:main.c        ****     isr_7Seg_StartEx(seg7_ISR);  
 2635              		.loc 1 73 0
 2636              		.thumb
 2637              		.syntax unified
 2638 0004 FFF7FEFF 		bl	isr_7Seg_ClearPending
 2639              	.LVL331:
  74:main.c        ****     
 2640              		.loc 1 74 0
 2641 0008 6748     		ldr	r0, .L256
 2642 000a FFF7FEFF 		bl	isr_7Seg_StartEx
ARM GAS  C:\Users\ANDREW~1\AppData\Local\Temp\ccxC4OPZ.s 			page 71


 2643              	.LVL332:
  77:main.c        ****     Timer_1_SetInterruptMode(3);
 2644              		.loc 1 77 0
 2645 000e FFF7FEFF 		bl	isr_6_ClearPending
 2646              	.LVL333:
  78:main.c        ****     isr_6_StartEx(Receive_Ultra);  
 2647              		.loc 1 78 0
 2648 0012 0320     		movs	r0, #3
 2649 0014 FFF7FEFF 		bl	Timer_1_SetInterruptMode
 2650              	.LVL334:
  79:main.c        ****     
 2651              		.loc 1 79 0
 2652 0018 6448     		ldr	r0, .L256+4
 2653 001a FFF7FEFF 		bl	isr_6_StartEx
 2654              	.LVL335:
  82:main.c        ****     Opamp_1_Start();
 2655              		.loc 1 82 0
 2656 001e FFF7FEFF 		bl	PGA_1_Start
 2657              	.LVL336:
  83:main.c        ****     Comp_1_Start();
 2658              		.loc 1 83 0
 2659 0022 FFF7FEFF 		bl	Opamp_1_Start
 2660              	.LVL337:
  84:main.c        ****     VDAC8_1_Start();
 2661              		.loc 1 84 0
 2662 0026 FFF7FEFF 		bl	Comp_1_Start
 2663              	.LVL338:
  85:main.c        ****     Count7_1_Start(); 
 2664              		.loc 1 85 0
 2665 002a FFF7FEFF 		bl	VDAC8_1_Start
 2666              	.LVL339:
  86:main.c        ****     
 2667              		.loc 1 86 0
 2668 002e FFF7FEFF 		bl	Count7_1_Start
 2669              	.LVL340:
  89:main.c        ****     Timer_2_Start();
 2670              		.loc 1 89 0
 2671 0032 0320     		movs	r0, #3
 2672 0034 FFF7FEFF 		bl	Timer_2_SetInterruptMode
 2673              	.LVL341:
  90:main.c        ****     
 2674              		.loc 1 90 0
 2675 0038 FFF7FEFF 		bl	Timer_2_Start
 2676              	.LVL342:
  93:main.c        ****     
 2677              		.loc 1 93 0
 2678 003c FFF7FEFF 		bl	EEPROM_Start
 2679              	.LVL343:
  96:main.c        ****     UART_1_PutString("Start UART");
 2680              		.loc 1 96 0
 2681 0040 FFF7FEFF 		bl	UART_1_Start
 2682              	.LVL344:
  97:main.c        ****     CyDelay(5);
 2683              		.loc 1 97 0
 2684 0044 5A48     		ldr	r0, .L256+8
 2685 0046 FFF7FEFF 		bl	UART_1_PutString
 2686              	.LVL345:
ARM GAS  C:\Users\ANDREW~1\AppData\Local\Temp\ccxC4OPZ.s 			page 72


  98:main.c        ****     UART_1_WriteTxData(0x20);   
 2687              		.loc 1 98 0
 2688 004a 0520     		movs	r0, #5
 2689 004c FFF7FEFF 		bl	CyDelay
 2690              	.LVL346:
  99:main.c        ****     CyDelay(5);
 2691              		.loc 1 99 0
 2692 0050 2020     		movs	r0, #32
 2693 0052 FFF7FEFF 		bl	UART_1_WriteTxData
 2694              	.LVL347:
 100:main.c        ****     
 2695              		.loc 1 100 0
 2696 0056 0520     		movs	r0, #5
 2697 0058 FFF7FEFF 		bl	CyDelay
 2698              	.LVL348:
 103:main.c        ****     cm_or_inch = EEPROM_ReadByte(sizeof(int));
 2699              		.loc 1 103 0
 2700 005c 0020     		movs	r0, #0
 2701 005e FFF7FEFF 		bl	EEPROM_ReadByte
 2702              	.LVL349:
 2703 0062 544B     		ldr	r3, .L256+12
 2704 0064 9865     		str	r0, [r3, #88]
 104:main.c        ****     
 2705              		.loc 1 104 0
 2706 0066 0420     		movs	r0, #4
 2707 0068 FFF7FEFF 		bl	EEPROM_ReadByte
 2708              	.LVL350:
 2709 006c 524B     		ldr	r3, .L256+16
 2710 006e 1870     		strb	r0, [r3]
 107:main.c        ****     while((current_second()-setup_previous_time)<=6)
 2711              		.loc 1 107 0
 2712 0070 FFF7FEFF 		bl	current_second
 2713              	.LVL351:
 2714 0074 0446     		mov	r4, r0
 2715 0076 0D46     		mov	r5, r1
 2716              	.LVL352:
 108:main.c        ****     {
 2717              		.loc 1 108 0
 2718 0078 63E0     		b	.L241
 2719              	.L249:
 110:main.c        ****         if((int)(current_second()-setup_previous_time) ==1) display_num(-6);
 2720              		.loc 1 110 0
 2721 007a FFF7FEFF 		bl	current_second
 2722              	.LVL353:
 2723 007e 2246     		mov	r2, r4
 2724 0080 2B46     		mov	r3, r5
 2725 0082 FFF7FEFF 		bl	__aeabi_dsub
 2726              	.LVL354:
 2727 0086 FFF7FEFF 		bl	__aeabi_d2iz
 2728              	.LVL355:
 2729 008a 18B9     		cbnz	r0, .L242
 110:main.c        ****         if((int)(current_second()-setup_previous_time) ==1) display_num(-6);
 2730              		.loc 1 110 0 is_stmt 0 discriminator 1
 2731 008c 0020     		movs	r0, #0
 2732 008e 4B49     		ldr	r1, .L256+20
 2733 0090 FFF7FEFF 		bl	display_num
 2734              	.LVL356:
ARM GAS  C:\Users\ANDREW~1\AppData\Local\Temp\ccxC4OPZ.s 			page 73


 2735              	.L242:
 111:main.c        ****         if((int)(current_second()-setup_previous_time) ==2) display_num(-7);
 2736              		.loc 1 111 0 is_stmt 1
 2737 0094 FFF7FEFF 		bl	current_second
 2738              	.LVL357:
 2739 0098 2246     		mov	r2, r4
 2740 009a 2B46     		mov	r3, r5
 2741 009c FFF7FEFF 		bl	__aeabi_dsub
 2742              	.LVL358:
 2743 00a0 FFF7FEFF 		bl	__aeabi_d2iz
 2744              	.LVL359:
 2745 00a4 0128     		cmp	r0, #1
 2746 00a6 03D1     		bne	.L243
 111:main.c        ****         if((int)(current_second()-setup_previous_time) ==2) display_num(-7);
 2747              		.loc 1 111 0 is_stmt 0 discriminator 1
 2748 00a8 0020     		movs	r0, #0
 2749 00aa 4549     		ldr	r1, .L256+24
 2750 00ac FFF7FEFF 		bl	display_num
 2751              	.LVL360:
 2752              	.L243:
 112:main.c        ****         if((int)(current_second()-setup_previous_time) ==3) display_num(-8);
 2753              		.loc 1 112 0 is_stmt 1
 2754 00b0 FFF7FEFF 		bl	current_second
 2755              	.LVL361:
 2756 00b4 2246     		mov	r2, r4
 2757 00b6 2B46     		mov	r3, r5
 2758 00b8 FFF7FEFF 		bl	__aeabi_dsub
 2759              	.LVL362:
 2760 00bc FFF7FEFF 		bl	__aeabi_d2iz
 2761              	.LVL363:
 2762 00c0 0228     		cmp	r0, #2
 2763 00c2 03D1     		bne	.L244
 112:main.c        ****         if((int)(current_second()-setup_previous_time) ==3) display_num(-8);
 2764              		.loc 1 112 0 is_stmt 0 discriminator 1
 2765 00c4 0020     		movs	r0, #0
 2766 00c6 3F49     		ldr	r1, .L256+28
 2767 00c8 FFF7FEFF 		bl	display_num
 2768              	.LVL364:
 2769              	.L244:
 113:main.c        ****         if((int)(current_second()-setup_previous_time) ==4) display_num(group_num);
 2770              		.loc 1 113 0 is_stmt 1
 2771 00cc FFF7FEFF 		bl	current_second
 2772              	.LVL365:
 2773 00d0 2246     		mov	r2, r4
 2774 00d2 2B46     		mov	r3, r5
 2775 00d4 FFF7FEFF 		bl	__aeabi_dsub
 2776              	.LVL366:
 2777 00d8 FFF7FEFF 		bl	__aeabi_d2iz
 2778              	.LVL367:
 2779 00dc 0328     		cmp	r0, #3
 2780 00de 03D1     		bne	.L245
 113:main.c        ****         if((int)(current_second()-setup_previous_time) ==4) display_num(group_num);
 2781              		.loc 1 113 0 is_stmt 0 discriminator 1
 2782 00e0 0020     		movs	r0, #0
 2783 00e2 3949     		ldr	r1, .L256+32
 2784 00e4 FFF7FEFF 		bl	display_num
 2785              	.LVL368:
ARM GAS  C:\Users\ANDREW~1\AppData\Local\Temp\ccxC4OPZ.s 			page 74


 2786              	.L245:
 114:main.c        ****         if((int)(current_second()-setup_previous_time) ==5) 
 2787              		.loc 1 114 0 is_stmt 1
 2788 00e8 FFF7FEFF 		bl	current_second
 2789              	.LVL369:
 2790 00ec 2246     		mov	r2, r4
 2791 00ee 2B46     		mov	r3, r5
 2792 00f0 FFF7FEFF 		bl	__aeabi_dsub
 2793              	.LVL370:
 2794 00f4 FFF7FEFF 		bl	__aeabi_d2iz
 2795              	.LVL371:
 2796 00f8 0428     		cmp	r0, #4
 2797 00fa 05D1     		bne	.L246
 114:main.c        ****         if((int)(current_second()-setup_previous_time) ==5) 
 2798              		.loc 1 114 0 is_stmt 0 discriminator 1
 2799 00fc 2D4B     		ldr	r3, .L256+12
 2800 00fe 986D     		ldr	r0, [r3, #88]
 2801 0100 FFF7FEFF 		bl	__aeabi_i2d
 2802              	.LVL372:
 2803 0104 FFF7FEFF 		bl	display_num
 2804              	.LVL373:
 2805              	.L246:
 115:main.c        ****         {
 2806              		.loc 1 115 0 is_stmt 1
 2807 0108 FFF7FEFF 		bl	current_second
 2808              	.LVL374:
 2809 010c 2246     		mov	r2, r4
 2810 010e 2B46     		mov	r3, r5
 2811 0110 FFF7FEFF 		bl	__aeabi_dsub
 2812              	.LVL375:
 2813 0114 FFF7FEFF 		bl	__aeabi_d2iz
 2814              	.LVL376:
 2815 0118 0528     		cmp	r0, #5
 2816 011a 10D1     		bne	.L247
 117:main.c        ****             if (cm_or_inch =='i') display_num(-2);
 2817              		.loc 1 117 0
 2818 011c 264B     		ldr	r3, .L256+16
 2819 011e 1B78     		ldrb	r3, [r3]	@ zero_extendqisi2
 2820 0120 632B     		cmp	r3, #99
 2821 0122 03D1     		bne	.L248
 117:main.c        ****             if (cm_or_inch =='i') display_num(-2);
 2822              		.loc 1 117 0 is_stmt 0 discriminator 1
 2823 0124 0020     		movs	r0, #0
 2824 0126 2949     		ldr	r1, .L256+36
 2825 0128 FFF7FEFF 		bl	display_num
 2826              	.LVL377:
 2827              	.L248:
 118:main.c        ****         }
 2828              		.loc 1 118 0 is_stmt 1
 2829 012c 224B     		ldr	r3, .L256+16
 2830 012e 1B78     		ldrb	r3, [r3]	@ zero_extendqisi2
 2831 0130 692B     		cmp	r3, #105
 2832 0132 04D1     		bne	.L247
 118:main.c        ****         }
 2833              		.loc 1 118 0 is_stmt 0 discriminator 1
 2834 0134 0020     		movs	r0, #0
 2835 0136 4FF04041 		mov	r1, #-1073741824
ARM GAS  C:\Users\ANDREW~1\AppData\Local\Temp\ccxC4OPZ.s 			page 75


 2836 013a FFF7FEFF 		bl	display_num
 2837              	.LVL378:
 2838              	.L247:
 121:main.c        ****     }
 2839              		.loc 1 121 0 is_stmt 1
 2840 013e FFF7FEFF 		bl	runtime
 2841              	.LVL379:
 2842              	.L241:
 108:main.c        ****     {
 2843              		.loc 1 108 0
 2844 0142 FFF7FEFF 		bl	current_second
 2845              	.LVL380:
 2846 0146 2246     		mov	r2, r4
 2847 0148 2B46     		mov	r3, r5
 2848 014a FFF7FEFF 		bl	__aeabi_dsub
 2849              	.LVL381:
 2850 014e 0022     		movs	r2, #0
 2851 0150 1F4B     		ldr	r3, .L256+40
 2852 0152 FFF7FEFF 		bl	__aeabi_dcmple
 2853              	.LVL382:
 2854 0156 0028     		cmp	r0, #0
 2855 0158 8FD1     		bne	.L249
 192:main.c        ****     for(;;)
 2856              		.loc 1 192 0
 2857 015a FFF7FEFF 		bl	current_second
 2858              	.LVL383:
 2859              	.L254:
 200:main.c        ****         {
 2860              		.loc 1 200 0
 2861 015e 154B     		ldr	r3, .L256+12
 2862 0160 5B6D     		ldr	r3, [r3, #84]
 2863 0162 33B9     		cbnz	r3, .L250
 205:main.c        ****             mode_0();
 2864              		.loc 1 205 0
 2865 0164 0421     		movs	r1, #4
 2866 0166 144B     		ldr	r3, .L256+16
 2867 0168 1878     		ldrb	r0, [r3]	@ zero_extendqisi2
 2868 016a FFF7FEFF 		bl	EEPROM_WriteByte
 2869              	.LVL384:
 206:main.c        ****         
 2870              		.loc 1 206 0
 2871 016e FFF7FEFF 		bl	mode_0
 2872              	.LVL385:
 2873              	.L250:
 209:main.c        ****         {
 2874              		.loc 1 209 0
 2875 0172 104B     		ldr	r3, .L256+12
 2876 0174 5B6D     		ldr	r3, [r3, #84]
 2877 0176 012B     		cmp	r3, #1
 2878 0178 01D1     		bne	.L251
 214:main.c        ****         }
 2879              		.loc 1 214 0
 2880 017a FFF7FEFF 		bl	mode_1
 2881              	.LVL386:
 2882              	.L251:
 216:main.c        ****         {
 2883              		.loc 1 216 0
ARM GAS  C:\Users\ANDREW~1\AppData\Local\Temp\ccxC4OPZ.s 			page 76


 2884 017e 0D4B     		ldr	r3, .L256+12
 2885 0180 5B6D     		ldr	r3, [r3, #84]
 2886 0182 022B     		cmp	r3, #2
 2887 0184 06D1     		bne	.L252
 222:main.c        ****            mode_2();
 2888              		.loc 1 222 0
 2889 0186 0B4B     		ldr	r3, .L256+12
 2890 0188 996D     		ldr	r1, [r3, #88]
 2891 018a 0020     		movs	r0, #0
 2892 018c FFF7FEFF 		bl	EEPROM_writeInt
 2893              	.LVL387:
 223:main.c        ****         }
 2894              		.loc 1 223 0
 2895 0190 FFF7FEFF 		bl	mode_2
 2896              	.LVL388:
 2897              	.L252:
 225:main.c        ****         {
 2898              		.loc 1 225 0
 2899 0194 074B     		ldr	r3, .L256+12
 2900 0196 5B6D     		ldr	r3, [r3, #84]
 2901 0198 032B     		cmp	r3, #3
 2902 019a 01D1     		bne	.L253
 231:main.c        ****         }
 2903              		.loc 1 231 0
 2904 019c FFF7FEFF 		bl	mode_3
 2905              	.LVL389:
 2906              	.L253:
 235:main.c        ****         
 2907              		.loc 1 235 0
 2908 01a0 FFF7FEFF 		bl	runtime
 2909              	.LVL390:
 238:main.c        ****     
 2910              		.loc 1 238 0
 2911 01a4 DBE7     		b	.L254
 2912              	.L257:
 2913 01a6 00BF     		.align	2
 2914              	.L256:
 2915 01a8 00000000 		.word	seg7_ISR
 2916 01ac 00000000 		.word	Receive_Ultra
 2917 01b0 10000000 		.word	.LC1
 2918 01b4 00000000 		.word	.LANCHOR0
 2919 01b8 00000000 		.word	cm_or_inch
 2920 01bc 000014C0 		.word	-1072431104
 2921 01c0 000018C0 		.word	-1072168960
 2922 01c4 00001CC0 		.word	-1071906816
 2923 01c8 000020C0 		.word	-1071644672
 2924 01cc 0000F0BF 		.word	-1074790400
 2925 01d0 00001840 		.word	1075314688
 2926              		.cfi_endproc
 2927              	.LFE64:
 2928              		.size	main, .-main
 2929              		.comm	segmentPattern_array,28,4
 2930              		.global	charLookup
 2931              		.global	count
 2932              		.global	dp
 2933              		.global	D
 2934              		.global	old_dis_val
ARM GAS  C:\Users\ANDREW~1\AppData\Local\Temp\ccxC4OPZ.s 			page 77


 2935              		.global	run_7_Seg
 2936              		.comm	InterruptCnt,1,1
 2937              		.global	waiting_ultra
 2938              		.comm	value_text,16,4
 2939              		.global	distance
 2940              		.comm	cm_or_inch,1,1
 2941              		.global	group_num
 2942              		.global	mode
 2943              		.global	seg_num
 2944              		.global	buzz_duration
 2945              		.global	previous_buzz
 2946              		.global	time_passed_step
 2947              		.global	counter
 2948              		.section	.rodata
 2949              		.align	2
 2950              		.set	.LANCHOR1,. + 0
 2951              		.type	charLookup, %object
 2952              		.size	charLookup, 152
 2953              	charLookup:
 2954 0000 31313131 		.ascii	"1111110\000"
 2954      31313000 
 2955 0008 30313130 		.ascii	"0110000\000"
 2955      30303000 
 2956 0010 31313031 		.ascii	"1101101\000"
 2956      31303100 
 2957 0018 31313131 		.ascii	"1111001\000"
 2957      30303100 
 2958 0020 30313130 		.ascii	"0110011\000"
 2958      30313100 
 2959 0028 31303131 		.ascii	"1011011\000"
 2959      30313100 
 2960 0030 31303131 		.ascii	"1011111\000"
 2960      31313100 
 2961 0038 31313130 		.ascii	"1110000\000"
 2961      30303000 
 2962 0040 31313131 		.ascii	"1111111\000"
 2962      31313100 
 2963 0048 31313131 		.ascii	"1111011\000"
 2963      30313100 
 2964 0050 30303030 		.ascii	"0000000\000"
 2964      30303000 
 2965 0058 30303031 		.ascii	"0001101\000"
 2965      31303100 
 2966 0060 30303130 		.ascii	"0010101\000"
 2966      31303100 
 2967 0068 30303130 		.ascii	"0010000\000"
 2967      30303000 
 2968 0070 30303130 		.ascii	"0010111\000"
 2968      31313100 
 2969 0078 31303031 		.ascii	"1001110\000"
 2969      31313000 
 2970 0080 31303031 		.ascii	"1001111\000"
 2970      31313100 
 2971 0088 30303031 		.ascii	"0001111\000"
 2971      31313100 
 2972 0090 31313130 		.ascii	"1110110\000"
 2972      31313000 
ARM GAS  C:\Users\ANDREW~1\AppData\Local\Temp\ccxC4OPZ.s 			page 78


 2973              		.section	.rodata.str1.4,"aMS",%progbits,1
 2974              		.align	2
 2975              	.LC0:
 2976 0000 456E7465 		.ascii	"Enter Mode 1\012\000"
 2976      72204D6F 
 2976      64652031 
 2976      0A00
 2977 000e 0000     		.space	2
 2978              	.LC1:
 2979 0010 53746172 		.ascii	"Start UART\000"
 2979      74205541 
 2979      525400
 2980              		.bss
 2981              		.align	3
 2982              		.set	.LANCHOR0,. + 0
 2983              		.type	run_7_Seg, %object
 2984              		.size	run_7_Seg, 4
 2985              	run_7_Seg:
 2986 0000 00000000 		.space	4
 2987              		.type	time_passed_step, %object
 2988              		.size	time_passed_step, 4
 2989              	time_passed_step:
 2990 0004 00000000 		.space	4
 2991              		.type	waiting_ultra, %object
 2992              		.size	waiting_ultra, 4
 2993              	waiting_ultra:
 2994 0008 00000000 		.space	4
 2995 000c 00000000 		.space	4
 2996              		.type	previous_buzz, %object
 2997              		.size	previous_buzz, 8
 2998              	previous_buzz:
 2999 0010 00000000 		.space	8
 2999      00000000 
 3000              		.type	buzz_duration, %object
 3001              		.size	buzz_duration, 8
 3002              	buzz_duration:
 3003 0018 00000000 		.space	8
 3003      00000000 
 3004              		.type	seg_num, %object
 3005              		.size	seg_num, 8
 3006              	seg_num:
 3007 0020 00000000 		.space	8
 3007      00000000 
 3008              		.type	dp, %object
 3009              		.size	dp, 16
 3010              	dp:
 3011 0028 00000000 		.space	16
 3011      00000000 
 3011      00000000 
 3011      00000000 
 3012              		.type	old_dis_val, %object
 3013              		.size	old_dis_val, 8
 3014              	old_dis_val:
 3015 0038 00000000 		.space	8
 3015      00000000 
 3016              		.type	D, %object
 3017              		.size	D, 16
ARM GAS  C:\Users\ANDREW~1\AppData\Local\Temp\ccxC4OPZ.s 			page 79


 3018              	D:
 3019 0040 00000000 		.space	16
 3019      00000000 
 3019      00000000 
 3019      00000000 
 3020              		.type	count, %object
 3021              		.size	count, 4
 3022              	count:
 3023 0050 00000000 		.space	4
 3024              		.type	mode, %object
 3025              		.size	mode, 4
 3026              	mode:
 3027 0054 00000000 		.space	4
 3028              		.type	group_num, %object
 3029              		.size	group_num, 4
 3030              	group_num:
 3031 0058 00000000 		.space	4
 3032 005c 00000000 		.space	4
 3033              		.type	distance, %object
 3034              		.size	distance, 8
 3035              	distance:
 3036 0060 00000000 		.space	8
 3036      00000000 
 3037              		.type	counter, %object
 3038              		.size	counter, 8
 3039              	counter:
 3040 0068 00000000 		.space	8
 3040      00000000 
 3041              		.text
 3042              	.Letext0:
 3043              		.file 2 "d:\\monash_apps\\psoc creator\\4.4\\psoc creator\\import\\gnu\\arm\\5.4.1\\arm-none-eabi\
 3044              		.file 3 "d:\\monash_apps\\psoc creator\\4.4\\psoc creator\\import\\gnu\\arm\\5.4.1\\arm-none-eabi\
 3045              		.file 4 "Generated_Source\\PSoC5/cytypes.h"
 3046              		.file 5 "Generated_Source\\PSoC5/core_cm3.h"
 3047              		.file 6 "Generated_Source\\PSoC5/Timer_1.h"
 3048              		.file 7 "Generated_Source\\PSoC5/LED2_Yellow.h"
 3049              		.file 8 "Generated_Source\\PSoC5/LED3_Green.h"
 3050              		.file 9 "Generated_Source\\PSoC5/Timer_2.h"
 3051              		.file 10 "Generated_Source\\PSoC5/EEPROM.h"
 3052              		.file 11 "Generated_Source\\PSoC5/UART_1.h"
 3053              		.file 12 "Generated_Source\\PSoC5/CyLib.h"
 3054              		.file 13 "Generated_Source\\PSoC5/Buzzer.h"
 3055              		.file 14 "Generated_Source\\PSoC5/Control_Reg_1.h"
 3056              		.file 15 "d:\\monash_apps\\psoc creator\\4.4\\psoc creator\\import\\gnu\\arm\\5.4.1\\arm-none-eabi
 3057              		.file 16 "Generated_Source\\PSoC5/Dis_D1.h"
 3058              		.file 17 "Generated_Source\\PSoC5/Dis_D2.h"
 3059              		.file 18 "Generated_Source\\PSoC5/Dis_D3.h"
 3060              		.file 19 "Generated_Source\\PSoC5/Dis_D4.h"
 3061              		.file 20 "Generated_Source\\PSoC5/Dis_A.h"
 3062              		.file 21 "Generated_Source\\PSoC5/Dis_B.h"
 3063              		.file 22 "Generated_Source\\PSoC5/Dis_C.h"
 3064              		.file 23 "Generated_Source\\PSoC5/Dis_D.h"
 3065              		.file 24 "Generated_Source\\PSoC5/Dis_E.h"
 3066              		.file 25 "Generated_Source\\PSoC5/Dis_F.h"
 3067              		.file 26 "Generated_Source\\PSoC5/Dis_G.h"
 3068              		.file 27 "Generated_Source\\PSoC5/Dis_DP.h"
 3069              		.file 28 "Generated_Source\\PSoC5/Button_S2_Left_State.h"
ARM GAS  C:\Users\ANDREW~1\AppData\Local\Temp\ccxC4OPZ.s 			page 80


 3070              		.file 29 "Generated_Source\\PSoC5/Button_S4_Right_State.h"
 3071              		.file 30 "Generated_Source\\PSoC5/Button_S3_Top_State.h"
 3072              		.file 31 "Generated_Source\\PSoC5/Button_S5_Select_State.h"
 3073              		.file 32 "Generated_Source\\PSoC5/Button_S1_Bottom_State.h"
 3074              		.file 33 "Generated_Source\\PSoC5/isr_6.h"
 3075              		.file 34 "Generated_Source\\PSoC5/isr_7Seg.h"
 3076              		.file 35 "Generated_Source\\PSoC5/PGA_1.h"
 3077              		.file 36 "Generated_Source\\PSoC5/Opamp_1.h"
 3078              		.file 37 "Generated_Source\\PSoC5/Comp_1.h"
 3079              		.file 38 "Generated_Source\\PSoC5/VDAC8_1.h"
 3080              		.file 39 "Generated_Source\\PSoC5/Count7_1.h"
 3081              		.section	.debug_info,"",%progbits
 3082              	.Ldebug_info0:
 3083 0000 BB150000 		.4byte	0x15bb
 3084 0004 0400     		.2byte	0x4
 3085 0006 00000000 		.4byte	.Ldebug_abbrev0
 3086 000a 04       		.byte	0x4
 3087 000b 01       		.uleb128 0x1
 3088 000c 9B010000 		.4byte	.LASF142
 3089 0010 0C       		.byte	0xc
 3090 0011 32000000 		.4byte	.LASF143
 3091 0015 E0050000 		.4byte	.LASF144
 3092 0019 30000000 		.4byte	.Ldebug_ranges0+0x30
 3093 001d 00000000 		.4byte	0
 3094 0021 00000000 		.4byte	.Ldebug_line0
 3095 0025 02       		.uleb128 0x2
 3096 0026 08       		.byte	0x8
 3097 0027 04       		.byte	0x4
 3098 0028 2F080000 		.4byte	.LASF0
 3099 002c 02       		.uleb128 0x2
 3100 002d 01       		.byte	0x1
 3101 002e 06       		.byte	0x6
 3102 002f B9070000 		.4byte	.LASF1
 3103 0033 02       		.uleb128 0x2
 3104 0034 01       		.byte	0x1
 3105 0035 08       		.byte	0x8
 3106 0036 DC060000 		.4byte	.LASF2
 3107 003a 02       		.uleb128 0x2
 3108 003b 02       		.byte	0x2
 3109 003c 05       		.byte	0x5
 3110 003d 74050000 		.4byte	.LASF3
 3111 0041 02       		.uleb128 0x2
 3112 0042 02       		.byte	0x2
 3113 0043 07       		.byte	0x7
 3114 0044 D8070000 		.4byte	.LASF4
 3115 0048 03       		.uleb128 0x3
 3116 0049 96000000 		.4byte	.LASF10
 3117 004d 02       		.byte	0x2
 3118 004e 3F       		.byte	0x3f
 3119 004f 53000000 		.4byte	0x53
 3120 0053 02       		.uleb128 0x2
 3121 0054 04       		.byte	0x4
 3122 0055 05       		.byte	0x5
 3123 0056 97050000 		.4byte	.LASF5
 3124 005a 02       		.uleb128 0x2
 3125 005b 04       		.byte	0x4
 3126 005c 07       		.byte	0x7
ARM GAS  C:\Users\ANDREW~1\AppData\Local\Temp\ccxC4OPZ.s 			page 81


 3127 005d 8F060000 		.4byte	.LASF6
 3128 0061 02       		.uleb128 0x2
 3129 0062 08       		.byte	0x8
 3130 0063 05       		.byte	0x5
 3131 0064 D2030000 		.4byte	.LASF7
 3132 0068 02       		.uleb128 0x2
 3133 0069 08       		.byte	0x8
 3134 006a 07       		.byte	0x7
 3135 006b 34010000 		.4byte	.LASF8
 3136 006f 04       		.uleb128 0x4
 3137 0070 04       		.byte	0x4
 3138 0071 05       		.byte	0x5
 3139 0072 696E7400 		.ascii	"int\000"
 3140 0076 02       		.uleb128 0x2
 3141 0077 04       		.byte	0x4
 3142 0078 07       		.byte	0x7
 3143 0079 65000000 		.4byte	.LASF9
 3144 007d 03       		.uleb128 0x3
 3145 007e B5060000 		.4byte	.LASF11
 3146 0082 03       		.byte	0x3
 3147 0083 2C       		.byte	0x2c
 3148 0084 48000000 		.4byte	0x48
 3149 0088 05       		.uleb128 0x5
 3150 0089 29080000 		.4byte	.LASF12
 3151 008d 04       		.byte	0x4
 3152 008e E801     		.2byte	0x1e8
 3153 0090 33000000 		.4byte	0x33
 3154 0094 05       		.uleb128 0x5
 3155 0095 39030000 		.4byte	.LASF13
 3156 0099 04       		.byte	0x4
 3157 009a E901     		.2byte	0x1e9
 3158 009c 41000000 		.4byte	0x41
 3159 00a0 02       		.uleb128 0x2
 3160 00a1 04       		.byte	0x4
 3161 00a2 04       		.byte	0x4
 3162 00a3 FD000000 		.4byte	.LASF14
 3163 00a7 02       		.uleb128 0x2
 3164 00a8 01       		.byte	0x1
 3165 00a9 08       		.byte	0x8
 3166 00aa F8020000 		.4byte	.LASF15
 3167 00ae 02       		.uleb128 0x2
 3168 00af 08       		.byte	0x8
 3169 00b0 04       		.byte	0x4
 3170 00b1 AF040000 		.4byte	.LASF16
 3171 00b5 02       		.uleb128 0x2
 3172 00b6 04       		.byte	0x4
 3173 00b7 07       		.byte	0x7
 3174 00b8 86060000 		.4byte	.LASF17
 3175 00bc 06       		.uleb128 0x6
 3176 00bd 04       		.byte	0x4
 3177 00be C2000000 		.4byte	0xc2
 3178 00c2 07       		.uleb128 0x7
 3179 00c3 A7000000 		.4byte	0xa7
 3180 00c7 06       		.uleb128 0x6
 3181 00c8 04       		.byte	0x4
 3182 00c9 CD000000 		.4byte	0xcd
 3183 00cd 08       		.uleb128 0x8
ARM GAS  C:\Users\ANDREW~1\AppData\Local\Temp\ccxC4OPZ.s 			page 82


 3184 00ce 09       		.uleb128 0x9
 3185 00cf 7A030000 		.4byte	.LASF27
 3186 00d3 01       		.byte	0x1
 3187 00d4 F302     		.2byte	0x2f3
 3188 00d6 6F000000 		.4byte	0x6f
 3189 00da 00000000 		.4byte	.LFB87
 3190 00de 08000000 		.4byte	.LFE87-.LFB87
 3191 00e2 01       		.uleb128 0x1
 3192 00e3 9C       		.byte	0x9c
 3193 00e4 03010000 		.4byte	0x103
 3194 00e8 0A       		.uleb128 0xa
 3195 00e9 6100     		.ascii	"a\000"
 3196 00eb 01       		.byte	0x1
 3197 00ec F302     		.2byte	0x2f3
 3198 00ee C7000000 		.4byte	0xc7
 3199 00f2 00000000 		.4byte	.LLST0
 3200 00f6 0B       		.uleb128 0xb
 3201 00f7 6200     		.ascii	"b\000"
 3202 00f9 01       		.byte	0x1
 3203 00fa F302     		.2byte	0x2f3
 3204 00fc C7000000 		.4byte	0xc7
 3205 0100 01       		.uleb128 0x1
 3206 0101 51       		.byte	0x51
 3207 0102 00       		.byte	0
 3208 0103 0C       		.uleb128 0xc
 3209 0104 7C080000 		.4byte	.LASF145
 3210 0108 01       		.byte	0x1
 3211 0109 1103     		.2byte	0x311
 3212 010b 00000000 		.4byte	.LFB89
 3213 010f 0C000000 		.4byte	.LFE89-.LFB89
 3214 0113 01       		.uleb128 0x1
 3215 0114 9C       		.byte	0x9c
 3216 0115 0D       		.uleb128 0xd
 3217 0116 EA000000 		.4byte	.LASF18
 3218 011a 01       		.byte	0x1
 3219 011b E902     		.2byte	0x2e9
 3220 011d 00000000 		.4byte	.LFB86
 3221 0121 20000000 		.4byte	.LFE86-.LFB86
 3222 0125 01       		.uleb128 0x1
 3223 0126 9C       		.byte	0x9c
 3224 0127 47010000 		.4byte	0x147
 3225 012b 0E       		.uleb128 0xe
 3226 012c 06000000 		.4byte	.LVL2
 3227 0130 A5130000 		.4byte	0x13a5
 3228 0134 0E       		.uleb128 0xe
 3229 0135 0A000000 		.4byte	.LVL3
 3230 0139 B0130000 		.4byte	0x13b0
 3231 013d 0E       		.uleb128 0xe
 3232 013e 10000000 		.4byte	.LVL4
 3233 0142 BB130000 		.4byte	0x13bb
 3234 0146 00       		.byte	0
 3235 0147 0D       		.uleb128 0xd
 3236 0148 FD020000 		.4byte	.LASF19
 3237 014c 01       		.byte	0x1
 3238 014d C101     		.2byte	0x1c1
 3239 014f 00000000 		.4byte	.LFB69
 3240 0153 10000000 		.4byte	.LFE69-.LFB69
ARM GAS  C:\Users\ANDREW~1\AppData\Local\Temp\ccxC4OPZ.s 			page 83


 3241 0157 01       		.uleb128 0x1
 3242 0158 9C       		.byte	0x9c
 3243 0159 80010000 		.4byte	0x180
 3244 015d 0F       		.uleb128 0xf
 3245 015e 08000000 		.4byte	.LVL5
 3246 0162 C6130000 		.4byte	0x13c6
 3247 0166 70010000 		.4byte	0x170
 3248 016a 10       		.uleb128 0x10
 3249 016b 01       		.uleb128 0x1
 3250 016c 50       		.byte	0x50
 3251 016d 01       		.uleb128 0x1
 3252 016e 30       		.byte	0x30
 3253 016f 00       		.byte	0
 3254 0170 11       		.uleb128 0x11
 3255 0171 0E000000 		.4byte	.LVL6
 3256 0175 D1130000 		.4byte	0x13d1
 3257 0179 10       		.uleb128 0x10
 3258 017a 01       		.uleb128 0x1
 3259 017b 50       		.byte	0x50
 3260 017c 01       		.uleb128 0x1
 3261 017d 31       		.byte	0x31
 3262 017e 00       		.byte	0
 3263 017f 00       		.byte	0
 3264 0180 0D       		.uleb128 0xd
 3265 0181 B6020000 		.4byte	.LASF20
 3266 0185 01       		.byte	0x1
 3267 0186 C801     		.2byte	0x1c8
 3268 0188 00000000 		.4byte	.LFB70
 3269 018c 10000000 		.4byte	.LFE70-.LFB70
 3270 0190 01       		.uleb128 0x1
 3271 0191 9C       		.byte	0x9c
 3272 0192 B9010000 		.4byte	0x1b9
 3273 0196 0F       		.uleb128 0xf
 3274 0197 08000000 		.4byte	.LVL7
 3275 019b D1130000 		.4byte	0x13d1
 3276 019f A9010000 		.4byte	0x1a9
 3277 01a3 10       		.uleb128 0x10
 3278 01a4 01       		.uleb128 0x1
 3279 01a5 50       		.byte	0x50
 3280 01a6 01       		.uleb128 0x1
 3281 01a7 30       		.byte	0x30
 3282 01a8 00       		.byte	0
 3283 01a9 11       		.uleb128 0x11
 3284 01aa 0E000000 		.4byte	.LVL8
 3285 01ae C6130000 		.4byte	0x13c6
 3286 01b2 10       		.uleb128 0x10
 3287 01b3 01       		.uleb128 0x1
 3288 01b4 50       		.byte	0x50
 3289 01b5 01       		.uleb128 0x1
 3290 01b6 31       		.byte	0x31
 3291 01b7 00       		.byte	0
 3292 01b8 00       		.byte	0
 3293 01b9 12       		.uleb128 0x12
 3294 01ba 45000000 		.4byte	.LASF21
 3295 01be 01       		.byte	0x1
 3296 01bf F501     		.2byte	0x1f5
 3297 01c1 25000000 		.4byte	0x25
ARM GAS  C:\Users\ANDREW~1\AppData\Local\Temp\ccxC4OPZ.s 			page 84


 3298 01c5 00000000 		.4byte	.LFB74
 3299 01c9 28000000 		.4byte	.LFE74-.LFB74
 3300 01cd 01       		.uleb128 0x1
 3301 01ce 9C       		.byte	0x9c
 3302 01cf F6010000 		.4byte	0x1f6
 3303 01d3 13       		.uleb128 0x13
 3304 01d4 77010000 		.4byte	.LASF25
 3305 01d8 01       		.byte	0x1
 3306 01d9 F701     		.2byte	0x1f7
 3307 01db 25000000 		.4byte	0x25
 3308 01df 21000000 		.4byte	.LLST1
 3309 01e3 0E       		.uleb128 0xe
 3310 01e4 06000000 		.4byte	.LVL9
 3311 01e8 DC130000 		.4byte	0x13dc
 3312 01ec 0E       		.uleb128 0xe
 3313 01ed 0C000000 		.4byte	.LVL10
 3314 01f1 E7130000 		.4byte	0x13e7
 3315 01f5 00       		.byte	0
 3316 01f6 0D       		.uleb128 0xd
 3317 01f7 C3000000 		.4byte	.LASF22
 3318 01fb 01       		.byte	0x1
 3319 01fc FF01     		.2byte	0x1ff
 3320 01fe 00000000 		.4byte	.LFB75
 3321 0202 24000000 		.4byte	.LFE75-.LFB75
 3322 0206 01       		.uleb128 0x1
 3323 0207 9C       		.byte	0x9c
 3324 0208 68020000 		.4byte	0x268
 3325 020c 14       		.uleb128 0x14
 3326 020d A1060000 		.4byte	.LASF23
 3327 0211 01       		.byte	0x1
 3328 0212 FF01     		.2byte	0x1ff
 3329 0214 94000000 		.4byte	0x94
 3330 0218 49000000 		.4byte	.LLST2
 3331 021c 14       		.uleb128 0x14
 3332 021d 7C010000 		.4byte	.LASF24
 3333 0221 01       		.byte	0x1
 3334 0222 FF01     		.2byte	0x1ff
 3335 0224 6F000000 		.4byte	0x6f
 3336 0228 6A000000 		.4byte	.LLST3
 3337 022c 15       		.uleb128 0x15
 3338 022d 70747200 		.ascii	"ptr\000"
 3339 0231 01       		.byte	0x1
 3340 0232 0002     		.2byte	0x200
 3341 0234 68020000 		.4byte	0x268
 3342 0238 A1000000 		.4byte	.LLST4
 3343 023c 16       		.uleb128 0x16
 3344 023d 08000000 		.4byte	.LBB2
 3345 0241 18000000 		.4byte	.LBE2-.LBB2
 3346 0245 15       		.uleb128 0x15
 3347 0246 6900     		.ascii	"i\000"
 3348 0248 01       		.byte	0x1
 3349 0249 0102     		.2byte	0x201
 3350 024b 88000000 		.4byte	0x88
 3351 024f CE000000 		.4byte	.LLST5
 3352 0253 11       		.uleb128 0x11
 3353 0254 18000000 		.4byte	.LVL17
 3354 0258 F2130000 		.4byte	0x13f2
ARM GAS  C:\Users\ANDREW~1\AppData\Local\Temp\ccxC4OPZ.s 			page 85


 3355 025c 10       		.uleb128 0x10
 3356 025d 01       		.uleb128 0x1
 3357 025e 51       		.byte	0x51
 3358 025f 05       		.uleb128 0x5
 3359 0260 75       		.byte	0x75
 3360 0261 00       		.sleb128 0
 3361 0262 74       		.byte	0x74
 3362 0263 00       		.sleb128 0
 3363 0264 22       		.byte	0x22
 3364 0265 00       		.byte	0
 3365 0266 00       		.byte	0
 3366 0267 00       		.byte	0
 3367 0268 06       		.uleb128 0x6
 3368 0269 04       		.byte	0x4
 3369 026a 88000000 		.4byte	0x88
 3370 026e 0D       		.uleb128 0xd
 3371 026f 67040000 		.4byte	.LASF26
 3372 0273 01       		.byte	0x1
 3373 0274 0702     		.2byte	0x207
 3374 0276 00000000 		.4byte	.LFB76
 3375 027a 26000000 		.4byte	.LFE76-.LFB76
 3376 027e 01       		.uleb128 0x1
 3377 027f 9C       		.byte	0x9c
 3378 0280 E0020000 		.4byte	0x2e0
 3379 0284 14       		.uleb128 0x14
 3380 0285 A1060000 		.4byte	.LASF23
 3381 0289 01       		.byte	0x1
 3382 028a 0702     		.2byte	0x207
 3383 028c 94000000 		.4byte	0x94
 3384 0290 F8000000 		.4byte	.LLST6
 3385 0294 14       		.uleb128 0x14
 3386 0295 7C010000 		.4byte	.LASF24
 3387 0299 01       		.byte	0x1
 3388 029a 0702     		.2byte	0x207
 3389 029c 25000000 		.4byte	0x25
 3390 02a0 19010000 		.4byte	.LLST7
 3391 02a4 15       		.uleb128 0x15
 3392 02a5 70747200 		.ascii	"ptr\000"
 3393 02a9 01       		.byte	0x1
 3394 02aa 0802     		.2byte	0x208
 3395 02ac 68020000 		.4byte	0x268
 3396 02b0 49010000 		.4byte	.LLST8
 3397 02b4 16       		.uleb128 0x16
 3398 02b5 0A000000 		.4byte	.LBB3
 3399 02b9 18000000 		.4byte	.LBE3-.LBB3
 3400 02bd 15       		.uleb128 0x15
 3401 02be 6900     		.ascii	"i\000"
 3402 02c0 01       		.byte	0x1
 3403 02c1 0902     		.2byte	0x209
 3404 02c3 88000000 		.4byte	0x88
 3405 02c7 69010000 		.4byte	.LLST9
 3406 02cb 11       		.uleb128 0x11
 3407 02cc 1A000000 		.4byte	.LVL23
 3408 02d0 F2130000 		.4byte	0x13f2
 3409 02d4 10       		.uleb128 0x10
 3410 02d5 01       		.uleb128 0x1
 3411 02d6 51       		.byte	0x51
ARM GAS  C:\Users\ANDREW~1\AppData\Local\Temp\ccxC4OPZ.s 			page 86


 3412 02d7 05       		.uleb128 0x5
 3413 02d8 75       		.byte	0x75
 3414 02d9 00       		.sleb128 0
 3415 02da 74       		.byte	0x74
 3416 02db 00       		.sleb128 0
 3417 02dc 22       		.byte	0x22
 3418 02dd 00       		.byte	0
 3419 02de 00       		.byte	0
 3420 02df 00       		.byte	0
 3421 02e0 09       		.uleb128 0x9
 3422 02e1 BB040000 		.4byte	.LASF28
 3423 02e5 01       		.byte	0x1
 3424 02e6 0E02     		.2byte	0x20e
 3425 02e8 25000000 		.4byte	0x25
 3426 02ec 00000000 		.4byte	.LFB77
 3427 02f0 2E000000 		.4byte	.LFE77-.LFB77
 3428 02f4 01       		.uleb128 0x1
 3429 02f5 9C       		.byte	0x9c
 3430 02f6 55030000 		.4byte	0x355
 3431 02fa 14       		.uleb128 0x14
 3432 02fb A1060000 		.4byte	.LASF23
 3433 02ff 01       		.byte	0x1
 3434 0300 0E02     		.2byte	0x20e
 3435 0302 94000000 		.4byte	0x94
 3436 0306 93010000 		.4byte	.LLST10
 3437 030a 17       		.uleb128 0x17
 3438 030b 7C010000 		.4byte	.LASF24
 3439 030f 01       		.byte	0x1
 3440 0310 0F02     		.2byte	0x20f
 3441 0312 25000000 		.4byte	0x25
 3442 0316 02       		.uleb128 0x2
 3443 0317 91       		.byte	0x91
 3444 0318 68       		.sleb128 -24
 3445 0319 15       		.uleb128 0x15
 3446 031a 70747200 		.ascii	"ptr\000"
 3447 031e 01       		.byte	0x1
 3448 031f 1002     		.2byte	0x210
 3449 0321 68020000 		.4byte	0x268
 3450 0325 B4010000 		.4byte	.LLST11
 3451 0329 16       		.uleb128 0x16
 3452 032a 0E000000 		.4byte	.LBB4
 3453 032e 18000000 		.4byte	.LBE4-.LBB4
 3454 0332 15       		.uleb128 0x15
 3455 0333 6900     		.ascii	"i\000"
 3456 0335 01       		.byte	0x1
 3457 0336 1102     		.2byte	0x211
 3458 0338 88000000 		.4byte	0x88
 3459 033c D4010000 		.4byte	.LLST12
 3460 0340 11       		.uleb128 0x11
 3461 0341 1A000000 		.4byte	.LVL30
 3462 0345 FD130000 		.4byte	0x13fd
 3463 0349 10       		.uleb128 0x10
 3464 034a 01       		.uleb128 0x1
 3465 034b 50       		.byte	0x50
 3466 034c 05       		.uleb128 0x5
 3467 034d 75       		.byte	0x75
 3468 034e 00       		.sleb128 0
ARM GAS  C:\Users\ANDREW~1\AppData\Local\Temp\ccxC4OPZ.s 			page 87


 3469 034f 74       		.byte	0x74
 3470 0350 00       		.sleb128 0
 3471 0351 22       		.byte	0x22
 3472 0352 00       		.byte	0
 3473 0353 00       		.byte	0
 3474 0354 00       		.byte	0
 3475 0355 0D       		.uleb128 0xd
 3476 0356 7E050000 		.4byte	.LASF29
 3477 035a 01       		.byte	0x1
 3478 035b 1702     		.2byte	0x217
 3479 035d 00000000 		.4byte	.LFB78
 3480 0361 26000000 		.4byte	.LFE78-.LFB78
 3481 0365 01       		.uleb128 0x1
 3482 0366 9C       		.byte	0x9c
 3483 0367 C9030000 		.4byte	0x3c9
 3484 036b 14       		.uleb128 0x14
 3485 036c F3040000 		.4byte	.LASF30
 3486 0370 01       		.byte	0x1
 3487 0371 1702     		.2byte	0x217
 3488 0373 94000000 		.4byte	0x94
 3489 0377 FE010000 		.4byte	.LLST13
 3490 037b 14       		.uleb128 0x14
 3491 037c 9A040000 		.4byte	.LASF31
 3492 0380 01       		.byte	0x1
 3493 0381 1702     		.2byte	0x217
 3494 0383 C9030000 		.4byte	0x3c9
 3495 0387 1F020000 		.4byte	.LLST14
 3496 038b 14       		.uleb128 0x14
 3497 038c 58080000 		.4byte	.LASF32
 3498 0390 01       		.byte	0x1
 3499 0391 1702     		.2byte	0x217
 3500 0393 94000000 		.4byte	0x94
 3501 0397 3D020000 		.4byte	.LLST15
 3502 039b 16       		.uleb128 0x16
 3503 039c 08000000 		.4byte	.LBB5
 3504 03a0 1C000000 		.4byte	.LBE5-.LBB5
 3505 03a4 15       		.uleb128 0x15
 3506 03a5 6900     		.ascii	"i\000"
 3507 03a7 01       		.byte	0x1
 3508 03a8 1802     		.2byte	0x218
 3509 03aa 94000000 		.4byte	0x94
 3510 03ae 5E020000 		.4byte	.LLST16
 3511 03b2 11       		.uleb128 0x11
 3512 03b3 1C000000 		.4byte	.LVL37
 3513 03b7 6E020000 		.4byte	0x26e
 3514 03bb 10       		.uleb128 0x10
 3515 03bc 01       		.uleb128 0x1
 3516 03bd 50       		.byte	0x50
 3517 03be 07       		.uleb128 0x7
 3518 03bf 74       		.byte	0x74
 3519 03c0 00       		.sleb128 0
 3520 03c1 33       		.byte	0x33
 3521 03c2 24       		.byte	0x24
 3522 03c3 77       		.byte	0x77
 3523 03c4 00       		.sleb128 0
 3524 03c5 22       		.byte	0x22
 3525 03c6 00       		.byte	0
ARM GAS  C:\Users\ANDREW~1\AppData\Local\Temp\ccxC4OPZ.s 			page 88


 3526 03c7 00       		.byte	0
 3527 03c8 00       		.byte	0
 3528 03c9 06       		.uleb128 0x6
 3529 03ca 04       		.byte	0x4
 3530 03cb 25000000 		.4byte	0x25
 3531 03cf 0D       		.uleb128 0xd
 3532 03d0 5A050000 		.4byte	.LASF33
 3533 03d4 01       		.byte	0x1
 3534 03d5 1D02     		.2byte	0x21d
 3535 03d7 00000000 		.4byte	.LFB79
 3536 03db 2A000000 		.4byte	.LFE79-.LFB79
 3537 03df 01       		.uleb128 0x1
 3538 03e0 9C       		.byte	0x9c
 3539 03e1 43040000 		.4byte	0x443
 3540 03e5 14       		.uleb128 0x14
 3541 03e6 F3040000 		.4byte	.LASF30
 3542 03ea 01       		.byte	0x1
 3543 03eb 1D02     		.2byte	0x21d
 3544 03ed 94000000 		.4byte	0x94
 3545 03f1 88020000 		.4byte	.LLST17
 3546 03f5 14       		.uleb128 0x14
 3547 03f6 9A040000 		.4byte	.LASF31
 3548 03fa 01       		.byte	0x1
 3549 03fb 1D02     		.2byte	0x21d
 3550 03fd C9030000 		.4byte	0x3c9
 3551 0401 A9020000 		.4byte	.LLST18
 3552 0405 14       		.uleb128 0x14
 3553 0406 58080000 		.4byte	.LASF32
 3554 040a 01       		.byte	0x1
 3555 040b 1D02     		.2byte	0x21d
 3556 040d 94000000 		.4byte	0x94
 3557 0411 C7020000 		.4byte	.LLST19
 3558 0415 16       		.uleb128 0x16
 3559 0416 0A000000 		.4byte	.LBB6
 3560 041a 1C000000 		.4byte	.LBE6-.LBB6
 3561 041e 15       		.uleb128 0x15
 3562 041f 6900     		.ascii	"i\000"
 3563 0421 01       		.byte	0x1
 3564 0422 1E02     		.2byte	0x21e
 3565 0424 94000000 		.4byte	0x94
 3566 0428 E8020000 		.4byte	.LLST20
 3567 042c 11       		.uleb128 0x11
 3568 042d 1A000000 		.4byte	.LVL43
 3569 0431 E0020000 		.4byte	0x2e0
 3570 0435 10       		.uleb128 0x10
 3571 0436 01       		.uleb128 0x1
 3572 0437 50       		.byte	0x50
 3573 0438 07       		.uleb128 0x7
 3574 0439 74       		.byte	0x74
 3575 043a 00       		.sleb128 0
 3576 043b 33       		.byte	0x33
 3577 043c 24       		.byte	0x24
 3578 043d 78       		.byte	0x78
 3579 043e 00       		.sleb128 0
 3580 043f 22       		.byte	0x22
 3581 0440 00       		.byte	0
 3582 0441 00       		.byte	0
ARM GAS  C:\Users\ANDREW~1\AppData\Local\Temp\ccxC4OPZ.s 			page 89


 3583 0442 00       		.byte	0
 3584 0443 0D       		.uleb128 0xd
 3585 0444 AD050000 		.4byte	.LASF34
 3586 0448 01       		.byte	0x1
 3587 0449 3702     		.2byte	0x237
 3588 044b 00000000 		.4byte	.LFB80
 3589 044f 68000000 		.4byte	.LFE80-.LFB80
 3590 0453 01       		.uleb128 0x1
 3591 0454 9C       		.byte	0x9c
 3592 0455 D6040000 		.4byte	0x4d6
 3593 0459 0A       		.uleb128 0xa
 3594 045a 6E756D00 		.ascii	"num\000"
 3595 045e 01       		.byte	0x1
 3596 045f 3702     		.2byte	0x237
 3597 0461 6F000000 		.4byte	0x6f
 3598 0465 12030000 		.4byte	.LLST21
 3599 0469 13       		.uleb128 0x13
 3600 046a D3000000 		.4byte	.LASF35
 3601 046e 01       		.byte	0x1
 3602 046f 3902     		.2byte	0x239
 3603 0471 6F000000 		.4byte	0x6f
 3604 0475 30030000 		.4byte	.LLST22
 3605 0479 13       		.uleb128 0x13
 3606 047a CE050000 		.4byte	.LASF36
 3607 047e 01       		.byte	0x1
 3608 047f 3A02     		.2byte	0x23a
 3609 0481 6F000000 		.4byte	0x6f
 3610 0485 4F030000 		.4byte	.LLST23
 3611 0489 18       		.uleb128 0x18
 3612 048a 1A000000 		.4byte	.LBB7
 3613 048e 2A000000 		.4byte	.LBE7-.LBB7
 3614 0492 A5040000 		.4byte	0x4a5
 3615 0496 15       		.uleb128 0x15
 3616 0497 6900     		.ascii	"i\000"
 3617 0499 01       		.byte	0x1
 3618 049a 4202     		.2byte	0x242
 3619 049c 6F000000 		.4byte	0x6f
 3620 04a0 78030000 		.4byte	.LLST24
 3621 04a4 00       		.byte	0
 3622 04a5 16       		.uleb128 0x16
 3623 04a6 44000000 		.4byte	.LBB8
 3624 04aa 18000000 		.4byte	.LBE8-.LBB8
 3625 04ae 15       		.uleb128 0x15
 3626 04af 6900     		.ascii	"i\000"
 3627 04b1 01       		.byte	0x1
 3628 04b2 4702     		.2byte	0x247
 3629 04b4 6F000000 		.4byte	0x6f
 3630 04b8 8B030000 		.4byte	.LLST25
 3631 04bc 0E       		.uleb128 0xe
 3632 04bd 50000000 		.4byte	.LVL57
 3633 04c1 08140000 		.4byte	0x1408
 3634 04c5 11       		.uleb128 0x11
 3635 04c6 56000000 		.4byte	.LVL58
 3636 04ca 13140000 		.4byte	0x1413
 3637 04ce 10       		.uleb128 0x10
 3638 04cf 01       		.uleb128 0x1
 3639 04d0 50       		.byte	0x50
ARM GAS  C:\Users\ANDREW~1\AppData\Local\Temp\ccxC4OPZ.s 			page 90


 3640 04d1 01       		.uleb128 0x1
 3641 04d2 35       		.byte	0x35
 3642 04d3 00       		.byte	0
 3643 04d4 00       		.byte	0
 3644 04d5 00       		.byte	0
 3645 04d6 0D       		.uleb128 0xd
 3646 04d7 DB040000 		.4byte	.LASF37
 3647 04db 01       		.byte	0x1
 3648 04dc 5002     		.2byte	0x250
 3649 04de 00000000 		.4byte	.LFB81
 3650 04e2 1C000000 		.4byte	.LFE81-.LFB81
 3651 04e6 01       		.uleb128 0x1
 3652 04e7 9C       		.byte	0x9c
 3653 04e8 06050000 		.4byte	0x506
 3654 04ec 14       		.uleb128 0x14
 3655 04ed 0F010000 		.4byte	.LASF38
 3656 04f1 01       		.byte	0x1
 3657 04f2 5002     		.2byte	0x250
 3658 04f4 25000000 		.4byte	0x25
 3659 04f8 9E030000 		.4byte	.LLST26
 3660 04fc 0E       		.uleb128 0xe
 3661 04fd 0A000000 		.4byte	.LVL62
 3662 0501 B9010000 		.4byte	0x1b9
 3663 0505 00       		.byte	0
 3664 0506 19       		.uleb128 0x19
 3665 0507 41020000 		.4byte	.LASF39
 3666 050b 01       		.byte	0x1
 3667 050c 5502     		.2byte	0x255
 3668 050e 00000000 		.4byte	.LFB82
 3669 0512 34000000 		.4byte	.LFE82-.LFB82
 3670 0516 01       		.uleb128 0x1
 3671 0517 9C       		.byte	0x9c
 3672 0518 68050000 		.4byte	0x568
 3673 051c 14       		.uleb128 0x14
 3674 051d 0F010000 		.4byte	.LASF38
 3675 0521 01       		.byte	0x1
 3676 0522 5502     		.2byte	0x255
 3677 0524 25000000 		.4byte	0x25
 3678 0528 C6030000 		.4byte	.LLST27
 3679 052c 13       		.uleb128 0x13
 3680 052d 6D080000 		.4byte	.LASF40
 3681 0531 01       		.byte	0x1
 3682 0532 5702     		.2byte	0x257
 3683 0534 25000000 		.4byte	0x25
 3684 0538 EE030000 		.4byte	.LLST28
 3685 053c 0E       		.uleb128 0xe
 3686 053d 0A000000 		.4byte	.LVL64
 3687 0541 B9010000 		.4byte	0x1b9
 3688 0545 0F       		.uleb128 0xf
 3689 0546 24000000 		.4byte	.LVL67
 3690 054a 1E140000 		.4byte	0x141e
 3691 054e 58050000 		.4byte	0x558
 3692 0552 10       		.uleb128 0x10
 3693 0553 01       		.uleb128 0x1
 3694 0554 50       		.byte	0x50
 3695 0555 01       		.uleb128 0x1
 3696 0556 30       		.byte	0x30
ARM GAS  C:\Users\ANDREW~1\AppData\Local\Temp\ccxC4OPZ.s 			page 91


 3697 0557 00       		.byte	0
 3698 0558 11       		.uleb128 0x11
 3699 0559 2C000000 		.4byte	.LVL68
 3700 055d 1E140000 		.4byte	0x141e
 3701 0561 10       		.uleb128 0x10
 3702 0562 01       		.uleb128 0x1
 3703 0563 50       		.byte	0x50
 3704 0564 01       		.uleb128 0x1
 3705 0565 31       		.byte	0x31
 3706 0566 00       		.byte	0
 3707 0567 00       		.byte	0
 3708 0568 1A       		.uleb128 0x1a
 3709 0569 9C070000 		.4byte	.LASF45
 3710 056d 01       		.byte	0x1
 3711 056e DD02     		.2byte	0x2dd
 3712 0570 00000000 		.4byte	.LFB85
 3713 0574 24000000 		.4byte	.LFE85-.LFB85
 3714 0578 01       		.uleb128 0x1
 3715 0579 9C       		.byte	0x9c
 3716 057a C2050000 		.4byte	0x5c2
 3717 057e 0F       		.uleb128 0xf
 3718 057f 08000000 		.4byte	.LVL69
 3719 0583 29140000 		.4byte	0x1429
 3720 0587 91050000 		.4byte	0x591
 3721 058b 10       		.uleb128 0x10
 3722 058c 01       		.uleb128 0x1
 3723 058d 50       		.byte	0x50
 3724 058e 01       		.uleb128 0x1
 3725 058f 31       		.byte	0x31
 3726 0590 00       		.byte	0
 3727 0591 0F       		.uleb128 0xf
 3728 0592 0E000000 		.4byte	.LVL70
 3729 0596 34140000 		.4byte	0x1434
 3730 059a A5050000 		.4byte	0x5a5
 3731 059e 10       		.uleb128 0x10
 3732 059f 01       		.uleb128 0x1
 3733 05a0 50       		.byte	0x50
 3734 05a1 02       		.uleb128 0x2
 3735 05a2 08       		.byte	0x8
 3736 05a3 96       		.byte	0x96
 3737 05a4 00       		.byte	0
 3738 05a5 0F       		.uleb128 0xf
 3739 05a6 14000000 		.4byte	.LVL71
 3740 05aa 29140000 		.4byte	0x1429
 3741 05ae B8050000 		.4byte	0x5b8
 3742 05b2 10       		.uleb128 0x10
 3743 05b3 01       		.uleb128 0x1
 3744 05b4 50       		.byte	0x50
 3745 05b5 01       		.uleb128 0x1
 3746 05b6 30       		.byte	0x30
 3747 05b7 00       		.byte	0
 3748 05b8 0E       		.uleb128 0xe
 3749 05b9 18000000 		.4byte	.LVL72
 3750 05bd 3F140000 		.4byte	0x143f
 3751 05c1 00       		.byte	0
 3752 05c2 1B       		.uleb128 0x1b
 3753 05c3 9C030000 		.4byte	.LASF41
ARM GAS  C:\Users\ANDREW~1\AppData\Local\Temp\ccxC4OPZ.s 			page 92


 3754 05c7 01       		.byte	0x1
 3755 05c8 F902     		.2byte	0x2f9
 3756 05ca A0000000 		.4byte	0xa0
 3757 05ce 00000000 		.4byte	.LFB88
 3758 05d2 C8000000 		.4byte	.LFE88-.LFB88
 3759 05d6 01       		.uleb128 0x1
 3760 05d7 9C       		.byte	0x9c
 3761 05d8 31060000 		.4byte	0x631
 3762 05dc 0A       		.uleb128 0xa
 3763 05dd 61727200 		.ascii	"arr\000"
 3764 05e1 01       		.byte	0x1
 3765 05e2 F902     		.2byte	0x2f9
 3766 05e4 31060000 		.4byte	0x631
 3767 05e8 06040000 		.4byte	.LLST29
 3768 05ec 14       		.uleb128 0x14
 3769 05ed 2A040000 		.4byte	.LASF42
 3770 05f1 01       		.byte	0x1
 3771 05f2 F902     		.2byte	0x2f9
 3772 05f4 6F000000 		.4byte	0x6f
 3773 05f8 32040000 		.4byte	.LLST30
 3774 05fc 13       		.uleb128 0x13
 3775 05fd AA000000 		.4byte	.LASF43
 3776 0601 01       		.byte	0x1
 3777 0602 FB02     		.2byte	0x2fb
 3778 0604 25000000 		.4byte	0x25
 3779 0608 84040000 		.4byte	.LLST31
 3780 060c 11       		.uleb128 0x11
 3781 060d 0E000000 		.4byte	.LVL74
 3782 0611 4A140000 		.4byte	0x144a
 3783 0615 10       		.uleb128 0x10
 3784 0616 01       		.uleb128 0x1
 3785 0617 50       		.byte	0x50
 3786 0618 02       		.uleb128 0x2
 3787 0619 75       		.byte	0x75
 3788 061a 00       		.sleb128 0
 3789 061b 10       		.uleb128 0x10
 3790 061c 01       		.uleb128 0x1
 3791 061d 51       		.byte	0x51
 3792 061e 02       		.uleb128 0x2
 3793 061f 74       		.byte	0x74
 3794 0620 00       		.sleb128 0
 3795 0621 10       		.uleb128 0x10
 3796 0622 01       		.uleb128 0x1
 3797 0623 52       		.byte	0x52
 3798 0624 01       		.uleb128 0x1
 3799 0625 34       		.byte	0x34
 3800 0626 10       		.uleb128 0x10
 3801 0627 01       		.uleb128 0x1
 3802 0628 53       		.byte	0x53
 3803 0629 05       		.uleb128 0x5
 3804 062a 03       		.byte	0x3
 3805 062b 00000000 		.4byte	compare_qsort
 3806 062f 00       		.byte	0
 3807 0630 00       		.byte	0
 3808 0631 06       		.uleb128 0x6
 3809 0632 04       		.byte	0x4
 3810 0633 A0000000 		.4byte	0xa0
ARM GAS  C:\Users\ANDREW~1\AppData\Local\Temp\ccxC4OPZ.s 			page 93


 3811 0637 0D       		.uleb128 0xd
 3812 0638 39000000 		.4byte	.LASF44
 3813 063c 01       		.byte	0x1
 3814 063d 1C03     		.2byte	0x31c
 3815 063f 00000000 		.4byte	.LFB90
 3816 0643 0C000000 		.4byte	.LFE90-.LFB90
 3817 0647 01       		.uleb128 0x1
 3818 0648 9C       		.byte	0x9c
 3819 0649 61060000 		.4byte	0x661
 3820 064d 1C       		.uleb128 0x1c
 3821 064e 7C010000 		.4byte	.LASF24
 3822 0652 01       		.byte	0x1
 3823 0653 1C03     		.2byte	0x31c
 3824 0655 25000000 		.4byte	0x25
 3825 0659 06       		.uleb128 0x6
 3826 065a 50       		.byte	0x50
 3827 065b 93       		.byte	0x93
 3828 065c 04       		.uleb128 0x4
 3829 065d 51       		.byte	0x51
 3830 065e 93       		.byte	0x93
 3831 065f 04       		.uleb128 0x4
 3832 0660 00       		.byte	0
 3833 0661 1A       		.uleb128 0x1a
 3834 0662 36040000 		.4byte	.LASF46
 3835 0666 01       		.byte	0x1
 3836 0667 C703     		.2byte	0x3c7
 3837 0669 00000000 		.4byte	.LFB92
 3838 066d 1C000000 		.4byte	.LFE92-.LFB92
 3839 0671 01       		.uleb128 0x1
 3840 0672 9C       		.byte	0x9c
 3841 0673 C0060000 		.4byte	0x6c0
 3842 0677 0F       		.uleb128 0xf
 3843 0678 08000000 		.4byte	.LVL95
 3844 067c 55140000 		.4byte	0x1455
 3845 0680 8A060000 		.4byte	0x68a
 3846 0684 10       		.uleb128 0x10
 3847 0685 01       		.uleb128 0x1
 3848 0686 50       		.byte	0x50
 3849 0687 01       		.uleb128 0x1
 3850 0688 31       		.byte	0x31
 3851 0689 00       		.byte	0
 3852 068a 0F       		.uleb128 0xf
 3853 068b 0E000000 		.4byte	.LVL96
 3854 068f 60140000 		.4byte	0x1460
 3855 0693 9D060000 		.4byte	0x69d
 3856 0697 10       		.uleb128 0x10
 3857 0698 01       		.uleb128 0x1
 3858 0699 50       		.byte	0x50
 3859 069a 01       		.uleb128 0x1
 3860 069b 31       		.byte	0x31
 3861 069c 00       		.byte	0
 3862 069d 0F       		.uleb128 0xf
 3863 069e 14000000 		.4byte	.LVL97
 3864 06a2 6B140000 		.4byte	0x146b
 3865 06a6 B0060000 		.4byte	0x6b0
 3866 06aa 10       		.uleb128 0x10
 3867 06ab 01       		.uleb128 0x1
ARM GAS  C:\Users\ANDREW~1\AppData\Local\Temp\ccxC4OPZ.s 			page 94


 3868 06ac 50       		.byte	0x50
 3869 06ad 01       		.uleb128 0x1
 3870 06ae 31       		.byte	0x31
 3871 06af 00       		.byte	0
 3872 06b0 11       		.uleb128 0x11
 3873 06b1 1A000000 		.4byte	.LVL98
 3874 06b5 76140000 		.4byte	0x1476
 3875 06b9 10       		.uleb128 0x10
 3876 06ba 01       		.uleb128 0x1
 3877 06bb 50       		.byte	0x50
 3878 06bc 01       		.uleb128 0x1
 3879 06bd 31       		.byte	0x31
 3880 06be 00       		.byte	0
 3881 06bf 00       		.byte	0
 3882 06c0 0D       		.uleb128 0xd
 3883 06c1 42040000 		.4byte	.LASF47
 3884 06c5 01       		.byte	0x1
 3885 06c6 EB03     		.2byte	0x3eb
 3886 06c8 00000000 		.4byte	.LFB93
 3887 06cc 88000000 		.4byte	.LFE93-.LFB93
 3888 06d0 01       		.uleb128 0x1
 3889 06d1 9C       		.byte	0x9c
 3890 06d2 73070000 		.4byte	0x773
 3891 06d6 14       		.uleb128 0x14
 3892 06d7 57060000 		.4byte	.LASF48
 3893 06db 01       		.byte	0x1
 3894 06dc EB03     		.2byte	0x3eb
 3895 06de 6F000000 		.4byte	0x6f
 3896 06e2 AC040000 		.4byte	.LLST32
 3897 06e6 0A       		.uleb128 0xa
 3898 06e7 647000   		.ascii	"dp\000"
 3899 06ea 01       		.byte	0x1
 3900 06eb EB03     		.2byte	0x3eb
 3901 06ed 6F000000 		.4byte	0x6f
 3902 06f1 CD040000 		.4byte	.LLST33
 3903 06f5 13       		.uleb128 0x13
 3904 06f6 4C040000 		.4byte	.LASF49
 3905 06fa 01       		.byte	0x1
 3906 06fb ED03     		.2byte	0x3ed
 3907 06fd BC000000 		.4byte	0xbc
 3908 0701 F9040000 		.4byte	.LLST34
 3909 0705 18       		.uleb128 0x18
 3910 0706 0A000000 		.4byte	.LBB9
 3911 070a 14000000 		.4byte	.LBE9-.LBB9
 3912 070e 21070000 		.4byte	0x721
 3913 0712 15       		.uleb128 0x15
 3914 0713 6900     		.ascii	"i\000"
 3915 0715 01       		.byte	0x1
 3916 0716 F003     		.2byte	0x3f0
 3917 0718 6F000000 		.4byte	0x6f
 3918 071c 22050000 		.4byte	.LLST35
 3919 0720 00       		.byte	0
 3920 0721 0E       		.uleb128 0xe
 3921 0722 2C000000 		.4byte	.LVL104
 3922 0726 81140000 		.4byte	0x1481
 3923 072a 0E       		.uleb128 0xe
 3924 072b 38000000 		.4byte	.LVL105
ARM GAS  C:\Users\ANDREW~1\AppData\Local\Temp\ccxC4OPZ.s 			page 95


 3925 072f 8C140000 		.4byte	0x148c
 3926 0733 0E       		.uleb128 0xe
 3927 0734 44000000 		.4byte	.LVL106
 3928 0738 97140000 		.4byte	0x1497
 3929 073c 0E       		.uleb128 0xe
 3930 073d 50000000 		.4byte	.LVL107
 3931 0741 A2140000 		.4byte	0x14a2
 3932 0745 0E       		.uleb128 0xe
 3933 0746 5C000000 		.4byte	.LVL108
 3934 074a AD140000 		.4byte	0x14ad
 3935 074e 0E       		.uleb128 0xe
 3936 074f 68000000 		.4byte	.LVL109
 3937 0753 B8140000 		.4byte	0x14b8
 3938 0757 0E       		.uleb128 0xe
 3939 0758 74000000 		.4byte	.LVL110
 3940 075c C3140000 		.4byte	0x14c3
 3941 0760 11       		.uleb128 0x11
 3942 0761 7E000000 		.4byte	.LVL111
 3943 0765 CE140000 		.4byte	0x14ce
 3944 0769 10       		.uleb128 0x10
 3945 076a 01       		.uleb128 0x1
 3946 076b 50       		.byte	0x50
 3947 076c 04       		.uleb128 0x4
 3948 076d 75       		.byte	0x75
 3949 076e 00       		.sleb128 0
 3950 076f 30       		.byte	0x30
 3951 0770 29       		.byte	0x29
 3952 0771 00       		.byte	0
 3953 0772 00       		.byte	0
 3954 0773 19       		.uleb128 0x19
 3955 0774 BD060000 		.4byte	.LASF50
 3956 0778 01       		.byte	0x1
 3957 0779 2003     		.2byte	0x320
 3958 077b 00000000 		.4byte	.LFB91
 3959 077f 64030000 		.4byte	.LFE91-.LFB91
 3960 0783 01       		.uleb128 0x1
 3961 0784 9C       		.byte	0x9c
 3962 0785 81080000 		.4byte	0x881
 3963 0789 14       		.uleb128 0x14
 3964 078a 7C010000 		.4byte	.LASF24
 3965 078e 01       		.byte	0x1
 3966 078f 2003     		.2byte	0x320
 3967 0791 25000000 		.4byte	0x25
 3968 0795 41050000 		.4byte	.LLST36
 3969 0799 18       		.uleb128 0x18
 3970 079a 14000000 		.4byte	.LBB10
 3971 079e 10000000 		.4byte	.LBE10-.LBB10
 3972 07a2 B5070000 		.4byte	0x7b5
 3973 07a6 15       		.uleb128 0x15
 3974 07a7 6900     		.ascii	"i\000"
 3975 07a9 01       		.byte	0x1
 3976 07aa 2A03     		.2byte	0x32a
 3977 07ac 6F000000 		.4byte	0x6f
 3978 07b0 99050000 		.4byte	.LLST37
 3979 07b4 00       		.byte	0
 3980 07b5 1D       		.uleb128 0x1d
 3981 07b6 00000000 		.4byte	.Ldebug_ranges0+0
ARM GAS  C:\Users\ANDREW~1\AppData\Local\Temp\ccxC4OPZ.s 			page 96


 3982 07ba E3070000 		.4byte	0x7e3
 3983 07be 13       		.uleb128 0x13
 3984 07bf 5C010000 		.4byte	.LASF51
 3985 07c3 01       		.byte	0x1
 3986 07c4 3403     		.2byte	0x334
 3987 07c6 A0000000 		.4byte	0xa0
 3988 07ca AC050000 		.4byte	.LLST38
 3989 07ce 1E       		.uleb128 0x1e
 3990 07cf 18000000 		.4byte	.Ldebug_ranges0+0x18
 3991 07d3 15       		.uleb128 0x15
 3992 07d4 6900     		.ascii	"i\000"
 3993 07d6 01       		.byte	0x1
 3994 07d7 3003     		.2byte	0x330
 3995 07d9 6F000000 		.4byte	0x6f
 3996 07dd CA050000 		.4byte	.LLST39
 3997 07e1 00       		.byte	0
 3998 07e2 00       		.byte	0
 3999 07e3 0F       		.uleb128 0xf
 4000 07e4 EE020000 		.4byte	.LVL159
 4001 07e8 55140000 		.4byte	0x1455
 4002 07ec F6070000 		.4byte	0x7f6
 4003 07f0 10       		.uleb128 0x10
 4004 07f1 01       		.uleb128 0x1
 4005 07f2 50       		.byte	0x50
 4006 07f3 01       		.uleb128 0x1
 4007 07f4 31       		.byte	0x31
 4008 07f5 00       		.byte	0
 4009 07f6 0F       		.uleb128 0xf
 4010 07f7 F4020000 		.4byte	.LVL160
 4011 07fb 60140000 		.4byte	0x1460
 4012 07ff 09080000 		.4byte	0x809
 4013 0803 10       		.uleb128 0x10
 4014 0804 01       		.uleb128 0x1
 4015 0805 50       		.byte	0x50
 4016 0806 01       		.uleb128 0x1
 4017 0807 31       		.byte	0x31
 4018 0808 00       		.byte	0
 4019 0809 0F       		.uleb128 0xf
 4020 080a FA020000 		.4byte	.LVL161
 4021 080e 6B140000 		.4byte	0x146b
 4022 0812 1C080000 		.4byte	0x81c
 4023 0816 10       		.uleb128 0x10
 4024 0817 01       		.uleb128 0x1
 4025 0818 50       		.byte	0x50
 4026 0819 01       		.uleb128 0x1
 4027 081a 31       		.byte	0x31
 4028 081b 00       		.byte	0
 4029 081c 0F       		.uleb128 0xf
 4030 081d 00030000 		.4byte	.LVL162
 4031 0821 76140000 		.4byte	0x1476
 4032 0825 2F080000 		.4byte	0x82f
 4033 0829 10       		.uleb128 0x10
 4034 082a 01       		.uleb128 0x1
 4035 082b 50       		.byte	0x50
 4036 082c 01       		.uleb128 0x1
 4037 082d 31       		.byte	0x31
 4038 082e 00       		.byte	0
ARM GAS  C:\Users\ANDREW~1\AppData\Local\Temp\ccxC4OPZ.s 			page 97


 4039 082f 0E       		.uleb128 0xe
 4040 0830 16030000 		.4byte	.LVL163
 4041 0834 C0060000 		.4byte	0x6c0
 4042 0838 0F       		.uleb128 0xf
 4043 0839 20030000 		.4byte	.LVL164
 4044 083d 55140000 		.4byte	0x1455
 4045 0841 4B080000 		.4byte	0x84b
 4046 0845 10       		.uleb128 0x10
 4047 0846 01       		.uleb128 0x1
 4048 0847 50       		.byte	0x50
 4049 0848 01       		.uleb128 0x1
 4050 0849 30       		.byte	0x30
 4051 084a 00       		.byte	0
 4052 084b 0F       		.uleb128 0xf
 4053 084c 2C030000 		.4byte	.LVL165
 4054 0850 60140000 		.4byte	0x1460
 4055 0854 5E080000 		.4byte	0x85e
 4056 0858 10       		.uleb128 0x10
 4057 0859 01       		.uleb128 0x1
 4058 085a 50       		.byte	0x50
 4059 085b 01       		.uleb128 0x1
 4060 085c 30       		.byte	0x30
 4061 085d 00       		.byte	0
 4062 085e 0F       		.uleb128 0xf
 4063 085f 38030000 		.4byte	.LVL166
 4064 0863 6B140000 		.4byte	0x146b
 4065 0867 71080000 		.4byte	0x871
 4066 086b 10       		.uleb128 0x10
 4067 086c 01       		.uleb128 0x1
 4068 086d 50       		.byte	0x50
 4069 086e 01       		.uleb128 0x1
 4070 086f 30       		.byte	0x30
 4071 0870 00       		.byte	0
 4072 0871 11       		.uleb128 0x11
 4073 0872 44030000 		.4byte	.LVL167
 4074 0876 76140000 		.4byte	0x1476
 4075 087a 10       		.uleb128 0x10
 4076 087b 01       		.uleb128 0x1
 4077 087c 50       		.byte	0x50
 4078 087d 01       		.uleb128 0x1
 4079 087e 30       		.byte	0x30
 4080 087f 00       		.byte	0
 4081 0880 00       		.byte	0
 4082 0881 1A       		.uleb128 0x1a
 4083 0882 86020000 		.4byte	.LASF52
 4084 0886 01       		.byte	0x1
 4085 0887 E201     		.2byte	0x1e2
 4086 0889 00000000 		.4byte	.LFB73
 4087 088d 30000000 		.4byte	.LFE73-.LFB73
 4088 0891 01       		.uleb128 0x1
 4089 0892 9C       		.byte	0x9c
 4090 0893 BC080000 		.4byte	0x8bc
 4091 0897 0E       		.uleb128 0xe
 4092 0898 0C000000 		.4byte	.LVL169
 4093 089c 06050000 		.4byte	0x506
 4094 08a0 0E       		.uleb128 0xe
 4095 08a1 14000000 		.4byte	.LVL170
ARM GAS  C:\Users\ANDREW~1\AppData\Local\Temp\ccxC4OPZ.s 			page 98


 4096 08a5 73070000 		.4byte	0x773
 4097 08a9 0E       		.uleb128 0xe
 4098 08aa 20000000 		.4byte	.LVL171
 4099 08ae 80010000 		.4byte	0x180
 4100 08b2 0E       		.uleb128 0xe
 4101 08b3 26000000 		.4byte	.LVL172
 4102 08b7 47010000 		.4byte	0x147
 4103 08bb 00       		.byte	0
 4104 08bc 1F       		.uleb128 0x1f
 4105 08bd 34070000 		.4byte	.LASF53
 4106 08c1 01       		.byte	0x1
 4107 08c2 F4       		.byte	0xf4
 4108 08c3 00000000 		.4byte	.LFB65
 4109 08c7 34010000 		.4byte	.LFE65-.LFB65
 4110 08cb 01       		.uleb128 0x1
 4111 08cc 9C       		.byte	0x9c
 4112 08cd 1C0A0000 		.4byte	0xa1c
 4113 08d1 20       		.uleb128 0x20
 4114 08d2 29020000 		.4byte	.LASF54
 4115 08d6 01       		.byte	0x1
 4116 08d7 F6       		.byte	0xf6
 4117 08d8 25000000 		.4byte	0x25
 4118 08dc E8050000 		.4byte	.LLST40
 4119 08e0 18       		.uleb128 0x18
 4120 08e1 0C000000 		.4byte	.LBB15
 4121 08e5 00010000 		.4byte	.LBE15-.LBB15
 4122 08e9 120A0000 		.4byte	0xa12
 4123 08ed 20       		.uleb128 0x20
 4124 08ee 40030000 		.4byte	.LASF55
 4125 08f2 01       		.byte	0x1
 4126 08f3 FD       		.byte	0xfd
 4127 08f4 25000000 		.4byte	0x25
 4128 08f8 10060000 		.4byte	.LLST41
 4129 08fc 18       		.uleb128 0x18
 4130 08fd 6E000000 		.4byte	.LBB16
 4131 0901 9A000000 		.4byte	.LBE16-.LBB16
 4132 0905 D2090000 		.4byte	0x9d2
 4133 0909 13       		.uleb128 0x13
 4134 090a 00000000 		.4byte	.LASF56
 4135 090e 01       		.byte	0x1
 4136 090f 0901     		.2byte	0x109
 4137 0911 25000000 		.4byte	0x25
 4138 0915 28060000 		.4byte	.LLST42
 4139 0919 0E       		.uleb128 0xe
 4140 091a 72000000 		.4byte	.LVL188
 4141 091e B9010000 		.4byte	0x1b9
 4142 0922 0E       		.uleb128 0xe
 4143 0923 7C000000 		.4byte	.LVL191
 4144 0927 81080000 		.4byte	0x881
 4145 092b 0E       		.uleb128 0xe
 4146 092c 80000000 		.4byte	.LVL192
 4147 0930 B9010000 		.4byte	0x1b9
 4148 0934 0E       		.uleb128 0xe
 4149 0935 9A000000 		.4byte	.LVL195
 4150 0939 D9140000 		.4byte	0x14d9
 4151 093d 0E       		.uleb128 0xe
 4152 093e A0000000 		.4byte	.LVL196
ARM GAS  C:\Users\ANDREW~1\AppData\Local\Temp\ccxC4OPZ.s 			page 99


 4153 0942 E4140000 		.4byte	0x14e4
 4154 0946 0F       		.uleb128 0xf
 4155 0947 AC000000 		.4byte	.LVL197
 4156 094b D6040000 		.4byte	0x4d6
 4157 094f 68090000 		.4byte	0x968
 4158 0953 10       		.uleb128 0x10
 4159 0954 06       		.uleb128 0x6
 4160 0955 50       		.byte	0x50
 4161 0956 93       		.byte	0x93
 4162 0957 04       		.uleb128 0x4
 4163 0958 51       		.byte	0x51
 4164 0959 93       		.byte	0x93
 4165 095a 04       		.uleb128 0x4
 4166 095b 0B       		.uleb128 0xb
 4167 095c F4       		.byte	0xf4
 4168 095d 25       		.uleb128 0x25
 4169 095e 08       		.byte	0x8
 4170 095f 9A999999 		.4byte	0x9999999a
 4171 0963 9999C93F 		.4byte	0x3fc99999
 4172 0967 00       		.byte	0
 4173 0968 0E       		.uleb128 0xe
 4174 0969 B0000000 		.4byte	.LVL198
 4175 096d B9010000 		.4byte	0x1b9
 4176 0971 0E       		.uleb128 0xe
 4177 0972 BA000000 		.4byte	.LVL201
 4178 0976 81080000 		.4byte	0x881
 4179 097a 0E       		.uleb128 0xe
 4180 097b BE000000 		.4byte	.LVL202
 4181 097f B9010000 		.4byte	0x1b9
 4182 0983 0F       		.uleb128 0xf
 4183 0984 D6000000 		.4byte	.LVL205
 4184 0988 EF140000 		.4byte	0x14ef
 4185 098c 9A090000 		.4byte	0x99a
 4186 0990 10       		.uleb128 0x10
 4187 0991 01       		.uleb128 0x1
 4188 0992 50       		.byte	0x50
 4189 0993 05       		.uleb128 0x5
 4190 0994 03       		.byte	0x3
 4191 0995 00000000 		.4byte	.LC0
 4192 0999 00       		.byte	0
 4193 099a 0F       		.uleb128 0xf
 4194 099b DC000000 		.4byte	.LVL206
 4195 099f 13140000 		.4byte	0x1413
 4196 09a3 AD090000 		.4byte	0x9ad
 4197 09a7 10       		.uleb128 0x10
 4198 09a8 01       		.uleb128 0x1
 4199 09a9 50       		.byte	0x50
 4200 09aa 01       		.uleb128 0x1
 4201 09ab 35       		.byte	0x35
 4202 09ac 00       		.byte	0
 4203 09ad 0E       		.uleb128 0xe
 4204 09ae E8000000 		.4byte	.LVL207
 4205 09b2 D9140000 		.4byte	0x14d9
 4206 09b6 0E       		.uleb128 0xe
 4207 09b7 EE000000 		.4byte	.LVL208
 4208 09bb E4140000 		.4byte	0x14e4
 4209 09bf 0E       		.uleb128 0xe
ARM GAS  C:\Users\ANDREW~1\AppData\Local\Temp\ccxC4OPZ.s 			page 100


 4210 09c0 F8000000 		.4byte	.LVL209
 4211 09c4 D9140000 		.4byte	0x14d9
 4212 09c8 0E       		.uleb128 0xe
 4213 09c9 00010000 		.4byte	.LVL210
 4214 09cd E4140000 		.4byte	0x14e4
 4215 09d1 00       		.byte	0
 4216 09d2 0E       		.uleb128 0xe
 4217 09d3 10000000 		.4byte	.LVL175
 4218 09d7 B9010000 		.4byte	0x1b9
 4219 09db 0E       		.uleb128 0xe
 4220 09dc 2E000000 		.4byte	.LVL179
 4221 09e0 37060000 		.4byte	0x637
 4222 09e4 0E       		.uleb128 0xe
 4223 09e5 56000000 		.4byte	.LVL182
 4224 09e9 37060000 		.4byte	0x637
 4225 09ed 0E       		.uleb128 0xe
 4226 09ee 5C000000 		.4byte	.LVL183
 4227 09f2 B9010000 		.4byte	0x1b9
 4228 09f6 0E       		.uleb128 0xe
 4229 09f7 64000000 		.4byte	.LVL186
 4230 09fb D9140000 		.4byte	0x14d9
 4231 09ff 0E       		.uleb128 0xe
 4232 0a00 6A000000 		.4byte	.LVL187
 4233 0a04 E4140000 		.4byte	0x14e4
 4234 0a08 0E       		.uleb128 0xe
 4235 0a09 0C010000 		.4byte	.LVL212
 4236 0a0d 81080000 		.4byte	0x881
 4237 0a11 00       		.byte	0
 4238 0a12 0E       		.uleb128 0xe
 4239 0a13 06000000 		.4byte	.LVL173
 4240 0a17 B9010000 		.4byte	0x1b9
 4241 0a1b 00       		.byte	0
 4242 0a1c 0D       		.uleb128 0xd
 4243 0a1d 28030000 		.4byte	.LASF57
 4244 0a21 01       		.byte	0x1
 4245 0a22 D001     		.2byte	0x1d0
 4246 0a24 00000000 		.4byte	.LFB71
 4247 0a28 22000000 		.4byte	.LFE71-.LFB71
 4248 0a2c 01       		.uleb128 0x1
 4249 0a2d 9C       		.byte	0x9c
 4250 0a2e 570A0000 		.4byte	0xa57
 4251 0a32 0E       		.uleb128 0xe
 4252 0a33 08000000 		.4byte	.LVL214
 4253 0a37 81080000 		.4byte	0x881
 4254 0a3b 0E       		.uleb128 0xe
 4255 0a3c 0C000000 		.4byte	.LVL215
 4256 0a40 FA140000 		.4byte	0x14fa
 4257 0a44 0E       		.uleb128 0xe
 4258 0a45 14000000 		.4byte	.LVL216
 4259 0a49 05150000 		.4byte	0x1505
 4260 0a4d 0E       		.uleb128 0xe
 4261 0a4e 1C000000 		.4byte	.LVL217
 4262 0a52 10150000 		.4byte	0x1510
 4263 0a56 00       		.byte	0
 4264 0a57 19       		.uleb128 0x19
 4265 0a58 3B070000 		.4byte	.LASF58
 4266 0a5c 01       		.byte	0x1
ARM GAS  C:\Users\ANDREW~1\AppData\Local\Temp\ccxC4OPZ.s 			page 101


 4267 0a5d 2F01     		.2byte	0x12f
 4268 0a5f 00000000 		.4byte	.LFB66
 4269 0a63 D8000000 		.4byte	.LFE66-.LFB66
 4270 0a67 01       		.uleb128 0x1
 4271 0a68 9C       		.byte	0x9c
 4272 0a69 5D0B0000 		.4byte	0xb5d
 4273 0a6d 13       		.uleb128 0x13
 4274 0a6e 22000000 		.4byte	.LASF59
 4275 0a72 01       		.byte	0x1
 4276 0a73 3101     		.2byte	0x131
 4277 0a75 25000000 		.4byte	0x25
 4278 0a79 50060000 		.4byte	.LLST43
 4279 0a7d 16       		.uleb128 0x16
 4280 0a7e 08000000 		.4byte	.LBB17
 4281 0a82 AC000000 		.4byte	.LBE17-.LBB17
 4282 0a86 13       		.uleb128 0x13
 4283 0a87 40030000 		.4byte	.LASF55
 4284 0a8b 01       		.byte	0x1
 4285 0a8c 3601     		.2byte	0x136
 4286 0a8e 25000000 		.4byte	0x25
 4287 0a92 8C060000 		.4byte	.LLST44
 4288 0a96 0E       		.uleb128 0xe
 4289 0a97 0C000000 		.4byte	.LVL220
 4290 0a9b 81080000 		.4byte	0x881
 4291 0a9f 0E       		.uleb128 0xe
 4292 0aa0 10000000 		.4byte	.LVL221
 4293 0aa4 B9010000 		.4byte	0x1b9
 4294 0aa8 0E       		.uleb128 0xe
 4295 0aa9 32000000 		.4byte	.LVL226
 4296 0aad 37060000 		.4byte	0x637
 4297 0ab1 0E       		.uleb128 0xe
 4298 0ab2 58000000 		.4byte	.LVL229
 4299 0ab6 37060000 		.4byte	0x637
 4300 0aba 0E       		.uleb128 0xe
 4301 0abb 5E000000 		.4byte	.LVL230
 4302 0abf B9010000 		.4byte	0x1b9
 4303 0ac3 0E       		.uleb128 0xe
 4304 0ac4 66000000 		.4byte	.LVL233
 4305 0ac8 05150000 		.4byte	0x1505
 4306 0acc 0E       		.uleb128 0xe
 4307 0acd 6C000000 		.4byte	.LVL234
 4308 0ad1 1C0A0000 		.4byte	0xa1c
 4309 0ad5 0F       		.uleb128 0xf
 4310 0ad6 76000000 		.4byte	.LVL235
 4311 0ada D6040000 		.4byte	0x4d6
 4312 0ade F70A0000 		.4byte	0xaf7
 4313 0ae2 10       		.uleb128 0x10
 4314 0ae3 06       		.uleb128 0x6
 4315 0ae4 50       		.byte	0x50
 4316 0ae5 93       		.byte	0x93
 4317 0ae6 04       		.uleb128 0x4
 4318 0ae7 51       		.byte	0x51
 4319 0ae8 93       		.byte	0x93
 4320 0ae9 04       		.uleb128 0x4
 4321 0aea 0B       		.uleb128 0xb
 4322 0aeb F4       		.byte	0xf4
 4323 0aec 25       		.uleb128 0x25
ARM GAS  C:\Users\ANDREW~1\AppData\Local\Temp\ccxC4OPZ.s 			page 102


 4324 0aed 08       		.byte	0x8
 4325 0aee 9A999999 		.4byte	0x9999999a
 4326 0af2 9999C93F 		.4byte	0x3fc99999
 4327 0af6 00       		.byte	0
 4328 0af7 0E       		.uleb128 0xe
 4329 0af8 80000000 		.4byte	.LVL236
 4330 0afc FA140000 		.4byte	0x14fa
 4331 0b00 0E       		.uleb128 0xe
 4332 0b01 86000000 		.4byte	.LVL237
 4333 0b05 1C0A0000 		.4byte	0xa1c
 4334 0b09 0F       		.uleb128 0xf
 4335 0b0a 90000000 		.4byte	.LVL238
 4336 0b0e D6040000 		.4byte	0x4d6
 4337 0b12 2B0B0000 		.4byte	0xb2b
 4338 0b16 10       		.uleb128 0x10
 4339 0b17 06       		.uleb128 0x6
 4340 0b18 50       		.byte	0x50
 4341 0b19 93       		.byte	0x93
 4342 0b1a 04       		.uleb128 0x4
 4343 0b1b 51       		.byte	0x51
 4344 0b1c 93       		.byte	0x93
 4345 0b1d 04       		.uleb128 0x4
 4346 0b1e 0B       		.uleb128 0xb
 4347 0b1f F4       		.byte	0xf4
 4348 0b20 25       		.uleb128 0x25
 4349 0b21 08       		.byte	0x8
 4350 0b22 9A999999 		.4byte	0x9999999a
 4351 0b26 9999C93F 		.4byte	0x3fc99999
 4352 0b2a 00       		.byte	0
 4353 0b2b 0E       		.uleb128 0xe
 4354 0b2c 9C000000 		.4byte	.LVL239
 4355 0b30 10150000 		.4byte	0x1510
 4356 0b34 0E       		.uleb128 0xe
 4357 0b35 A2000000 		.4byte	.LVL240
 4358 0b39 1C0A0000 		.4byte	0xa1c
 4359 0b3d 11       		.uleb128 0x11
 4360 0b3e AC000000 		.4byte	.LVL241
 4361 0b42 D6040000 		.4byte	0x4d6
 4362 0b46 10       		.uleb128 0x10
 4363 0b47 06       		.uleb128 0x6
 4364 0b48 50       		.byte	0x50
 4365 0b49 93       		.byte	0x93
 4366 0b4a 04       		.uleb128 0x4
 4367 0b4b 51       		.byte	0x51
 4368 0b4c 93       		.byte	0x93
 4369 0b4d 04       		.uleb128 0x4
 4370 0b4e 0B       		.uleb128 0xb
 4371 0b4f F4       		.byte	0xf4
 4372 0b50 25       		.uleb128 0x25
 4373 0b51 08       		.byte	0x8
 4374 0b52 9A999999 		.4byte	0x9999999a
 4375 0b56 9999C93F 		.4byte	0x3fc99999
 4376 0b5a 00       		.byte	0
 4377 0b5b 00       		.byte	0
 4378 0b5c 00       		.byte	0
 4379 0b5d 0D       		.uleb128 0xd
 4380 0b5e 42070000 		.4byte	.LASF60
ARM GAS  C:\Users\ANDREW~1\AppData\Local\Temp\ccxC4OPZ.s 			page 103


 4381 0b62 01       		.byte	0x1
 4382 0b63 5F01     		.2byte	0x15f
 4383 0b65 00000000 		.4byte	.LFB67
 4384 0b69 AC000000 		.4byte	.LFE67-.LFB67
 4385 0b6d 01       		.uleb128 0x1
 4386 0b6e 9C       		.byte	0x9c
 4387 0b6f 4C0C0000 		.4byte	0xc4c
 4388 0b73 0E       		.uleb128 0xe
 4389 0b74 08000000 		.4byte	.LVL244
 4390 0b78 81080000 		.4byte	0x881
 4391 0b7c 0E       		.uleb128 0xe
 4392 0b7d 18000000 		.4byte	.LVL245
 4393 0b81 37060000 		.4byte	0x637
 4394 0b85 0E       		.uleb128 0xe
 4395 0b86 2A000000 		.4byte	.LVL246
 4396 0b8a 37060000 		.4byte	0x637
 4397 0b8e 0E       		.uleb128 0xe
 4398 0b8f 2E000000 		.4byte	.LVL247
 4399 0b93 05150000 		.4byte	0x1505
 4400 0b97 0E       		.uleb128 0xe
 4401 0b98 34000000 		.4byte	.LVL248
 4402 0b9c 1C0A0000 		.4byte	0xa1c
 4403 0ba0 0F       		.uleb128 0xf
 4404 0ba1 3E000000 		.4byte	.LVL249
 4405 0ba5 D6040000 		.4byte	0x4d6
 4406 0ba9 C20B0000 		.4byte	0xbc2
 4407 0bad 10       		.uleb128 0x10
 4408 0bae 06       		.uleb128 0x6
 4409 0baf 50       		.byte	0x50
 4410 0bb0 93       		.byte	0x93
 4411 0bb1 04       		.uleb128 0x4
 4412 0bb2 51       		.byte	0x51
 4413 0bb3 93       		.byte	0x93
 4414 0bb4 04       		.uleb128 0x4
 4415 0bb5 0B       		.uleb128 0xb
 4416 0bb6 F4       		.byte	0xf4
 4417 0bb7 25       		.uleb128 0x25
 4418 0bb8 08       		.byte	0x8
 4419 0bb9 9A999999 		.4byte	0x9999999a
 4420 0bbd 9999C93F 		.4byte	0x3fc99999
 4421 0bc1 00       		.byte	0
 4422 0bc2 0E       		.uleb128 0xe
 4423 0bc3 48000000 		.4byte	.LVL250
 4424 0bc7 FA140000 		.4byte	0x14fa
 4425 0bcb 0E       		.uleb128 0xe
 4426 0bcc 4E000000 		.4byte	.LVL251
 4427 0bd0 1C0A0000 		.4byte	0xa1c
 4428 0bd4 0F       		.uleb128 0xf
 4429 0bd5 58000000 		.4byte	.LVL252
 4430 0bd9 D6040000 		.4byte	0x4d6
 4431 0bdd F60B0000 		.4byte	0xbf6
 4432 0be1 10       		.uleb128 0x10
 4433 0be2 06       		.uleb128 0x6
 4434 0be3 50       		.byte	0x50
 4435 0be4 93       		.byte	0x93
 4436 0be5 04       		.uleb128 0x4
 4437 0be6 51       		.byte	0x51
ARM GAS  C:\Users\ANDREW~1\AppData\Local\Temp\ccxC4OPZ.s 			page 104


 4438 0be7 93       		.byte	0x93
 4439 0be8 04       		.uleb128 0x4
 4440 0be9 0B       		.uleb128 0xb
 4441 0bea F4       		.byte	0xf4
 4442 0beb 25       		.uleb128 0x25
 4443 0bec 08       		.byte	0x8
 4444 0bed 9A999999 		.4byte	0x9999999a
 4445 0bf1 9999C93F 		.4byte	0x3fc99999
 4446 0bf5 00       		.byte	0
 4447 0bf6 0E       		.uleb128 0xe
 4448 0bf7 5C000000 		.4byte	.LVL253
 4449 0bfb 47010000 		.4byte	0x147
 4450 0bff 0E       		.uleb128 0xe
 4451 0c00 66000000 		.4byte	.LVL254
 4452 0c04 10150000 		.4byte	0x1510
 4453 0c08 0E       		.uleb128 0xe
 4454 0c09 6C000000 		.4byte	.LVL255
 4455 0c0d 1C0A0000 		.4byte	0xa1c
 4456 0c11 0F       		.uleb128 0xf
 4457 0c12 76000000 		.4byte	.LVL256
 4458 0c16 D6040000 		.4byte	0x4d6
 4459 0c1a 330C0000 		.4byte	0xc33
 4460 0c1e 10       		.uleb128 0x10
 4461 0c1f 06       		.uleb128 0x6
 4462 0c20 50       		.byte	0x50
 4463 0c21 93       		.byte	0x93
 4464 0c22 04       		.uleb128 0x4
 4465 0c23 51       		.byte	0x51
 4466 0c24 93       		.byte	0x93
 4467 0c25 04       		.uleb128 0x4
 4468 0c26 0B       		.uleb128 0xb
 4469 0c27 F4       		.byte	0xf4
 4470 0c28 25       		.uleb128 0x25
 4471 0c29 08       		.byte	0x8
 4472 0c2a 9A999999 		.4byte	0x9999999a
 4473 0c2e 9999C93F 		.4byte	0x3fc99999
 4474 0c32 00       		.byte	0
 4475 0c33 0E       		.uleb128 0xe
 4476 0c34 7A000000 		.4byte	.LVL257
 4477 0c38 80010000 		.4byte	0x180
 4478 0c3c 11       		.uleb128 0x11
 4479 0c3d 92000000 		.4byte	.LVL258
 4480 0c41 F2130000 		.4byte	0x13f2
 4481 0c45 10       		.uleb128 0x10
 4482 0c46 01       		.uleb128 0x1
 4483 0c47 51       		.byte	0x51
 4484 0c48 01       		.uleb128 0x1
 4485 0c49 34       		.byte	0x34
 4486 0c4a 00       		.byte	0
 4487 0c4b 00       		.byte	0
 4488 0c4c 0D       		.uleb128 0xd
 4489 0c4d 09080000 		.4byte	.LASF61
 4490 0c51 01       		.byte	0x1
 4491 0c52 D801     		.2byte	0x1d8
 4492 0c54 00000000 		.4byte	.LFB72
 4493 0c58 18000000 		.4byte	.LFE72-.LFB72
 4494 0c5c 01       		.uleb128 0x1
ARM GAS  C:\Users\ANDREW~1\AppData\Local\Temp\ccxC4OPZ.s 			page 105


 4495 0c5d 9C       		.byte	0x9c
 4496 0c5e 7E0C0000 		.4byte	0xc7e
 4497 0c62 0E       		.uleb128 0xe
 4498 0c63 08000000 		.4byte	.LVL259
 4499 0c67 81080000 		.4byte	0x881
 4500 0c6b 0E       		.uleb128 0xe
 4501 0c6c 0C000000 		.4byte	.LVL260
 4502 0c70 05150000 		.4byte	0x1505
 4503 0c74 0E       		.uleb128 0xe
 4504 0c75 12000000 		.4byte	.LVL261
 4505 0c79 D9140000 		.4byte	0x14d9
 4506 0c7d 00       		.byte	0
 4507 0c7e 12       		.uleb128 0x12
 4508 0c7f 04070000 		.4byte	.LASF62
 4509 0c83 01       		.byte	0x1
 4510 0c84 B502     		.2byte	0x2b5
 4511 0c86 25000000 		.4byte	0x25
 4512 0c8a 00000000 		.4byte	.LFB84
 4513 0c8e A8000000 		.4byte	.LFE84-.LFB84
 4514 0c92 01       		.uleb128 0x1
 4515 0c93 9C       		.byte	0x9c
 4516 0c94 4C0D0000 		.4byte	0xd4c
 4517 0c98 13       		.uleb128 0x13
 4518 0c99 25050000 		.4byte	.LASF63
 4519 0c9d 01       		.byte	0x1
 4520 0c9e C502     		.2byte	0x2c5
 4521 0ca0 25000000 		.4byte	0x25
 4522 0ca4 A4060000 		.4byte	.LLST45
 4523 0ca8 21       		.uleb128 0x21
 4524 0ca9 40030000 		.4byte	.LASF55
 4525 0cad 01       		.byte	0x1
 4526 0cae C602     		.2byte	0x2c6
 4527 0cb0 25000000 		.4byte	0x25
 4528 0cb4 13       		.uleb128 0x13
 4529 0cb5 7C010000 		.4byte	.LASF24
 4530 0cb9 01       		.byte	0x1
 4531 0cba D802     		.2byte	0x2d8
 4532 0cbc 25000000 		.4byte	0x25
 4533 0cc0 BC060000 		.4byte	.LLST46
 4534 0cc4 0E       		.uleb128 0xe
 4535 0cc5 06000000 		.4byte	.LVL262
 4536 0cc9 1B150000 		.4byte	0x151b
 4537 0ccd 0F       		.uleb128 0xf
 4538 0cce 0C000000 		.4byte	.LVL263
 4539 0cd2 26150000 		.4byte	0x1526
 4540 0cd6 E40C0000 		.4byte	0xce4
 4541 0cda 10       		.uleb128 0x10
 4542 0cdb 01       		.uleb128 0x1
 4543 0cdc 50       		.byte	0x50
 4544 0cdd 05       		.uleb128 0x5
 4545 0cde 03       		.byte	0x3
 4546 0cdf 00000000 		.4byte	Receive_Ultra
 4547 0ce3 00       		.byte	0
 4548 0ce4 0F       		.uleb128 0xf
 4549 0ce5 12000000 		.4byte	.LVL264
 4550 0ce9 29140000 		.4byte	0x1429
 4551 0ced F70C0000 		.4byte	0xcf7
ARM GAS  C:\Users\ANDREW~1\AppData\Local\Temp\ccxC4OPZ.s 			page 106


 4552 0cf1 10       		.uleb128 0x10
 4553 0cf2 01       		.uleb128 0x1
 4554 0cf3 50       		.byte	0x50
 4555 0cf4 01       		.uleb128 0x1
 4556 0cf5 31       		.byte	0x31
 4557 0cf6 00       		.byte	0
 4558 0cf7 0F       		.uleb128 0xf
 4559 0cf8 18000000 		.4byte	.LVL265
 4560 0cfc 34140000 		.4byte	0x1434
 4561 0d00 0B0D0000 		.4byte	0xd0b
 4562 0d04 10       		.uleb128 0x10
 4563 0d05 01       		.uleb128 0x1
 4564 0d06 50       		.byte	0x50
 4565 0d07 02       		.uleb128 0x2
 4566 0d08 08       		.byte	0x8
 4567 0d09 96       		.byte	0x96
 4568 0d0a 00       		.byte	0
 4569 0d0b 0F       		.uleb128 0xf
 4570 0d0c 1E000000 		.4byte	.LVL266
 4571 0d10 29140000 		.4byte	0x1429
 4572 0d14 1E0D0000 		.4byte	0xd1e
 4573 0d18 10       		.uleb128 0x10
 4574 0d19 01       		.uleb128 0x1
 4575 0d1a 50       		.byte	0x50
 4576 0d1b 01       		.uleb128 0x1
 4577 0d1c 30       		.byte	0x30
 4578 0d1d 00       		.byte	0
 4579 0d1e 0E       		.uleb128 0xe
 4580 0d1f 22000000 		.4byte	.LVL267
 4581 0d23 3F140000 		.4byte	0x143f
 4582 0d27 0E       		.uleb128 0xe
 4583 0d28 2C000000 		.4byte	.LVL268
 4584 0d2c B9010000 		.4byte	0x1b9
 4585 0d30 0E       		.uleb128 0xe
 4586 0d31 34000000 		.4byte	.LVL270
 4587 0d35 B9010000 		.4byte	0x1b9
 4588 0d39 0E       		.uleb128 0xe
 4589 0d3a 3A000000 		.4byte	.LVL271
 4590 0d3e 81080000 		.4byte	0x881
 4591 0d42 0E       		.uleb128 0xe
 4592 0d43 3E000000 		.4byte	.LVL272
 4593 0d47 B9010000 		.4byte	0x1b9
 4594 0d4b 00       		.byte	0
 4595 0d4c 12       		.uleb128 0x12
 4596 0d4d 92070000 		.4byte	.LASF64
 4597 0d51 01       		.byte	0x1
 4598 0d52 6402     		.2byte	0x264
 4599 0d54 25000000 		.4byte	0x25
 4600 0d58 00000000 		.4byte	.LFB83
 4601 0d5c 10010000 		.4byte	.LFE83-.LFB83
 4602 0d60 01       		.uleb128 0x1
 4603 0d61 9C       		.byte	0x9c
 4604 0d62 DA0E0000 		.4byte	0xeda
 4605 0d66 17       		.uleb128 0x17
 4606 0d67 F8000000 		.4byte	.LASF65
 4607 0d6b 01       		.byte	0x1
 4608 0d6c 6802     		.2byte	0x268
ARM GAS  C:\Users\ANDREW~1\AppData\Local\Temp\ccxC4OPZ.s 			page 107


 4609 0d6e DA0E0000 		.4byte	0xeda
 4610 0d72 03       		.uleb128 0x3
 4611 0d73 91       		.byte	0x91
 4612 0d74 B07F     		.sleb128 -80
 4613 0d76 17       		.uleb128 0x17
 4614 0d77 C1050000 		.4byte	.LASF66
 4615 0d7b 01       		.byte	0x1
 4616 0d7c 6902     		.2byte	0x269
 4617 0d7e EA0E0000 		.4byte	0xeea
 4618 0d82 03       		.uleb128 0x3
 4619 0d83 91       		.byte	0x91
 4620 0d84 E07E     		.sleb128 -160
 4621 0d86 13       		.uleb128 0x13
 4622 0d87 1A080000 		.4byte	.LASF67
 4623 0d8b 01       		.byte	0x1
 4624 0d8c 6A02     		.2byte	0x26a
 4625 0d8e 25000000 		.4byte	0x25
 4626 0d92 D4060000 		.4byte	.LLST47
 4627 0d96 17       		.uleb128 0x17
 4628 0d97 5B040000 		.4byte	.LASF68
 4629 0d9b 01       		.byte	0x1
 4630 0d9c 6B02     		.2byte	0x26b
 4631 0d9e 25000000 		.4byte	0x25
 4632 0da2 06       		.uleb128 0x6
 4633 0da3 50       		.byte	0x50
 4634 0da4 93       		.byte	0x93
 4635 0da5 04       		.uleb128 0x4
 4636 0da6 51       		.byte	0x51
 4637 0da7 93       		.byte	0x93
 4638 0da8 04       		.uleb128 0x4
 4639 0da9 22       		.uleb128 0x22
 4640 0daa 4200     		.ascii	"B\000"
 4641 0dac 01       		.byte	0x1
 4642 0dad 9E02     		.2byte	0x29e
 4643 0daf FA0E0000 		.4byte	0xefa
 4644 0db3 03       		.uleb128 0x3
 4645 0db4 91       		.byte	0x91
 4646 0db5 A87B     		.sleb128 -600
 4647 0db7 23       		.uleb128 0x23
 4648 0db8 00050000 		.4byte	.LASF69
 4649 0dbc 01       		.byte	0x1
 4650 0dbd A002     		.2byte	0x2a0
 4651 0dbf 6F000000 		.4byte	0x6f
 4652 0dc3 05       		.byte	0x5
 4653 0dc4 13       		.uleb128 0x13
 4654 0dc5 7C010000 		.4byte	.LASF24
 4655 0dc9 01       		.byte	0x1
 4656 0dca A502     		.2byte	0x2a5
 4657 0dcc 25000000 		.4byte	0x25
 4658 0dd0 EC060000 		.4byte	.LLST48
 4659 0dd4 13       		.uleb128 0x13
 4660 0dd5 09010000 		.4byte	.LASF70
 4661 0dd9 01       		.byte	0x1
 4662 0dda A602     		.2byte	0x2a6
 4663 0ddc 6F000000 		.4byte	0x6f
 4664 0de0 04070000 		.4byte	.LLST49
 4665 0de4 13       		.uleb128 0x13
ARM GAS  C:\Users\ANDREW~1\AppData\Local\Temp\ccxC4OPZ.s 			page 108


 4666 0de5 2F040000 		.4byte	.LASF71
 4667 0de9 01       		.byte	0x1
 4668 0dea AC02     		.2byte	0x2ac
 4669 0dec 25000000 		.4byte	0x25
 4670 0df0 30070000 		.4byte	.LLST50
 4671 0df4 13       		.uleb128 0x13
 4672 0df5 DF020000 		.4byte	.LASF72
 4673 0df9 01       		.byte	0x1
 4674 0dfa AD02     		.2byte	0x2ad
 4675 0dfc 25000000 		.4byte	0x25
 4676 0e00 48070000 		.4byte	.LLST51
 4677 0e04 18       		.uleb128 0x18
 4678 0e05 1C000000 		.4byte	.LBB18
 4679 0e09 42000000 		.4byte	.LBE18-.LBB18
 4680 0e0d 640E0000 		.4byte	0xe64
 4681 0e11 15       		.uleb128 0x15
 4682 0e12 7800     		.ascii	"x\000"
 4683 0e14 01       		.byte	0x1
 4684 0e15 6F02     		.2byte	0x26f
 4685 0e17 6F000000 		.4byte	0x6f
 4686 0e1b 60070000 		.4byte	.LLST52
 4687 0e1f 18       		.uleb128 0x18
 4688 0e20 2A000000 		.4byte	.LBB19
 4689 0e24 1C000000 		.4byte	.LBE19-.LBB19
 4690 0e28 440E0000 		.4byte	0xe44
 4691 0e2c 15       		.uleb128 0x15
 4692 0e2d 6900     		.ascii	"i\000"
 4693 0e2f 01       		.byte	0x1
 4694 0e30 7602     		.2byte	0x276
 4695 0e32 6F000000 		.4byte	0x6f
 4696 0e36 7F070000 		.4byte	.LLST53
 4697 0e3a 0E       		.uleb128 0xe
 4698 0e3b 32000000 		.4byte	.LVL286
 4699 0e3f 7E0C0000 		.4byte	0xc7e
 4700 0e43 00       		.byte	0
 4701 0e44 0E       		.uleb128 0xe
 4702 0e45 2A000000 		.4byte	.LVL284
 4703 0e49 06050000 		.4byte	0x506
 4704 0e4d 11       		.uleb128 0x11
 4705 0e4e 4E000000 		.4byte	.LVL289
 4706 0e52 C2050000 		.4byte	0x5c2
 4707 0e56 10       		.uleb128 0x10
 4708 0e57 01       		.uleb128 0x1
 4709 0e58 50       		.byte	0x50
 4710 0e59 03       		.uleb128 0x3
 4711 0e5a 91       		.byte	0x91
 4712 0e5b B07F     		.sleb128 -80
 4713 0e5d 10       		.uleb128 0x10
 4714 0e5e 01       		.uleb128 0x1
 4715 0e5f 51       		.byte	0x51
 4716 0e60 01       		.uleb128 0x1
 4717 0e61 3A       		.byte	0x3a
 4718 0e62 00       		.byte	0
 4719 0e63 00       		.byte	0
 4720 0e64 0F       		.uleb128 0xf
 4721 0e65 12000000 		.4byte	.LVL281
 4722 0e69 31150000 		.4byte	0x1531
ARM GAS  C:\Users\ANDREW~1\AppData\Local\Temp\ccxC4OPZ.s 			page 109


 4723 0e6d 840E0000 		.4byte	0xe84
 4724 0e71 10       		.uleb128 0x10
 4725 0e72 01       		.uleb128 0x1
 4726 0e73 50       		.byte	0x50
 4727 0e74 03       		.uleb128 0x3
 4728 0e75 91       		.byte	0x91
 4729 0e76 B07F     		.sleb128 -80
 4730 0e78 10       		.uleb128 0x10
 4731 0e79 01       		.uleb128 0x1
 4732 0e7a 51       		.byte	0x51
 4733 0e7b 01       		.uleb128 0x1
 4734 0e7c 30       		.byte	0x30
 4735 0e7d 10       		.uleb128 0x10
 4736 0e7e 01       		.uleb128 0x1
 4737 0e7f 52       		.byte	0x52
 4738 0e80 02       		.uleb128 0x2
 4739 0e81 08       		.byte	0x8
 4740 0e82 28       		.byte	0x28
 4741 0e83 00       		.byte	0
 4742 0e84 0F       		.uleb128 0xf
 4743 0e85 1C000000 		.4byte	.LVL282
 4744 0e89 31150000 		.4byte	0x1531
 4745 0e8d A40E0000 		.4byte	0xea4
 4746 0e91 10       		.uleb128 0x10
 4747 0e92 01       		.uleb128 0x1
 4748 0e93 50       		.byte	0x50
 4749 0e94 03       		.uleb128 0x3
 4750 0e95 91       		.byte	0x91
 4751 0e96 E07E     		.sleb128 -160
 4752 0e98 10       		.uleb128 0x10
 4753 0e99 01       		.uleb128 0x1
 4754 0e9a 51       		.byte	0x51
 4755 0e9b 01       		.uleb128 0x1
 4756 0e9c 30       		.byte	0x30
 4757 0e9d 10       		.uleb128 0x10
 4758 0e9e 01       		.uleb128 0x1
 4759 0e9f 52       		.byte	0x52
 4760 0ea0 02       		.uleb128 0x2
 4761 0ea1 08       		.byte	0x8
 4762 0ea2 50       		.byte	0x50
 4763 0ea3 00       		.byte	0
 4764 0ea4 0F       		.uleb128 0xf
 4765 0ea5 66000000 		.4byte	.LVL291
 4766 0ea9 C2050000 		.4byte	0x5c2
 4767 0ead BE0E0000 		.4byte	0xebe
 4768 0eb1 10       		.uleb128 0x10
 4769 0eb2 01       		.uleb128 0x1
 4770 0eb3 50       		.byte	0x50
 4771 0eb4 03       		.uleb128 0x3
 4772 0eb5 91       		.byte	0x91
 4773 0eb6 E07E     		.sleb128 -160
 4774 0eb8 10       		.uleb128 0x10
 4775 0eb9 01       		.uleb128 0x1
 4776 0eba 51       		.byte	0x51
 4777 0ebb 01       		.uleb128 0x1
 4778 0ebc 44       		.byte	0x44
 4779 0ebd 00       		.byte	0
ARM GAS  C:\Users\ANDREW~1\AppData\Local\Temp\ccxC4OPZ.s 			page 110


 4780 0ebe 11       		.uleb128 0x11
 4781 0ebf 78000000 		.4byte	.LVL295
 4782 0ec3 CF030000 		.4byte	0x3cf
 4783 0ec7 10       		.uleb128 0x10
 4784 0ec8 01       		.uleb128 0x1
 4785 0ec9 50       		.byte	0x50
 4786 0eca 01       		.uleb128 0x1
 4787 0ecb 35       		.byte	0x35
 4788 0ecc 10       		.uleb128 0x10
 4789 0ecd 01       		.uleb128 0x1
 4790 0ece 51       		.byte	0x51
 4791 0ecf 02       		.uleb128 0x2
 4792 0ed0 7D       		.byte	0x7d
 4793 0ed1 00       		.sleb128 0
 4794 0ed2 10       		.uleb128 0x10
 4795 0ed3 01       		.uleb128 0x1
 4796 0ed4 52       		.byte	0x52
 4797 0ed5 02       		.uleb128 0x2
 4798 0ed6 08       		.byte	0x8
 4799 0ed7 37       		.byte	0x37
 4800 0ed8 00       		.byte	0
 4801 0ed9 00       		.byte	0
 4802 0eda 24       		.uleb128 0x24
 4803 0edb A0000000 		.4byte	0xa0
 4804 0edf EA0E0000 		.4byte	0xeea
 4805 0ee3 25       		.uleb128 0x25
 4806 0ee4 B5000000 		.4byte	0xb5
 4807 0ee8 09       		.byte	0x9
 4808 0ee9 00       		.byte	0
 4809 0eea 24       		.uleb128 0x24
 4810 0eeb A0000000 		.4byte	0xa0
 4811 0eef FA0E0000 		.4byte	0xefa
 4812 0ef3 25       		.uleb128 0x25
 4813 0ef4 B5000000 		.4byte	0xb5
 4814 0ef8 13       		.byte	0x13
 4815 0ef9 00       		.byte	0
 4816 0efa 24       		.uleb128 0x24
 4817 0efb 25000000 		.4byte	0x25
 4818 0eff 0A0F0000 		.4byte	0xf0a
 4819 0f03 25       		.uleb128 0x25
 4820 0f04 B5000000 		.4byte	0xb5
 4821 0f08 36       		.byte	0x36
 4822 0f09 00       		.byte	0
 4823 0f0a 19       		.uleb128 0x19
 4824 0f0b 49070000 		.4byte	.LASF73
 4825 0f0f 01       		.byte	0x1
 4826 0f10 8C01     		.2byte	0x18c
 4827 0f12 00000000 		.4byte	.LFB68
 4828 0f16 A8000000 		.4byte	.LFE68-.LFB68
 4829 0f1a 01       		.uleb128 0x1
 4830 0f1b 9C       		.byte	0x9c
 4831 0f1c B70F0000 		.4byte	0xfb7
 4832 0f20 13       		.uleb128 0x13
 4833 0f21 A0000000 		.4byte	.LASF74
 4834 0f25 01       		.byte	0x1
 4835 0f26 8F01     		.2byte	0x18f
 4836 0f28 6F000000 		.4byte	0x6f
ARM GAS  C:\Users\ANDREW~1\AppData\Local\Temp\ccxC4OPZ.s 			page 111


 4837 0f2c 9E070000 		.4byte	.LLST54
 4838 0f30 13       		.uleb128 0x13
 4839 0f31 22000000 		.4byte	.LASF59
 4840 0f35 01       		.byte	0x1
 4841 0f36 9001     		.2byte	0x190
 4842 0f38 25000000 		.4byte	0x25
 4843 0f3c EB070000 		.4byte	.LLST55
 4844 0f40 0F       		.uleb128 0xf
 4845 0f41 12000000 		.4byte	.LVL314
 4846 0f45 D6040000 		.4byte	0x4d6
 4847 0f49 620F0000 		.4byte	0xf62
 4848 0f4d 10       		.uleb128 0x10
 4849 0f4e 06       		.uleb128 0x6
 4850 0f4f 50       		.byte	0x50
 4851 0f50 93       		.byte	0x93
 4852 0f51 04       		.uleb128 0x4
 4853 0f52 51       		.byte	0x51
 4854 0f53 93       		.byte	0x93
 4855 0f54 04       		.uleb128 0x4
 4856 0f55 0B       		.uleb128 0xb
 4857 0f56 F4       		.byte	0xf4
 4858 0f57 25       		.uleb128 0x25
 4859 0f58 08       		.byte	0x8
 4860 0f59 9A999999 		.4byte	0x9999999a
 4861 0f5d 9999C93F 		.4byte	0x3fc99999
 4862 0f61 00       		.byte	0
 4863 0f62 0E       		.uleb128 0xe
 4864 0f63 16000000 		.4byte	.LVL315
 4865 0f67 4C0D0000 		.4byte	0xd4c
 4866 0f6b 0E       		.uleb128 0xe
 4867 0f6c 20000000 		.4byte	.LVL316
 4868 0f70 B9010000 		.4byte	0x1b9
 4869 0f74 0E       		.uleb128 0xe
 4870 0f75 4A000000 		.4byte	.LVL320
 4871 0f79 37060000 		.4byte	0x637
 4872 0f7d 0E       		.uleb128 0xe
 4873 0f7e 50000000 		.4byte	.LVL322
 4874 0f82 81080000 		.4byte	0x881
 4875 0f86 0E       		.uleb128 0xe
 4876 0f87 54000000 		.4byte	.LVL323
 4877 0f8b B9010000 		.4byte	0x1b9
 4878 0f8f 0E       		.uleb128 0xe
 4879 0f90 6C000000 		.4byte	.LVL326
 4880 0f94 E4140000 		.4byte	0x14e4
 4881 0f98 11       		.uleb128 0x11
 4882 0f99 78000000 		.4byte	.LVL327
 4883 0f9d D6040000 		.4byte	0x4d6
 4884 0fa1 10       		.uleb128 0x10
 4885 0fa2 06       		.uleb128 0x6
 4886 0fa3 50       		.byte	0x50
 4887 0fa4 93       		.byte	0x93
 4888 0fa5 04       		.uleb128 0x4
 4889 0fa6 51       		.byte	0x51
 4890 0fa7 93       		.byte	0x93
 4891 0fa8 04       		.uleb128 0x4
 4892 0fa9 0B       		.uleb128 0xb
 4893 0faa F4       		.byte	0xf4
ARM GAS  C:\Users\ANDREW~1\AppData\Local\Temp\ccxC4OPZ.s 			page 112


 4894 0fab 25       		.uleb128 0x25
 4895 0fac 08       		.byte	0x8
 4896 0fad 9A999999 		.4byte	0x9999999a
 4897 0fb1 9999C93F 		.4byte	0x3fc99999
 4898 0fb5 00       		.byte	0
 4899 0fb6 00       		.byte	0
 4900 0fb7 26       		.uleb128 0x26
 4901 0fb8 04080000 		.4byte	.LASF146
 4902 0fbc 01       		.byte	0x1
 4903 0fbd 43       		.byte	0x43
 4904 0fbe 6F000000 		.4byte	0x6f
 4905 0fc2 00000000 		.4byte	.LFB64
 4906 0fc6 D4010000 		.4byte	.LFE64-.LFB64
 4907 0fca 01       		.uleb128 0x1
 4908 0fcb 9C       		.byte	0x9c
 4909 0fcc FF110000 		.4byte	0x11ff
 4910 0fd0 27       		.uleb128 0x27
 4911 0fd1 63010000 		.4byte	.LASF75
 4912 0fd5 01       		.byte	0x1
 4913 0fd6 6B       		.byte	0x6b
 4914 0fd7 25000000 		.4byte	0x25
 4915 0fdb 06       		.uleb128 0x6
 4916 0fdc 54       		.byte	0x54
 4917 0fdd 93       		.byte	0x93
 4918 0fde 04       		.uleb128 0x4
 4919 0fdf 55       		.byte	0x55
 4920 0fe0 93       		.byte	0x93
 4921 0fe1 04       		.uleb128 0x4
 4922 0fe2 28       		.uleb128 0x28
 4923 0fe3 22000000 		.4byte	.LASF59
 4924 0fe7 01       		.byte	0x1
 4925 0fe8 C0       		.byte	0xc0
 4926 0fe9 25000000 		.4byte	0x25
 4927 0fed 0E       		.uleb128 0xe
 4928 0fee 08000000 		.4byte	.LVL331
 4929 0ff2 3A150000 		.4byte	0x153a
 4930 0ff6 0F       		.uleb128 0xf
 4931 0ff7 0E000000 		.4byte	.LVL332
 4932 0ffb 45150000 		.4byte	0x1545
 4933 0fff 0D100000 		.4byte	0x100d
 4934 1003 10       		.uleb128 0x10
 4935 1004 01       		.uleb128 0x1
 4936 1005 50       		.byte	0x50
 4937 1006 05       		.uleb128 0x5
 4938 1007 03       		.byte	0x3
 4939 1008 00000000 		.4byte	seg7_ISR
 4940 100c 00       		.byte	0
 4941 100d 0E       		.uleb128 0xe
 4942 100e 12000000 		.4byte	.LVL333
 4943 1012 1B150000 		.4byte	0x151b
 4944 1016 0F       		.uleb128 0xf
 4945 1017 18000000 		.4byte	.LVL334
 4946 101b 50150000 		.4byte	0x1550
 4947 101f 29100000 		.4byte	0x1029
 4948 1023 10       		.uleb128 0x10
 4949 1024 01       		.uleb128 0x1
 4950 1025 50       		.byte	0x50
ARM GAS  C:\Users\ANDREW~1\AppData\Local\Temp\ccxC4OPZ.s 			page 113


 4951 1026 01       		.uleb128 0x1
 4952 1027 33       		.byte	0x33
 4953 1028 00       		.byte	0
 4954 1029 0F       		.uleb128 0xf
 4955 102a 1E000000 		.4byte	.LVL335
 4956 102e 26150000 		.4byte	0x1526
 4957 1032 40100000 		.4byte	0x1040
 4958 1036 10       		.uleb128 0x10
 4959 1037 01       		.uleb128 0x1
 4960 1038 50       		.byte	0x50
 4961 1039 05       		.uleb128 0x5
 4962 103a 03       		.byte	0x3
 4963 103b 00000000 		.4byte	Receive_Ultra
 4964 103f 00       		.byte	0
 4965 1040 0E       		.uleb128 0xe
 4966 1041 22000000 		.4byte	.LVL336
 4967 1045 5B150000 		.4byte	0x155b
 4968 1049 0E       		.uleb128 0xe
 4969 104a 26000000 		.4byte	.LVL337
 4970 104e 66150000 		.4byte	0x1566
 4971 1052 0E       		.uleb128 0xe
 4972 1053 2A000000 		.4byte	.LVL338
 4973 1057 71150000 		.4byte	0x1571
 4974 105b 0E       		.uleb128 0xe
 4975 105c 2E000000 		.4byte	.LVL339
 4976 1060 7C150000 		.4byte	0x157c
 4977 1064 0E       		.uleb128 0xe
 4978 1065 32000000 		.4byte	.LVL340
 4979 1069 87150000 		.4byte	0x1587
 4980 106d 0F       		.uleb128 0xf
 4981 106e 38000000 		.4byte	.LVL341
 4982 1072 92150000 		.4byte	0x1592
 4983 1076 80100000 		.4byte	0x1080
 4984 107a 10       		.uleb128 0x10
 4985 107b 01       		.uleb128 0x1
 4986 107c 50       		.byte	0x50
 4987 107d 01       		.uleb128 0x1
 4988 107e 33       		.byte	0x33
 4989 107f 00       		.byte	0
 4990 1080 0E       		.uleb128 0xe
 4991 1081 3C000000 		.4byte	.LVL342
 4992 1085 9D150000 		.4byte	0x159d
 4993 1089 0E       		.uleb128 0xe
 4994 108a 40000000 		.4byte	.LVL343
 4995 108e A8150000 		.4byte	0x15a8
 4996 1092 0E       		.uleb128 0xe
 4997 1093 44000000 		.4byte	.LVL344
 4998 1097 B3150000 		.4byte	0x15b3
 4999 109b 0F       		.uleb128 0xf
 5000 109c 4A000000 		.4byte	.LVL345
 5001 10a0 EF140000 		.4byte	0x14ef
 5002 10a4 B2100000 		.4byte	0x10b2
 5003 10a8 10       		.uleb128 0x10
 5004 10a9 01       		.uleb128 0x1
 5005 10aa 50       		.byte	0x50
 5006 10ab 05       		.uleb128 0x5
 5007 10ac 03       		.byte	0x3
ARM GAS  C:\Users\ANDREW~1\AppData\Local\Temp\ccxC4OPZ.s 			page 114


 5008 10ad 10000000 		.4byte	.LC1
 5009 10b1 00       		.byte	0
 5010 10b2 0F       		.uleb128 0xf
 5011 10b3 50000000 		.4byte	.LVL346
 5012 10b7 13140000 		.4byte	0x1413
 5013 10bb C5100000 		.4byte	0x10c5
 5014 10bf 10       		.uleb128 0x10
 5015 10c0 01       		.uleb128 0x1
 5016 10c1 50       		.byte	0x50
 5017 10c2 01       		.uleb128 0x1
 5018 10c3 35       		.byte	0x35
 5019 10c4 00       		.byte	0
 5020 10c5 0F       		.uleb128 0xf
 5021 10c6 56000000 		.4byte	.LVL347
 5022 10ca 08140000 		.4byte	0x1408
 5023 10ce D9100000 		.4byte	0x10d9
 5024 10d2 10       		.uleb128 0x10
 5025 10d3 01       		.uleb128 0x1
 5026 10d4 50       		.byte	0x50
 5027 10d5 02       		.uleb128 0x2
 5028 10d6 08       		.byte	0x8
 5029 10d7 20       		.byte	0x20
 5030 10d8 00       		.byte	0
 5031 10d9 0F       		.uleb128 0xf
 5032 10da 5C000000 		.4byte	.LVL348
 5033 10de 13140000 		.4byte	0x1413
 5034 10e2 EC100000 		.4byte	0x10ec
 5035 10e6 10       		.uleb128 0x10
 5036 10e7 01       		.uleb128 0x1
 5037 10e8 50       		.byte	0x50
 5038 10e9 01       		.uleb128 0x1
 5039 10ea 35       		.byte	0x35
 5040 10eb 00       		.byte	0
 5041 10ec 0F       		.uleb128 0xf
 5042 10ed 62000000 		.4byte	.LVL349
 5043 10f1 FD130000 		.4byte	0x13fd
 5044 10f5 FF100000 		.4byte	0x10ff
 5045 10f9 10       		.uleb128 0x10
 5046 10fa 01       		.uleb128 0x1
 5047 10fb 50       		.byte	0x50
 5048 10fc 01       		.uleb128 0x1
 5049 10fd 30       		.byte	0x30
 5050 10fe 00       		.byte	0
 5051 10ff 0F       		.uleb128 0xf
 5052 1100 6C000000 		.4byte	.LVL350
 5053 1104 FD130000 		.4byte	0x13fd
 5054 1108 12110000 		.4byte	0x1112
 5055 110c 10       		.uleb128 0x10
 5056 110d 01       		.uleb128 0x1
 5057 110e 50       		.byte	0x50
 5058 110f 01       		.uleb128 0x1
 5059 1110 34       		.byte	0x34
 5060 1111 00       		.byte	0
 5061 1112 0E       		.uleb128 0xe
 5062 1113 74000000 		.4byte	.LVL351
 5063 1117 B9010000 		.4byte	0x1b9
 5064 111b 0E       		.uleb128 0xe
ARM GAS  C:\Users\ANDREW~1\AppData\Local\Temp\ccxC4OPZ.s 			page 115


 5065 111c 7E000000 		.4byte	.LVL353
 5066 1120 B9010000 		.4byte	0x1b9
 5067 1124 0E       		.uleb128 0xe
 5068 1125 94000000 		.4byte	.LVL356
 5069 1129 37060000 		.4byte	0x637
 5070 112d 0E       		.uleb128 0xe
 5071 112e 98000000 		.4byte	.LVL357
 5072 1132 B9010000 		.4byte	0x1b9
 5073 1136 0E       		.uleb128 0xe
 5074 1137 B0000000 		.4byte	.LVL360
 5075 113b 37060000 		.4byte	0x637
 5076 113f 0E       		.uleb128 0xe
 5077 1140 B4000000 		.4byte	.LVL361
 5078 1144 B9010000 		.4byte	0x1b9
 5079 1148 0E       		.uleb128 0xe
 5080 1149 CC000000 		.4byte	.LVL364
 5081 114d 37060000 		.4byte	0x637
 5082 1151 0E       		.uleb128 0xe
 5083 1152 D0000000 		.4byte	.LVL365
 5084 1156 B9010000 		.4byte	0x1b9
 5085 115a 0E       		.uleb128 0xe
 5086 115b E8000000 		.4byte	.LVL368
 5087 115f 37060000 		.4byte	0x637
 5088 1163 0E       		.uleb128 0xe
 5089 1164 EC000000 		.4byte	.LVL369
 5090 1168 B9010000 		.4byte	0x1b9
 5091 116c 0E       		.uleb128 0xe
 5092 116d 08010000 		.4byte	.LVL373
 5093 1171 37060000 		.4byte	0x637
 5094 1175 0E       		.uleb128 0xe
 5095 1176 0C010000 		.4byte	.LVL374
 5096 117a B9010000 		.4byte	0x1b9
 5097 117e 0E       		.uleb128 0xe
 5098 117f 2C010000 		.4byte	.LVL377
 5099 1183 37060000 		.4byte	0x637
 5100 1187 0E       		.uleb128 0xe
 5101 1188 3E010000 		.4byte	.LVL378
 5102 118c 37060000 		.4byte	0x637
 5103 1190 0E       		.uleb128 0xe
 5104 1191 42010000 		.4byte	.LVL379
 5105 1195 81080000 		.4byte	0x881
 5106 1199 0E       		.uleb128 0xe
 5107 119a 46010000 		.4byte	.LVL380
 5108 119e B9010000 		.4byte	0x1b9
 5109 11a2 0E       		.uleb128 0xe
 5110 11a3 5E010000 		.4byte	.LVL383
 5111 11a7 B9010000 		.4byte	0x1b9
 5112 11ab 0F       		.uleb128 0xf
 5113 11ac 6E010000 		.4byte	.LVL384
 5114 11b0 F2130000 		.4byte	0x13f2
 5115 11b4 BE110000 		.4byte	0x11be
 5116 11b8 10       		.uleb128 0x10
 5117 11b9 01       		.uleb128 0x1
 5118 11ba 51       		.byte	0x51
 5119 11bb 01       		.uleb128 0x1
 5120 11bc 34       		.byte	0x34
 5121 11bd 00       		.byte	0
ARM GAS  C:\Users\ANDREW~1\AppData\Local\Temp\ccxC4OPZ.s 			page 116


 5122 11be 0E       		.uleb128 0xe
 5123 11bf 72010000 		.4byte	.LVL385
 5124 11c3 BC080000 		.4byte	0x8bc
 5125 11c7 0E       		.uleb128 0xe
 5126 11c8 7E010000 		.4byte	.LVL386
 5127 11cc 570A0000 		.4byte	0xa57
 5128 11d0 0F       		.uleb128 0xf
 5129 11d1 90010000 		.4byte	.LVL387
 5130 11d5 F6010000 		.4byte	0x1f6
 5131 11d9 E3110000 		.4byte	0x11e3
 5132 11dd 10       		.uleb128 0x10
 5133 11de 01       		.uleb128 0x1
 5134 11df 50       		.byte	0x50
 5135 11e0 01       		.uleb128 0x1
 5136 11e1 30       		.byte	0x30
 5137 11e2 00       		.byte	0
 5138 11e3 0E       		.uleb128 0xe
 5139 11e4 94010000 		.4byte	.LVL388
 5140 11e8 5D0B0000 		.4byte	0xb5d
 5141 11ec 0E       		.uleb128 0xe
 5142 11ed A0010000 		.4byte	.LVL389
 5143 11f1 0A0F0000 		.4byte	0xf0a
 5144 11f5 0E       		.uleb128 0xe
 5145 11f6 A4010000 		.4byte	.LVL390
 5146 11fa 81080000 		.4byte	0x881
 5147 11fe 00       		.byte	0
 5148 11ff 29       		.uleb128 0x29
 5149 1200 A0050000 		.4byte	.LASF76
 5150 1204 05       		.byte	0x5
 5151 1205 1207     		.2byte	0x712
 5152 1207 0B120000 		.4byte	0x120b
 5153 120b 2A       		.uleb128 0x2a
 5154 120c 7D000000 		.4byte	0x7d
 5155 1210 2B       		.uleb128 0x2b
 5156 1211 4F020000 		.4byte	.LASF77
 5157 1215 01       		.byte	0x1
 5158 1216 31       		.byte	0x31
 5159 1217 25000000 		.4byte	0x25
 5160 121b 05       		.uleb128 0x5
 5161 121c 03       		.byte	0x3
 5162 121d 00000000 		.4byte	counter
 5163 1221 2B       		.uleb128 0x2b
 5164 1222 54000000 		.4byte	.LASF78
 5165 1226 01       		.byte	0x1
 5166 1227 33       		.byte	0x33
 5167 1228 6F000000 		.4byte	0x6f
 5168 122c 05       		.uleb128 0x5
 5169 122d 03       		.byte	0x3
 5170 122e 00000000 		.4byte	time_passed_step
 5171 1232 2B       		.uleb128 0x2b
 5172 1233 5E030000 		.4byte	.LASF79
 5173 1237 01       		.byte	0x1
 5174 1238 34       		.byte	0x34
 5175 1239 25000000 		.4byte	0x25
 5176 123d 05       		.uleb128 0x5
 5177 123e 03       		.byte	0x3
 5178 123f 00000000 		.4byte	previous_buzz
ARM GAS  C:\Users\ANDREW~1\AppData\Local\Temp\ccxC4OPZ.s 			page 117


 5179 1243 2B       		.uleb128 0x2b
 5180 1244 CD040000 		.4byte	.LASF80
 5181 1248 01       		.byte	0x1
 5182 1249 36       		.byte	0x36
 5183 124a 25000000 		.4byte	0x25
 5184 124e 05       		.uleb128 0x5
 5185 124f 03       		.byte	0x3
 5186 1250 00000000 		.4byte	buzz_duration
 5187 1254 2B       		.uleb128 0x2b
 5188 1255 7E020000 		.4byte	.LASF81
 5189 1259 01       		.byte	0x1
 5190 125a 37       		.byte	0x37
 5191 125b 25000000 		.4byte	0x25
 5192 125f 05       		.uleb128 0x5
 5193 1260 03       		.byte	0x3
 5194 1261 00000000 		.4byte	seg_num
 5195 1265 2B       		.uleb128 0x2b
 5196 1266 B1000000 		.4byte	.LASF82
 5197 126a 01       		.byte	0x1
 5198 126b 3B       		.byte	0x3b
 5199 126c 6F000000 		.4byte	0x6f
 5200 1270 05       		.uleb128 0x5
 5201 1271 03       		.byte	0x3
 5202 1272 00000000 		.4byte	mode
 5203 1276 2B       		.uleb128 0x2b
 5204 1277 5E070000 		.4byte	.LASF83
 5205 127b 01       		.byte	0x1
 5206 127c 3C       		.byte	0x3c
 5207 127d 6F000000 		.4byte	0x6f
 5208 1281 05       		.uleb128 0x5
 5209 1282 03       		.byte	0x3
 5210 1283 00000000 		.4byte	group_num
 5211 1287 2B       		.uleb128 0x2b
 5212 1288 72000000 		.4byte	.LASF84
 5213 128c 01       		.byte	0x1
 5214 128d 3D       		.byte	0x3d
 5215 128e A7000000 		.4byte	0xa7
 5216 1292 05       		.uleb128 0x5
 5217 1293 03       		.byte	0x3
 5218 1294 00000000 		.4byte	cm_or_inch
 5219 1298 2B       		.uleb128 0x2b
 5220 1299 B8050000 		.4byte	.LASF85
 5221 129d 01       		.byte	0x1
 5222 129e 3F       		.byte	0x3f
 5223 129f 25000000 		.4byte	0x25
 5224 12a3 05       		.uleb128 0x5
 5225 12a4 03       		.byte	0x3
 5226 12a5 00000000 		.4byte	distance
 5227 12a9 24       		.uleb128 0x24
 5228 12aa 88000000 		.4byte	0x88
 5229 12ae B9120000 		.4byte	0x12b9
 5230 12b2 25       		.uleb128 0x25
 5231 12b3 B5000000 		.4byte	0xb5
 5232 12b7 0F       		.byte	0xf
 5233 12b8 00       		.byte	0
 5234 12b9 2C       		.uleb128 0x2c
 5235 12ba E0030000 		.4byte	.LASF86
ARM GAS  C:\Users\ANDREW~1\AppData\Local\Temp\ccxC4OPZ.s 			page 118


 5236 12be 01       		.byte	0x1
 5237 12bf 3602     		.2byte	0x236
 5238 12c1 A9120000 		.4byte	0x12a9
 5239 12c5 05       		.uleb128 0x5
 5240 12c6 03       		.byte	0x3
 5241 12c7 00000000 		.4byte	value_text
 5242 12cb 2C       		.uleb128 0x2c
 5243 12cc 0F040000 		.4byte	.LASF87
 5244 12d0 01       		.byte	0x1
 5245 12d1 6202     		.2byte	0x262
 5246 12d3 6F000000 		.4byte	0x6f
 5247 12d7 05       		.uleb128 0x5
 5248 12d8 03       		.byte	0x3
 5249 12d9 00000000 		.4byte	waiting_ultra
 5250 12dd 2C       		.uleb128 0x2c
 5251 12de 27070000 		.4byte	.LASF88
 5252 12e2 01       		.byte	0x1
 5253 12e3 E802     		.2byte	0x2e8
 5254 12e5 88000000 		.4byte	0x88
 5255 12e9 05       		.uleb128 0x5
 5256 12ea 03       		.byte	0x3
 5257 12eb 00000000 		.4byte	InterruptCnt
 5258 12ef 2C       		.uleb128 0x2c
 5259 12f0 C4020000 		.4byte	.LASF89
 5260 12f4 01       		.byte	0x1
 5261 12f5 0E03     		.2byte	0x30e
 5262 12f7 6F000000 		.4byte	0x6f
 5263 12fb 05       		.uleb128 0x5
 5264 12fc 03       		.byte	0x3
 5265 12fd 00000000 		.4byte	run_7_Seg
 5266 1301 2C       		.uleb128 0x2c
 5267 1302 09030000 		.4byte	.LASF90
 5268 1306 01       		.byte	0x1
 5269 1307 1603     		.2byte	0x316
 5270 1309 25000000 		.4byte	0x25
 5271 130d 05       		.uleb128 0x5
 5272 130e 03       		.byte	0x3
 5273 130f 00000000 		.4byte	old_dis_val
 5274 1313 24       		.uleb128 0x24
 5275 1314 6F000000 		.4byte	0x6f
 5276 1318 23130000 		.4byte	0x1323
 5277 131c 25       		.uleb128 0x25
 5278 131d B5000000 		.4byte	0xb5
 5279 1321 03       		.byte	0x3
 5280 1322 00       		.byte	0
 5281 1323 2D       		.uleb128 0x2d
 5282 1324 4400     		.ascii	"D\000"
 5283 1326 01       		.byte	0x1
 5284 1327 1803     		.2byte	0x318
 5285 1329 13130000 		.4byte	0x1313
 5286 132d 05       		.uleb128 0x5
 5287 132e 03       		.byte	0x3
 5288 132f 00000000 		.4byte	D
 5289 1333 2D       		.uleb128 0x2d
 5290 1334 647000   		.ascii	"dp\000"
 5291 1337 01       		.byte	0x1
 5292 1338 1903     		.2byte	0x319
ARM GAS  C:\Users\ANDREW~1\AppData\Local\Temp\ccxC4OPZ.s 			page 119


 5293 133a 13130000 		.4byte	0x1313
 5294 133e 05       		.uleb128 0x5
 5295 133f 03       		.byte	0x3
 5296 1340 00000000 		.4byte	dp
 5297 1344 2C       		.uleb128 0x2c
 5298 1345 03010000 		.4byte	.LASF91
 5299 1349 01       		.byte	0x1
 5300 134a 1A03     		.2byte	0x31a
 5301 134c 5A000000 		.4byte	0x5a
 5302 1350 05       		.uleb128 0x5
 5303 1351 03       		.byte	0x3
 5304 1352 00000000 		.4byte	count
 5305 1356 24       		.uleb128 0x24
 5306 1357 C2000000 		.4byte	0xc2
 5307 135b 6C130000 		.4byte	0x136c
 5308 135f 25       		.uleb128 0x25
 5309 1360 B5000000 		.4byte	0xb5
 5310 1364 12       		.byte	0x12
 5311 1365 25       		.uleb128 0x25
 5312 1366 B5000000 		.4byte	0xb5
 5313 136a 07       		.byte	0x7
 5314 136b 00       		.byte	0
 5315 136c 2C       		.uleb128 0x2c
 5316 136d 62080000 		.4byte	.LASF92
 5317 1371 01       		.byte	0x1
 5318 1372 D303     		.2byte	0x3d3
 5319 1374 7E130000 		.4byte	0x137e
 5320 1378 05       		.uleb128 0x5
 5321 1379 03       		.byte	0x3
 5322 137a 00000000 		.4byte	charLookup
 5323 137e 07       		.uleb128 0x7
 5324 137f 56130000 		.4byte	0x1356
 5325 1383 24       		.uleb128 0x24
 5326 1384 6F000000 		.4byte	0x6f
 5327 1388 93130000 		.4byte	0x1393
 5328 138c 25       		.uleb128 0x25
 5329 138d B5000000 		.4byte	0xb5
 5330 1391 06       		.byte	0x6
 5331 1392 00       		.byte	0
 5332 1393 2C       		.uleb128 0x2c
 5333 1394 12070000 		.4byte	.LASF93
 5334 1398 01       		.byte	0x1
 5335 1399 EA03     		.2byte	0x3ea
 5336 139b 83130000 		.4byte	0x1383
 5337 139f 05       		.uleb128 0x5
 5338 13a0 03       		.byte	0x3
 5339 13a1 00000000 		.4byte	segmentPattern_array
 5340 13a5 2E       		.uleb128 0x2e
 5341 13a6 FB030000 		.4byte	.LASF94
 5342 13aa FB030000 		.4byte	.LASF94
 5343 13ae 06       		.byte	0x6
 5344 13af 5B       		.byte	0x5b
 5345 13b0 2E       		.uleb128 0x2e
 5346 13b1 C5070000 		.4byte	.LASF95
 5347 13b5 C5070000 		.4byte	.LASF95
 5348 13b9 06       		.byte	0x6
 5349 13ba 67       		.byte	0x67
ARM GAS  C:\Users\ANDREW~1\AppData\Local\Temp\ccxC4OPZ.s 			page 120


 5350 13bb 2E       		.uleb128 0x2e
 5351 13bc 44080000 		.4byte	.LASF96
 5352 13c0 44080000 		.4byte	.LASF96
 5353 13c4 06       		.byte	0x6
 5354 13c5 69       		.byte	0x69
 5355 13c6 2E       		.uleb128 0x2e
 5356 13c7 22010000 		.4byte	.LASF97
 5357 13cb 22010000 		.4byte	.LASF97
 5358 13cf 07       		.byte	0x7
 5359 13d0 26       		.byte	0x26
 5360 13d1 2E       		.uleb128 0x2e
 5361 13d2 4B010000 		.4byte	.LASF98
 5362 13d6 4B010000 		.4byte	.LASF98
 5363 13da 08       		.byte	0x8
 5364 13db 26       		.byte	0x26
 5365 13dc 2E       		.uleb128 0x2e
 5366 13dd 87040000 		.4byte	.LASF99
 5367 13e1 87040000 		.4byte	.LASF99
 5368 13e5 09       		.byte	0x9
 5369 13e6 67       		.byte	0x67
 5370 13e7 2E       		.uleb128 0x2e
 5371 13e8 88030000 		.4byte	.LASF100
 5372 13ec 88030000 		.4byte	.LASF100
 5373 13f0 09       		.byte	0x9
 5374 13f1 69       		.byte	0x69
 5375 13f2 2E       		.uleb128 0x2e
 5376 13f3 81070000 		.4byte	.LASF101
 5377 13f7 81070000 		.4byte	.LASF101
 5378 13fb 0A       		.byte	0xa
 5379 13fc 21       		.byte	0x21
 5380 13fd 2E       		.uleb128 0x2e
 5381 13fe EB030000 		.4byte	.LASF102
 5382 1402 EB030000 		.4byte	.LASF102
 5383 1406 0A       		.byte	0xa
 5384 1407 23       		.byte	0x23
 5385 1408 2E       		.uleb128 0x2e
 5386 1409 C9060000 		.4byte	.LASF103
 5387 140d C9060000 		.4byte	.LASF103
 5388 1411 0B       		.byte	0xb
 5389 1412 88       		.byte	0x88
 5390 1413 2E       		.uleb128 0x2e
 5391 1414 0D000000 		.4byte	.LASF104
 5392 1418 0D000000 		.4byte	.LASF104
 5393 141c 0C       		.byte	0xc
 5394 141d 76       		.byte	0x76
 5395 141e 2E       		.uleb128 0x2e
 5396 141f 7A040000 		.4byte	.LASF105
 5397 1423 7A040000 		.4byte	.LASF105
 5398 1427 0D       		.byte	0xd
 5399 1428 26       		.byte	0x26
 5400 1429 2E       		.uleb128 0x2e
 5401 142a 4A030000 		.4byte	.LASF106
 5402 142e 4A030000 		.4byte	.LASF106
 5403 1432 0E       		.byte	0xe
 5404 1433 2F       		.byte	0x2f
 5405 1434 2E       		.uleb128 0x2e
 5406 1435 18010000 		.4byte	.LASF107
ARM GAS  C:\Users\ANDREW~1\AppData\Local\Temp\ccxC4OPZ.s 			page 121


 5407 1439 18010000 		.4byte	.LASF107
 5408 143d 0C       		.byte	0xc
 5409 143e 77       		.byte	0x77
 5410 143f 2E       		.uleb128 0x2e
 5411 1440 EA020000 		.4byte	.LASF108
 5412 1444 EA020000 		.4byte	.LASF108
 5413 1448 06       		.byte	0x6
 5414 1449 5A       		.byte	0x5a
 5415 144a 2E       		.uleb128 0x2e
 5416 144b 22030000 		.4byte	.LASF109
 5417 144f 22030000 		.4byte	.LASF109
 5418 1453 0F       		.byte	0xf
 5419 1454 87       		.byte	0x87
 5420 1455 2E       		.uleb128 0x2e
 5421 1456 D3050000 		.4byte	.LASF110
 5422 145a D3050000 		.4byte	.LASF110
 5423 145e 10       		.byte	0x10
 5424 145f 26       		.byte	0x26
 5425 1460 2E       		.uleb128 0x2e
 5426 1461 82010000 		.4byte	.LASF111
 5427 1465 82010000 		.4byte	.LASF111
 5428 1469 11       		.byte	0x11
 5429 146a 26       		.byte	0x26
 5430 146b 2E       		.uleb128 0x2e
 5431 146c 68070000 		.4byte	.LASF112
 5432 1470 68070000 		.4byte	.LASF112
 5433 1474 12       		.byte	0x12
 5434 1475 26       		.byte	0x26
 5435 1476 2E       		.uleb128 0x2e
 5436 1477 15030000 		.4byte	.LASF113
 5437 147b 15030000 		.4byte	.LASF113
 5438 147f 13       		.byte	0x13
 5439 1480 26       		.byte	0x26
 5440 1481 2E       		.uleb128 0x2e
 5441 1482 75070000 		.4byte	.LASF114
 5442 1486 75070000 		.4byte	.LASF114
 5443 148a 14       		.byte	0x14
 5444 148b 26       		.byte	0x26
 5445 148c 2E       		.uleb128 0x2e
 5446 148d E7040000 		.4byte	.LASF115
 5447 1491 E7040000 		.4byte	.LASF115
 5448 1495 15       		.byte	0x15
 5449 1496 26       		.byte	0x26
 5450 1497 2E       		.uleb128 0x2e
 5451 1498 DE000000 		.4byte	.LASF116
 5452 149c DE000000 		.4byte	.LASF116
 5453 14a0 16       		.byte	0x16
 5454 14a1 26       		.byte	0x26
 5455 14a2 2E       		.uleb128 0x2e
 5456 14a3 4E050000 		.4byte	.LASF117
 5457 14a7 4E050000 		.4byte	.LASF117
 5458 14ab 17       		.byte	0x17
 5459 14ac 26       		.byte	0x26
 5460 14ad 2E       		.uleb128 0x2e
 5461 14ae 8F010000 		.4byte	.LASF118
 5462 14b2 8F010000 		.4byte	.LASF118
 5463 14b6 18       		.byte	0x18
ARM GAS  C:\Users\ANDREW~1\AppData\Local\Temp\ccxC4OPZ.s 			page 122


 5464 14b7 26       		.byte	0x26
 5465 14b8 2E       		.uleb128 0x2e
 5466 14b9 A9060000 		.4byte	.LASF119
 5467 14bd A9060000 		.4byte	.LASF119
 5468 14c1 19       		.byte	0x19
 5469 14c2 26       		.byte	0x26
 5470 14c3 2E       		.uleb128 0x2e
 5471 14c4 AA020000 		.4byte	.LASF120
 5472 14c8 AA020000 		.4byte	.LASF120
 5473 14cc 1A       		.byte	0x1a
 5474 14cd 26       		.byte	0x26
 5475 14ce 2E       		.uleb128 0x2e
 5476 14cf 15000000 		.4byte	.LASF121
 5477 14d3 15000000 		.4byte	.LASF121
 5478 14d7 1B       		.byte	0x1b
 5479 14d8 26       		.byte	0x26
 5480 14d9 2E       		.uleb128 0x2e
 5481 14da EA060000 		.4byte	.LASF122
 5482 14de EA060000 		.4byte	.LASF122
 5483 14e2 1C       		.byte	0x1c
 5484 14e3 29       		.byte	0x29
 5485 14e4 2E       		.uleb128 0x2e
 5486 14e5 6B060000 		.4byte	.LASF123
 5487 14e9 6B060000 		.4byte	.LASF123
 5488 14ed 1D       		.byte	0x1d
 5489 14ee 29       		.byte	0x29
 5490 14ef 2E       		.uleb128 0x2e
 5491 14f0 6D020000 		.4byte	.LASF124
 5492 14f4 6D020000 		.4byte	.LASF124
 5493 14f8 0B       		.byte	0xb
 5494 14f9 8B       		.byte	0x8b
 5495 14fa 2E       		.uleb128 0x2e
 5496 14fb 0C050000 		.4byte	.LASF125
 5497 14ff 0C050000 		.4byte	.LASF125
 5498 1503 1E       		.byte	0x1e
 5499 1504 29       		.byte	0x29
 5500 1505 2E       		.uleb128 0x2e
 5501 1506 A8030000 		.4byte	.LASF126
 5502 150a A8030000 		.4byte	.LASF126
 5503 150e 1F       		.byte	0x1f
 5504 150f 29       		.byte	0x29
 5505 1510 2E       		.uleb128 0x2e
 5506 1511 8E020000 		.4byte	.LASF127
 5507 1515 8E020000 		.4byte	.LASF127
 5508 1519 20       		.byte	0x20
 5509 151a 29       		.byte	0x29
 5510 151b 2E       		.uleb128 0x2e
 5511 151c 3B050000 		.4byte	.LASF128
 5512 1520 3B050000 		.4byte	.LASF128
 5513 1524 21       		.byte	0x21
 5514 1525 28       		.byte	0x28
 5515 1526 2E       		.uleb128 0x2e
 5516 1527 C4030000 		.4byte	.LASF129
 5517 152b C4030000 		.4byte	.LASF129
 5518 152f 21       		.byte	0x21
 5519 1530 18       		.byte	0x18
 5520 1531 2F       		.uleb128 0x2f
ARM GAS  C:\Users\ANDREW~1\AppData\Local\Temp\ccxC4OPZ.s 			page 123


 5521 1532 08040000 		.4byte	.LASF147
 5522 1536 08040000 		.4byte	.LASF147
 5523 153a 2E       		.uleb128 0x2e
 5524 153b 57020000 		.4byte	.LASF130
 5525 153f 57020000 		.4byte	.LASF130
 5526 1543 22       		.byte	0x22
 5527 1544 28       		.byte	0x28
 5528 1545 2E       		.uleb128 0x2e
 5529 1546 CE020000 		.4byte	.LASF131
 5530 154a CE020000 		.4byte	.LASF131
 5531 154e 22       		.byte	0x22
 5532 154f 18       		.byte	0x18
 5533 1550 2E       		.uleb128 0x2e
 5534 1551 7D000000 		.4byte	.LASF132
 5535 1555 7D000000 		.4byte	.LASF132
 5536 1559 06       		.byte	0x6
 5537 155a 5D       		.byte	0x5d
 5538 155b 2E       		.uleb128 0x2e
 5539 155c AD070000 		.4byte	.LASF133
 5540 1560 AD070000 		.4byte	.LASF133
 5541 1564 23       		.byte	0x23
 5542 1565 3E       		.byte	0x3e
 5543 1566 2E       		.uleb128 0x2e
 5544 1567 50070000 		.4byte	.LASF134
 5545 156b 50070000 		.4byte	.LASF134
 5546 156f 24       		.byte	0x24
 5547 1570 33       		.byte	0x33
 5548 1571 2E       		.uleb128 0x2e
 5549 1572 1D040000 		.4byte	.LASF135
 5550 1576 1D040000 		.4byte	.LASF135
 5551 157a 25       		.byte	0x25
 5552 157b 3F       		.byte	0x3f
 5553 157c 2E       		.uleb128 0x2e
 5554 157d 36080000 		.4byte	.LASF136
 5555 1581 36080000 		.4byte	.LASF136
 5556 1585 26       		.byte	0x26
 5557 1586 33       		.byte	0x33
 5558 1587 2E       		.uleb128 0x2e
 5559 1588 A0040000 		.4byte	.LASF137
 5560 158c A0040000 		.4byte	.LASF137
 5561 1590 27       		.byte	0x27
 5562 1591 26       		.byte	0x26
 5563 1592 2E       		.uleb128 0x2e
 5564 1593 EB070000 		.4byte	.LASF138
 5565 1597 EB070000 		.4byte	.LASF138
 5566 159b 09       		.byte	0x9
 5567 159c 5D       		.byte	0x5d
 5568 159d 2E       		.uleb128 0x2e
 5569 159e 6C030000 		.4byte	.LASF139
 5570 15a2 6C030000 		.4byte	.LASF139
 5571 15a6 09       		.byte	0x9
 5572 15a7 5A       		.byte	0x5a
 5573 15a8 2E       		.uleb128 0x2e
 5574 15a9 B6000000 		.4byte	.LASF140
 5575 15ad B6000000 		.4byte	.LASF140
 5576 15b1 0A       		.byte	0xa
 5577 15b2 1F       		.byte	0x1f
ARM GAS  C:\Users\ANDREW~1\AppData\Local\Temp\ccxC4OPZ.s 			page 124


 5578 15b3 2E       		.uleb128 0x2e
 5579 15b4 5E060000 		.4byte	.LASF141
 5580 15b8 5E060000 		.4byte	.LASF141
 5581 15bc 0B       		.byte	0xb
 5582 15bd 54       		.byte	0x54
 5583 15be 00       		.byte	0
 5584              		.section	.debug_abbrev,"",%progbits
 5585              	.Ldebug_abbrev0:
 5586 0000 01       		.uleb128 0x1
 5587 0001 11       		.uleb128 0x11
 5588 0002 01       		.byte	0x1
 5589 0003 25       		.uleb128 0x25
 5590 0004 0E       		.uleb128 0xe
 5591 0005 13       		.uleb128 0x13
 5592 0006 0B       		.uleb128 0xb
 5593 0007 03       		.uleb128 0x3
 5594 0008 0E       		.uleb128 0xe
 5595 0009 1B       		.uleb128 0x1b
 5596 000a 0E       		.uleb128 0xe
 5597 000b 55       		.uleb128 0x55
 5598 000c 17       		.uleb128 0x17
 5599 000d 11       		.uleb128 0x11
 5600 000e 01       		.uleb128 0x1
 5601 000f 10       		.uleb128 0x10
 5602 0010 17       		.uleb128 0x17
 5603 0011 00       		.byte	0
 5604 0012 00       		.byte	0
 5605 0013 02       		.uleb128 0x2
 5606 0014 24       		.uleb128 0x24
 5607 0015 00       		.byte	0
 5608 0016 0B       		.uleb128 0xb
 5609 0017 0B       		.uleb128 0xb
 5610 0018 3E       		.uleb128 0x3e
 5611 0019 0B       		.uleb128 0xb
 5612 001a 03       		.uleb128 0x3
 5613 001b 0E       		.uleb128 0xe
 5614 001c 00       		.byte	0
 5615 001d 00       		.byte	0
 5616 001e 03       		.uleb128 0x3
 5617 001f 16       		.uleb128 0x16
 5618 0020 00       		.byte	0
 5619 0021 03       		.uleb128 0x3
 5620 0022 0E       		.uleb128 0xe
 5621 0023 3A       		.uleb128 0x3a
 5622 0024 0B       		.uleb128 0xb
 5623 0025 3B       		.uleb128 0x3b
 5624 0026 0B       		.uleb128 0xb
 5625 0027 49       		.uleb128 0x49
 5626 0028 13       		.uleb128 0x13
 5627 0029 00       		.byte	0
 5628 002a 00       		.byte	0
 5629 002b 04       		.uleb128 0x4
 5630 002c 24       		.uleb128 0x24
 5631 002d 00       		.byte	0
 5632 002e 0B       		.uleb128 0xb
 5633 002f 0B       		.uleb128 0xb
 5634 0030 3E       		.uleb128 0x3e
ARM GAS  C:\Users\ANDREW~1\AppData\Local\Temp\ccxC4OPZ.s 			page 125


 5635 0031 0B       		.uleb128 0xb
 5636 0032 03       		.uleb128 0x3
 5637 0033 08       		.uleb128 0x8
 5638 0034 00       		.byte	0
 5639 0035 00       		.byte	0
 5640 0036 05       		.uleb128 0x5
 5641 0037 16       		.uleb128 0x16
 5642 0038 00       		.byte	0
 5643 0039 03       		.uleb128 0x3
 5644 003a 0E       		.uleb128 0xe
 5645 003b 3A       		.uleb128 0x3a
 5646 003c 0B       		.uleb128 0xb
 5647 003d 3B       		.uleb128 0x3b
 5648 003e 05       		.uleb128 0x5
 5649 003f 49       		.uleb128 0x49
 5650 0040 13       		.uleb128 0x13
 5651 0041 00       		.byte	0
 5652 0042 00       		.byte	0
 5653 0043 06       		.uleb128 0x6
 5654 0044 0F       		.uleb128 0xf
 5655 0045 00       		.byte	0
 5656 0046 0B       		.uleb128 0xb
 5657 0047 0B       		.uleb128 0xb
 5658 0048 49       		.uleb128 0x49
 5659 0049 13       		.uleb128 0x13
 5660 004a 00       		.byte	0
 5661 004b 00       		.byte	0
 5662 004c 07       		.uleb128 0x7
 5663 004d 26       		.uleb128 0x26
 5664 004e 00       		.byte	0
 5665 004f 49       		.uleb128 0x49
 5666 0050 13       		.uleb128 0x13
 5667 0051 00       		.byte	0
 5668 0052 00       		.byte	0
 5669 0053 08       		.uleb128 0x8
 5670 0054 26       		.uleb128 0x26
 5671 0055 00       		.byte	0
 5672 0056 00       		.byte	0
 5673 0057 00       		.byte	0
 5674 0058 09       		.uleb128 0x9
 5675 0059 2E       		.uleb128 0x2e
 5676 005a 01       		.byte	0x1
 5677 005b 3F       		.uleb128 0x3f
 5678 005c 19       		.uleb128 0x19
 5679 005d 03       		.uleb128 0x3
 5680 005e 0E       		.uleb128 0xe
 5681 005f 3A       		.uleb128 0x3a
 5682 0060 0B       		.uleb128 0xb
 5683 0061 3B       		.uleb128 0x3b
 5684 0062 05       		.uleb128 0x5
 5685 0063 27       		.uleb128 0x27
 5686 0064 19       		.uleb128 0x19
 5687 0065 49       		.uleb128 0x49
 5688 0066 13       		.uleb128 0x13
 5689 0067 11       		.uleb128 0x11
 5690 0068 01       		.uleb128 0x1
 5691 0069 12       		.uleb128 0x12
ARM GAS  C:\Users\ANDREW~1\AppData\Local\Temp\ccxC4OPZ.s 			page 126


 5692 006a 06       		.uleb128 0x6
 5693 006b 40       		.uleb128 0x40
 5694 006c 18       		.uleb128 0x18
 5695 006d 9742     		.uleb128 0x2117
 5696 006f 19       		.uleb128 0x19
 5697 0070 01       		.uleb128 0x1
 5698 0071 13       		.uleb128 0x13
 5699 0072 00       		.byte	0
 5700 0073 00       		.byte	0
 5701 0074 0A       		.uleb128 0xa
 5702 0075 05       		.uleb128 0x5
 5703 0076 00       		.byte	0
 5704 0077 03       		.uleb128 0x3
 5705 0078 08       		.uleb128 0x8
 5706 0079 3A       		.uleb128 0x3a
 5707 007a 0B       		.uleb128 0xb
 5708 007b 3B       		.uleb128 0x3b
 5709 007c 05       		.uleb128 0x5
 5710 007d 49       		.uleb128 0x49
 5711 007e 13       		.uleb128 0x13
 5712 007f 02       		.uleb128 0x2
 5713 0080 17       		.uleb128 0x17
 5714 0081 00       		.byte	0
 5715 0082 00       		.byte	0
 5716 0083 0B       		.uleb128 0xb
 5717 0084 05       		.uleb128 0x5
 5718 0085 00       		.byte	0
 5719 0086 03       		.uleb128 0x3
 5720 0087 08       		.uleb128 0x8
 5721 0088 3A       		.uleb128 0x3a
 5722 0089 0B       		.uleb128 0xb
 5723 008a 3B       		.uleb128 0x3b
 5724 008b 05       		.uleb128 0x5
 5725 008c 49       		.uleb128 0x49
 5726 008d 13       		.uleb128 0x13
 5727 008e 02       		.uleb128 0x2
 5728 008f 18       		.uleb128 0x18
 5729 0090 00       		.byte	0
 5730 0091 00       		.byte	0
 5731 0092 0C       		.uleb128 0xc
 5732 0093 2E       		.uleb128 0x2e
 5733 0094 00       		.byte	0
 5734 0095 3F       		.uleb128 0x3f
 5735 0096 19       		.uleb128 0x19
 5736 0097 03       		.uleb128 0x3
 5737 0098 0E       		.uleb128 0xe
 5738 0099 3A       		.uleb128 0x3a
 5739 009a 0B       		.uleb128 0xb
 5740 009b 3B       		.uleb128 0x3b
 5741 009c 05       		.uleb128 0x5
 5742 009d 27       		.uleb128 0x27
 5743 009e 19       		.uleb128 0x19
 5744 009f 11       		.uleb128 0x11
 5745 00a0 01       		.uleb128 0x1
 5746 00a1 12       		.uleb128 0x12
 5747 00a2 06       		.uleb128 0x6
 5748 00a3 40       		.uleb128 0x40
ARM GAS  C:\Users\ANDREW~1\AppData\Local\Temp\ccxC4OPZ.s 			page 127


 5749 00a4 18       		.uleb128 0x18
 5750 00a5 9742     		.uleb128 0x2117
 5751 00a7 19       		.uleb128 0x19
 5752 00a8 00       		.byte	0
 5753 00a9 00       		.byte	0
 5754 00aa 0D       		.uleb128 0xd
 5755 00ab 2E       		.uleb128 0x2e
 5756 00ac 01       		.byte	0x1
 5757 00ad 3F       		.uleb128 0x3f
 5758 00ae 19       		.uleb128 0x19
 5759 00af 03       		.uleb128 0x3
 5760 00b0 0E       		.uleb128 0xe
 5761 00b1 3A       		.uleb128 0x3a
 5762 00b2 0B       		.uleb128 0xb
 5763 00b3 3B       		.uleb128 0x3b
 5764 00b4 05       		.uleb128 0x5
 5765 00b5 27       		.uleb128 0x27
 5766 00b6 19       		.uleb128 0x19
 5767 00b7 11       		.uleb128 0x11
 5768 00b8 01       		.uleb128 0x1
 5769 00b9 12       		.uleb128 0x12
 5770 00ba 06       		.uleb128 0x6
 5771 00bb 40       		.uleb128 0x40
 5772 00bc 18       		.uleb128 0x18
 5773 00bd 9742     		.uleb128 0x2117
 5774 00bf 19       		.uleb128 0x19
 5775 00c0 01       		.uleb128 0x1
 5776 00c1 13       		.uleb128 0x13
 5777 00c2 00       		.byte	0
 5778 00c3 00       		.byte	0
 5779 00c4 0E       		.uleb128 0xe
 5780 00c5 898201   		.uleb128 0x4109
 5781 00c8 00       		.byte	0
 5782 00c9 11       		.uleb128 0x11
 5783 00ca 01       		.uleb128 0x1
 5784 00cb 31       		.uleb128 0x31
 5785 00cc 13       		.uleb128 0x13
 5786 00cd 00       		.byte	0
 5787 00ce 00       		.byte	0
 5788 00cf 0F       		.uleb128 0xf
 5789 00d0 898201   		.uleb128 0x4109
 5790 00d3 01       		.byte	0x1
 5791 00d4 11       		.uleb128 0x11
 5792 00d5 01       		.uleb128 0x1
 5793 00d6 31       		.uleb128 0x31
 5794 00d7 13       		.uleb128 0x13
 5795 00d8 01       		.uleb128 0x1
 5796 00d9 13       		.uleb128 0x13
 5797 00da 00       		.byte	0
 5798 00db 00       		.byte	0
 5799 00dc 10       		.uleb128 0x10
 5800 00dd 8A8201   		.uleb128 0x410a
 5801 00e0 00       		.byte	0
 5802 00e1 02       		.uleb128 0x2
 5803 00e2 18       		.uleb128 0x18
 5804 00e3 9142     		.uleb128 0x2111
 5805 00e5 18       		.uleb128 0x18
ARM GAS  C:\Users\ANDREW~1\AppData\Local\Temp\ccxC4OPZ.s 			page 128


 5806 00e6 00       		.byte	0
 5807 00e7 00       		.byte	0
 5808 00e8 11       		.uleb128 0x11
 5809 00e9 898201   		.uleb128 0x4109
 5810 00ec 01       		.byte	0x1
 5811 00ed 11       		.uleb128 0x11
 5812 00ee 01       		.uleb128 0x1
 5813 00ef 31       		.uleb128 0x31
 5814 00f0 13       		.uleb128 0x13
 5815 00f1 00       		.byte	0
 5816 00f2 00       		.byte	0
 5817 00f3 12       		.uleb128 0x12
 5818 00f4 2E       		.uleb128 0x2e
 5819 00f5 01       		.byte	0x1
 5820 00f6 3F       		.uleb128 0x3f
 5821 00f7 19       		.uleb128 0x19
 5822 00f8 03       		.uleb128 0x3
 5823 00f9 0E       		.uleb128 0xe
 5824 00fa 3A       		.uleb128 0x3a
 5825 00fb 0B       		.uleb128 0xb
 5826 00fc 3B       		.uleb128 0x3b
 5827 00fd 05       		.uleb128 0x5
 5828 00fe 49       		.uleb128 0x49
 5829 00ff 13       		.uleb128 0x13
 5830 0100 11       		.uleb128 0x11
 5831 0101 01       		.uleb128 0x1
 5832 0102 12       		.uleb128 0x12
 5833 0103 06       		.uleb128 0x6
 5834 0104 40       		.uleb128 0x40
 5835 0105 18       		.uleb128 0x18
 5836 0106 9642     		.uleb128 0x2116
 5837 0108 19       		.uleb128 0x19
 5838 0109 01       		.uleb128 0x1
 5839 010a 13       		.uleb128 0x13
 5840 010b 00       		.byte	0
 5841 010c 00       		.byte	0
 5842 010d 13       		.uleb128 0x13
 5843 010e 34       		.uleb128 0x34
 5844 010f 00       		.byte	0
 5845 0110 03       		.uleb128 0x3
 5846 0111 0E       		.uleb128 0xe
 5847 0112 3A       		.uleb128 0x3a
 5848 0113 0B       		.uleb128 0xb
 5849 0114 3B       		.uleb128 0x3b
 5850 0115 05       		.uleb128 0x5
 5851 0116 49       		.uleb128 0x49
 5852 0117 13       		.uleb128 0x13
 5853 0118 02       		.uleb128 0x2
 5854 0119 17       		.uleb128 0x17
 5855 011a 00       		.byte	0
 5856 011b 00       		.byte	0
 5857 011c 14       		.uleb128 0x14
 5858 011d 05       		.uleb128 0x5
 5859 011e 00       		.byte	0
 5860 011f 03       		.uleb128 0x3
 5861 0120 0E       		.uleb128 0xe
 5862 0121 3A       		.uleb128 0x3a
ARM GAS  C:\Users\ANDREW~1\AppData\Local\Temp\ccxC4OPZ.s 			page 129


 5863 0122 0B       		.uleb128 0xb
 5864 0123 3B       		.uleb128 0x3b
 5865 0124 05       		.uleb128 0x5
 5866 0125 49       		.uleb128 0x49
 5867 0126 13       		.uleb128 0x13
 5868 0127 02       		.uleb128 0x2
 5869 0128 17       		.uleb128 0x17
 5870 0129 00       		.byte	0
 5871 012a 00       		.byte	0
 5872 012b 15       		.uleb128 0x15
 5873 012c 34       		.uleb128 0x34
 5874 012d 00       		.byte	0
 5875 012e 03       		.uleb128 0x3
 5876 012f 08       		.uleb128 0x8
 5877 0130 3A       		.uleb128 0x3a
 5878 0131 0B       		.uleb128 0xb
 5879 0132 3B       		.uleb128 0x3b
 5880 0133 05       		.uleb128 0x5
 5881 0134 49       		.uleb128 0x49
 5882 0135 13       		.uleb128 0x13
 5883 0136 02       		.uleb128 0x2
 5884 0137 17       		.uleb128 0x17
 5885 0138 00       		.byte	0
 5886 0139 00       		.byte	0
 5887 013a 16       		.uleb128 0x16
 5888 013b 0B       		.uleb128 0xb
 5889 013c 01       		.byte	0x1
 5890 013d 11       		.uleb128 0x11
 5891 013e 01       		.uleb128 0x1
 5892 013f 12       		.uleb128 0x12
 5893 0140 06       		.uleb128 0x6
 5894 0141 00       		.byte	0
 5895 0142 00       		.byte	0
 5896 0143 17       		.uleb128 0x17
 5897 0144 34       		.uleb128 0x34
 5898 0145 00       		.byte	0
 5899 0146 03       		.uleb128 0x3
 5900 0147 0E       		.uleb128 0xe
 5901 0148 3A       		.uleb128 0x3a
 5902 0149 0B       		.uleb128 0xb
 5903 014a 3B       		.uleb128 0x3b
 5904 014b 05       		.uleb128 0x5
 5905 014c 49       		.uleb128 0x49
 5906 014d 13       		.uleb128 0x13
 5907 014e 02       		.uleb128 0x2
 5908 014f 18       		.uleb128 0x18
 5909 0150 00       		.byte	0
 5910 0151 00       		.byte	0
 5911 0152 18       		.uleb128 0x18
 5912 0153 0B       		.uleb128 0xb
 5913 0154 01       		.byte	0x1
 5914 0155 11       		.uleb128 0x11
 5915 0156 01       		.uleb128 0x1
 5916 0157 12       		.uleb128 0x12
 5917 0158 06       		.uleb128 0x6
 5918 0159 01       		.uleb128 0x1
 5919 015a 13       		.uleb128 0x13
ARM GAS  C:\Users\ANDREW~1\AppData\Local\Temp\ccxC4OPZ.s 			page 130


 5920 015b 00       		.byte	0
 5921 015c 00       		.byte	0
 5922 015d 19       		.uleb128 0x19
 5923 015e 2E       		.uleb128 0x2e
 5924 015f 01       		.byte	0x1
 5925 0160 3F       		.uleb128 0x3f
 5926 0161 19       		.uleb128 0x19
 5927 0162 03       		.uleb128 0x3
 5928 0163 0E       		.uleb128 0xe
 5929 0164 3A       		.uleb128 0x3a
 5930 0165 0B       		.uleb128 0xb
 5931 0166 3B       		.uleb128 0x3b
 5932 0167 05       		.uleb128 0x5
 5933 0168 27       		.uleb128 0x27
 5934 0169 19       		.uleb128 0x19
 5935 016a 11       		.uleb128 0x11
 5936 016b 01       		.uleb128 0x1
 5937 016c 12       		.uleb128 0x12
 5938 016d 06       		.uleb128 0x6
 5939 016e 40       		.uleb128 0x40
 5940 016f 18       		.uleb128 0x18
 5941 0170 9642     		.uleb128 0x2116
 5942 0172 19       		.uleb128 0x19
 5943 0173 01       		.uleb128 0x1
 5944 0174 13       		.uleb128 0x13
 5945 0175 00       		.byte	0
 5946 0176 00       		.byte	0
 5947 0177 1A       		.uleb128 0x1a
 5948 0178 2E       		.uleb128 0x2e
 5949 0179 01       		.byte	0x1
 5950 017a 3F       		.uleb128 0x3f
 5951 017b 19       		.uleb128 0x19
 5952 017c 03       		.uleb128 0x3
 5953 017d 0E       		.uleb128 0xe
 5954 017e 3A       		.uleb128 0x3a
 5955 017f 0B       		.uleb128 0xb
 5956 0180 3B       		.uleb128 0x3b
 5957 0181 05       		.uleb128 0x5
 5958 0182 11       		.uleb128 0x11
 5959 0183 01       		.uleb128 0x1
 5960 0184 12       		.uleb128 0x12
 5961 0185 06       		.uleb128 0x6
 5962 0186 40       		.uleb128 0x40
 5963 0187 18       		.uleb128 0x18
 5964 0188 9742     		.uleb128 0x2117
 5965 018a 19       		.uleb128 0x19
 5966 018b 01       		.uleb128 0x1
 5967 018c 13       		.uleb128 0x13
 5968 018d 00       		.byte	0
 5969 018e 00       		.byte	0
 5970 018f 1B       		.uleb128 0x1b
 5971 0190 2E       		.uleb128 0x2e
 5972 0191 01       		.byte	0x1
 5973 0192 3F       		.uleb128 0x3f
 5974 0193 19       		.uleb128 0x19
 5975 0194 03       		.uleb128 0x3
 5976 0195 0E       		.uleb128 0xe
ARM GAS  C:\Users\ANDREW~1\AppData\Local\Temp\ccxC4OPZ.s 			page 131


 5977 0196 3A       		.uleb128 0x3a
 5978 0197 0B       		.uleb128 0xb
 5979 0198 3B       		.uleb128 0x3b
 5980 0199 05       		.uleb128 0x5
 5981 019a 27       		.uleb128 0x27
 5982 019b 19       		.uleb128 0x19
 5983 019c 49       		.uleb128 0x49
 5984 019d 13       		.uleb128 0x13
 5985 019e 11       		.uleb128 0x11
 5986 019f 01       		.uleb128 0x1
 5987 01a0 12       		.uleb128 0x12
 5988 01a1 06       		.uleb128 0x6
 5989 01a2 40       		.uleb128 0x40
 5990 01a3 18       		.uleb128 0x18
 5991 01a4 9642     		.uleb128 0x2116
 5992 01a6 19       		.uleb128 0x19
 5993 01a7 01       		.uleb128 0x1
 5994 01a8 13       		.uleb128 0x13
 5995 01a9 00       		.byte	0
 5996 01aa 00       		.byte	0
 5997 01ab 1C       		.uleb128 0x1c
 5998 01ac 05       		.uleb128 0x5
 5999 01ad 00       		.byte	0
 6000 01ae 03       		.uleb128 0x3
 6001 01af 0E       		.uleb128 0xe
 6002 01b0 3A       		.uleb128 0x3a
 6003 01b1 0B       		.uleb128 0xb
 6004 01b2 3B       		.uleb128 0x3b
 6005 01b3 05       		.uleb128 0x5
 6006 01b4 49       		.uleb128 0x49
 6007 01b5 13       		.uleb128 0x13
 6008 01b6 02       		.uleb128 0x2
 6009 01b7 18       		.uleb128 0x18
 6010 01b8 00       		.byte	0
 6011 01b9 00       		.byte	0
 6012 01ba 1D       		.uleb128 0x1d
 6013 01bb 0B       		.uleb128 0xb
 6014 01bc 01       		.byte	0x1
 6015 01bd 55       		.uleb128 0x55
 6016 01be 17       		.uleb128 0x17
 6017 01bf 01       		.uleb128 0x1
 6018 01c0 13       		.uleb128 0x13
 6019 01c1 00       		.byte	0
 6020 01c2 00       		.byte	0
 6021 01c3 1E       		.uleb128 0x1e
 6022 01c4 0B       		.uleb128 0xb
 6023 01c5 01       		.byte	0x1
 6024 01c6 55       		.uleb128 0x55
 6025 01c7 17       		.uleb128 0x17
 6026 01c8 00       		.byte	0
 6027 01c9 00       		.byte	0
 6028 01ca 1F       		.uleb128 0x1f
 6029 01cb 2E       		.uleb128 0x2e
 6030 01cc 01       		.byte	0x1
 6031 01cd 3F       		.uleb128 0x3f
 6032 01ce 19       		.uleb128 0x19
 6033 01cf 03       		.uleb128 0x3
ARM GAS  C:\Users\ANDREW~1\AppData\Local\Temp\ccxC4OPZ.s 			page 132


 6034 01d0 0E       		.uleb128 0xe
 6035 01d1 3A       		.uleb128 0x3a
 6036 01d2 0B       		.uleb128 0xb
 6037 01d3 3B       		.uleb128 0x3b
 6038 01d4 0B       		.uleb128 0xb
 6039 01d5 27       		.uleb128 0x27
 6040 01d6 19       		.uleb128 0x19
 6041 01d7 11       		.uleb128 0x11
 6042 01d8 01       		.uleb128 0x1
 6043 01d9 12       		.uleb128 0x12
 6044 01da 06       		.uleb128 0x6
 6045 01db 40       		.uleb128 0x40
 6046 01dc 18       		.uleb128 0x18
 6047 01dd 9642     		.uleb128 0x2116
 6048 01df 19       		.uleb128 0x19
 6049 01e0 01       		.uleb128 0x1
 6050 01e1 13       		.uleb128 0x13
 6051 01e2 00       		.byte	0
 6052 01e3 00       		.byte	0
 6053 01e4 20       		.uleb128 0x20
 6054 01e5 34       		.uleb128 0x34
 6055 01e6 00       		.byte	0
 6056 01e7 03       		.uleb128 0x3
 6057 01e8 0E       		.uleb128 0xe
 6058 01e9 3A       		.uleb128 0x3a
 6059 01ea 0B       		.uleb128 0xb
 6060 01eb 3B       		.uleb128 0x3b
 6061 01ec 0B       		.uleb128 0xb
 6062 01ed 49       		.uleb128 0x49
 6063 01ee 13       		.uleb128 0x13
 6064 01ef 02       		.uleb128 0x2
 6065 01f0 17       		.uleb128 0x17
 6066 01f1 00       		.byte	0
 6067 01f2 00       		.byte	0
 6068 01f3 21       		.uleb128 0x21
 6069 01f4 34       		.uleb128 0x34
 6070 01f5 00       		.byte	0
 6071 01f6 03       		.uleb128 0x3
 6072 01f7 0E       		.uleb128 0xe
 6073 01f8 3A       		.uleb128 0x3a
 6074 01f9 0B       		.uleb128 0xb
 6075 01fa 3B       		.uleb128 0x3b
 6076 01fb 05       		.uleb128 0x5
 6077 01fc 49       		.uleb128 0x49
 6078 01fd 13       		.uleb128 0x13
 6079 01fe 00       		.byte	0
 6080 01ff 00       		.byte	0
 6081 0200 22       		.uleb128 0x22
 6082 0201 34       		.uleb128 0x34
 6083 0202 00       		.byte	0
 6084 0203 03       		.uleb128 0x3
 6085 0204 08       		.uleb128 0x8
 6086 0205 3A       		.uleb128 0x3a
 6087 0206 0B       		.uleb128 0xb
 6088 0207 3B       		.uleb128 0x3b
 6089 0208 05       		.uleb128 0x5
 6090 0209 49       		.uleb128 0x49
ARM GAS  C:\Users\ANDREW~1\AppData\Local\Temp\ccxC4OPZ.s 			page 133


 6091 020a 13       		.uleb128 0x13
 6092 020b 02       		.uleb128 0x2
 6093 020c 18       		.uleb128 0x18
 6094 020d 00       		.byte	0
 6095 020e 00       		.byte	0
 6096 020f 23       		.uleb128 0x23
 6097 0210 34       		.uleb128 0x34
 6098 0211 00       		.byte	0
 6099 0212 03       		.uleb128 0x3
 6100 0213 0E       		.uleb128 0xe
 6101 0214 3A       		.uleb128 0x3a
 6102 0215 0B       		.uleb128 0xb
 6103 0216 3B       		.uleb128 0x3b
 6104 0217 05       		.uleb128 0x5
 6105 0218 49       		.uleb128 0x49
 6106 0219 13       		.uleb128 0x13
 6107 021a 1C       		.uleb128 0x1c
 6108 021b 0B       		.uleb128 0xb
 6109 021c 00       		.byte	0
 6110 021d 00       		.byte	0
 6111 021e 24       		.uleb128 0x24
 6112 021f 01       		.uleb128 0x1
 6113 0220 01       		.byte	0x1
 6114 0221 49       		.uleb128 0x49
 6115 0222 13       		.uleb128 0x13
 6116 0223 01       		.uleb128 0x1
 6117 0224 13       		.uleb128 0x13
 6118 0225 00       		.byte	0
 6119 0226 00       		.byte	0
 6120 0227 25       		.uleb128 0x25
 6121 0228 21       		.uleb128 0x21
 6122 0229 00       		.byte	0
 6123 022a 49       		.uleb128 0x49
 6124 022b 13       		.uleb128 0x13
 6125 022c 2F       		.uleb128 0x2f
 6126 022d 0B       		.uleb128 0xb
 6127 022e 00       		.byte	0
 6128 022f 00       		.byte	0
 6129 0230 26       		.uleb128 0x26
 6130 0231 2E       		.uleb128 0x2e
 6131 0232 01       		.byte	0x1
 6132 0233 3F       		.uleb128 0x3f
 6133 0234 19       		.uleb128 0x19
 6134 0235 03       		.uleb128 0x3
 6135 0236 0E       		.uleb128 0xe
 6136 0237 3A       		.uleb128 0x3a
 6137 0238 0B       		.uleb128 0xb
 6138 0239 3B       		.uleb128 0x3b
 6139 023a 0B       		.uleb128 0xb
 6140 023b 27       		.uleb128 0x27
 6141 023c 19       		.uleb128 0x19
 6142 023d 49       		.uleb128 0x49
 6143 023e 13       		.uleb128 0x13
 6144 023f 8701     		.uleb128 0x87
 6145 0241 19       		.uleb128 0x19
 6146 0242 11       		.uleb128 0x11
 6147 0243 01       		.uleb128 0x1
ARM GAS  C:\Users\ANDREW~1\AppData\Local\Temp\ccxC4OPZ.s 			page 134


 6148 0244 12       		.uleb128 0x12
 6149 0245 06       		.uleb128 0x6
 6150 0246 40       		.uleb128 0x40
 6151 0247 18       		.uleb128 0x18
 6152 0248 9642     		.uleb128 0x2116
 6153 024a 19       		.uleb128 0x19
 6154 024b 01       		.uleb128 0x1
 6155 024c 13       		.uleb128 0x13
 6156 024d 00       		.byte	0
 6157 024e 00       		.byte	0
 6158 024f 27       		.uleb128 0x27
 6159 0250 34       		.uleb128 0x34
 6160 0251 00       		.byte	0
 6161 0252 03       		.uleb128 0x3
 6162 0253 0E       		.uleb128 0xe
 6163 0254 3A       		.uleb128 0x3a
 6164 0255 0B       		.uleb128 0xb
 6165 0256 3B       		.uleb128 0x3b
 6166 0257 0B       		.uleb128 0xb
 6167 0258 49       		.uleb128 0x49
 6168 0259 13       		.uleb128 0x13
 6169 025a 02       		.uleb128 0x2
 6170 025b 18       		.uleb128 0x18
 6171 025c 00       		.byte	0
 6172 025d 00       		.byte	0
 6173 025e 28       		.uleb128 0x28
 6174 025f 34       		.uleb128 0x34
 6175 0260 00       		.byte	0
 6176 0261 03       		.uleb128 0x3
 6177 0262 0E       		.uleb128 0xe
 6178 0263 3A       		.uleb128 0x3a
 6179 0264 0B       		.uleb128 0xb
 6180 0265 3B       		.uleb128 0x3b
 6181 0266 0B       		.uleb128 0xb
 6182 0267 49       		.uleb128 0x49
 6183 0268 13       		.uleb128 0x13
 6184 0269 00       		.byte	0
 6185 026a 00       		.byte	0
 6186 026b 29       		.uleb128 0x29
 6187 026c 34       		.uleb128 0x34
 6188 026d 00       		.byte	0
 6189 026e 03       		.uleb128 0x3
 6190 026f 0E       		.uleb128 0xe
 6191 0270 3A       		.uleb128 0x3a
 6192 0271 0B       		.uleb128 0xb
 6193 0272 3B       		.uleb128 0x3b
 6194 0273 05       		.uleb128 0x5
 6195 0274 49       		.uleb128 0x49
 6196 0275 13       		.uleb128 0x13
 6197 0276 3F       		.uleb128 0x3f
 6198 0277 19       		.uleb128 0x19
 6199 0278 3C       		.uleb128 0x3c
 6200 0279 19       		.uleb128 0x19
 6201 027a 00       		.byte	0
 6202 027b 00       		.byte	0
 6203 027c 2A       		.uleb128 0x2a
 6204 027d 35       		.uleb128 0x35
ARM GAS  C:\Users\ANDREW~1\AppData\Local\Temp\ccxC4OPZ.s 			page 135


 6205 027e 00       		.byte	0
 6206 027f 49       		.uleb128 0x49
 6207 0280 13       		.uleb128 0x13
 6208 0281 00       		.byte	0
 6209 0282 00       		.byte	0
 6210 0283 2B       		.uleb128 0x2b
 6211 0284 34       		.uleb128 0x34
 6212 0285 00       		.byte	0
 6213 0286 03       		.uleb128 0x3
 6214 0287 0E       		.uleb128 0xe
 6215 0288 3A       		.uleb128 0x3a
 6216 0289 0B       		.uleb128 0xb
 6217 028a 3B       		.uleb128 0x3b
 6218 028b 0B       		.uleb128 0xb
 6219 028c 49       		.uleb128 0x49
 6220 028d 13       		.uleb128 0x13
 6221 028e 3F       		.uleb128 0x3f
 6222 028f 19       		.uleb128 0x19
 6223 0290 02       		.uleb128 0x2
 6224 0291 18       		.uleb128 0x18
 6225 0292 00       		.byte	0
 6226 0293 00       		.byte	0
 6227 0294 2C       		.uleb128 0x2c
 6228 0295 34       		.uleb128 0x34
 6229 0296 00       		.byte	0
 6230 0297 03       		.uleb128 0x3
 6231 0298 0E       		.uleb128 0xe
 6232 0299 3A       		.uleb128 0x3a
 6233 029a 0B       		.uleb128 0xb
 6234 029b 3B       		.uleb128 0x3b
 6235 029c 05       		.uleb128 0x5
 6236 029d 49       		.uleb128 0x49
 6237 029e 13       		.uleb128 0x13
 6238 029f 3F       		.uleb128 0x3f
 6239 02a0 19       		.uleb128 0x19
 6240 02a1 02       		.uleb128 0x2
 6241 02a2 18       		.uleb128 0x18
 6242 02a3 00       		.byte	0
 6243 02a4 00       		.byte	0
 6244 02a5 2D       		.uleb128 0x2d
 6245 02a6 34       		.uleb128 0x34
 6246 02a7 00       		.byte	0
 6247 02a8 03       		.uleb128 0x3
 6248 02a9 08       		.uleb128 0x8
 6249 02aa 3A       		.uleb128 0x3a
 6250 02ab 0B       		.uleb128 0xb
 6251 02ac 3B       		.uleb128 0x3b
 6252 02ad 05       		.uleb128 0x5
 6253 02ae 49       		.uleb128 0x49
 6254 02af 13       		.uleb128 0x13
 6255 02b0 3F       		.uleb128 0x3f
 6256 02b1 19       		.uleb128 0x19
 6257 02b2 02       		.uleb128 0x2
 6258 02b3 18       		.uleb128 0x18
 6259 02b4 00       		.byte	0
 6260 02b5 00       		.byte	0
 6261 02b6 2E       		.uleb128 0x2e
ARM GAS  C:\Users\ANDREW~1\AppData\Local\Temp\ccxC4OPZ.s 			page 136


 6262 02b7 2E       		.uleb128 0x2e
 6263 02b8 00       		.byte	0
 6264 02b9 3F       		.uleb128 0x3f
 6265 02ba 19       		.uleb128 0x19
 6266 02bb 3C       		.uleb128 0x3c
 6267 02bc 19       		.uleb128 0x19
 6268 02bd 6E       		.uleb128 0x6e
 6269 02be 0E       		.uleb128 0xe
 6270 02bf 03       		.uleb128 0x3
 6271 02c0 0E       		.uleb128 0xe
 6272 02c1 3A       		.uleb128 0x3a
 6273 02c2 0B       		.uleb128 0xb
 6274 02c3 3B       		.uleb128 0x3b
 6275 02c4 0B       		.uleb128 0xb
 6276 02c5 00       		.byte	0
 6277 02c6 00       		.byte	0
 6278 02c7 2F       		.uleb128 0x2f
 6279 02c8 2E       		.uleb128 0x2e
 6280 02c9 00       		.byte	0
 6281 02ca 3F       		.uleb128 0x3f
 6282 02cb 19       		.uleb128 0x19
 6283 02cc 3C       		.uleb128 0x3c
 6284 02cd 19       		.uleb128 0x19
 6285 02ce 6E       		.uleb128 0x6e
 6286 02cf 0E       		.uleb128 0xe
 6287 02d0 03       		.uleb128 0x3
 6288 02d1 0E       		.uleb128 0xe
 6289 02d2 00       		.byte	0
 6290 02d3 00       		.byte	0
 6291 02d4 00       		.byte	0
 6292              		.section	.debug_loc,"",%progbits
 6293              	.Ldebug_loc0:
 6294              	.LLST0:
 6295 0000 00000000 		.4byte	.LVL0
 6296 0004 02000000 		.4byte	.LVL1
 6297 0008 0100     		.2byte	0x1
 6298 000a 50       		.byte	0x50
 6299 000b 02000000 		.4byte	.LVL1
 6300 000f 08000000 		.4byte	.LFE87
 6301 0013 0400     		.2byte	0x4
 6302 0015 F3       		.byte	0xf3
 6303 0016 01       		.uleb128 0x1
 6304 0017 50       		.byte	0x50
 6305 0018 9F       		.byte	0x9f
 6306 0019 00000000 		.4byte	0
 6307 001d 00000000 		.4byte	0
 6308              	.LLST1:
 6309 0021 12000000 		.4byte	.LVL11
 6310 0025 1B000000 		.4byte	.LVL12-1
 6311 0029 0600     		.2byte	0x6
 6312 002b 50       		.byte	0x50
 6313 002c 93       		.byte	0x93
 6314 002d 04       		.uleb128 0x4
 6315 002e 51       		.byte	0x51
 6316 002f 93       		.byte	0x93
 6317 0030 04       		.uleb128 0x4
 6318 0031 1C000000 		.4byte	.LVL12
ARM GAS  C:\Users\ANDREW~1\AppData\Local\Temp\ccxC4OPZ.s 			page 137


 6319 0035 28000000 		.4byte	.LFE74
 6320 0039 0600     		.2byte	0x6
 6321 003b 50       		.byte	0x50
 6322 003c 93       		.byte	0x93
 6323 003d 04       		.uleb128 0x4
 6324 003e 51       		.byte	0x51
 6325 003f 93       		.byte	0x93
 6326 0040 04       		.uleb128 0x4
 6327 0041 00000000 		.4byte	0
 6328 0045 00000000 		.4byte	0
 6329              	.LLST2:
 6330 0049 00000000 		.4byte	.LVL13
 6331 004d 0C000000 		.4byte	.LVL15
 6332 0051 0100     		.2byte	0x1
 6333 0053 50       		.byte	0x50
 6334 0054 0C000000 		.4byte	.LVL15
 6335 0058 24000000 		.4byte	.LFE75
 6336 005c 0400     		.2byte	0x4
 6337 005e F3       		.byte	0xf3
 6338 005f 01       		.uleb128 0x1
 6339 0060 50       		.byte	0x50
 6340 0061 9F       		.byte	0x9f
 6341 0062 00000000 		.4byte	0
 6342 0066 00000000 		.4byte	0
 6343              	.LLST3:
 6344 006a 00000000 		.4byte	.LVL13
 6345 006e 0C000000 		.4byte	.LVL15
 6346 0072 0100     		.2byte	0x1
 6347 0074 51       		.byte	0x51
 6348 0075 0C000000 		.4byte	.LVL15
 6349 0079 12000000 		.4byte	.LVL16
 6350 007d 0200     		.2byte	0x2
 6351 007f 91       		.byte	0x91
 6352 0080 6C       		.sleb128 -20
 6353 0081 12000000 		.4byte	.LVL16
 6354 0085 17000000 		.4byte	.LVL17-1
 6355 0089 0200     		.2byte	0x2
 6356 008b 73       		.byte	0x73
 6357 008c 00       		.sleb128 0
 6358 008d 17000000 		.4byte	.LVL17-1
 6359 0091 24000000 		.4byte	.LFE75
 6360 0095 0200     		.2byte	0x2
 6361 0097 91       		.byte	0x91
 6362 0098 6C       		.sleb128 -20
 6363 0099 00000000 		.4byte	0
 6364 009d 00000000 		.4byte	0
 6365              	.LLST4:
 6366 00a1 08000000 		.4byte	.LVL14
 6367 00a5 12000000 		.4byte	.LVL16
 6368 00a9 0300     		.2byte	0x3
 6369 00ab 91       		.byte	0x91
 6370 00ac 6C       		.sleb128 -20
 6371 00ad 9F       		.byte	0x9f
 6372 00ae 12000000 		.4byte	.LVL16
 6373 00b2 17000000 		.4byte	.LVL17-1
 6374 00b6 0100     		.2byte	0x1
 6375 00b8 53       		.byte	0x53
ARM GAS  C:\Users\ANDREW~1\AppData\Local\Temp\ccxC4OPZ.s 			page 138


 6376 00b9 17000000 		.4byte	.LVL17-1
 6377 00bd 24000000 		.4byte	.LFE75
 6378 00c1 0300     		.2byte	0x3
 6379 00c3 91       		.byte	0x91
 6380 00c4 6C       		.sleb128 -20
 6381 00c5 9F       		.byte	0x9f
 6382 00c6 00000000 		.4byte	0
 6383 00ca 00000000 		.4byte	0
 6384              	.LLST5:
 6385 00ce 08000000 		.4byte	.LVL14
 6386 00d2 0C000000 		.4byte	.LVL15
 6387 00d6 0200     		.2byte	0x2
 6388 00d8 30       		.byte	0x30
 6389 00d9 9F       		.byte	0x9f
 6390 00da 0C000000 		.4byte	.LVL15
 6391 00de 1A000000 		.4byte	.LVL18
 6392 00e2 0100     		.2byte	0x1
 6393 00e4 54       		.byte	0x54
 6394 00e5 1C000000 		.4byte	.LVL19
 6395 00e9 24000000 		.4byte	.LFE75
 6396 00ed 0100     		.2byte	0x1
 6397 00ef 54       		.byte	0x54
 6398 00f0 00000000 		.4byte	0
 6399 00f4 00000000 		.4byte	0
 6400              	.LLST6:
 6401 00f8 00000000 		.4byte	.LVL20
 6402 00fc 0E000000 		.4byte	.LVL22
 6403 0100 0100     		.2byte	0x1
 6404 0102 50       		.byte	0x50
 6405 0103 0E000000 		.4byte	.LVL22
 6406 0107 26000000 		.4byte	.LFE76
 6407 010b 0400     		.2byte	0x4
 6408 010d F3       		.byte	0xf3
 6409 010e 01       		.uleb128 0x1
 6410 010f 50       		.byte	0x50
 6411 0110 9F       		.byte	0x9f
 6412 0111 00000000 		.4byte	0
 6413 0115 00000000 		.4byte	0
 6414              	.LLST7:
 6415 0119 00000000 		.4byte	.LVL20
 6416 011d 0E000000 		.4byte	.LVL22
 6417 0121 0600     		.2byte	0x6
 6418 0123 52       		.byte	0x52
 6419 0124 93       		.byte	0x93
 6420 0125 04       		.uleb128 0x4
 6421 0126 53       		.byte	0x53
 6422 0127 93       		.byte	0x93
 6423 0128 04       		.uleb128 0x4
 6424 0129 0E000000 		.4byte	.LVL22
 6425 012d 24000000 		.4byte	.LVL26
 6426 0131 0200     		.2byte	0x2
 6427 0133 7D       		.byte	0x7d
 6428 0134 00       		.sleb128 0
 6429 0135 24000000 		.4byte	.LVL26
 6430 0139 26000000 		.4byte	.LFE76
 6431 013d 0200     		.2byte	0x2
 6432 013f 91       		.byte	0x91
ARM GAS  C:\Users\ANDREW~1\AppData\Local\Temp\ccxC4OPZ.s 			page 139


 6433 0140 68       		.sleb128 -24
 6434 0141 00000000 		.4byte	0
 6435 0145 00000000 		.4byte	0
 6436              	.LLST8:
 6437 0149 0A000000 		.4byte	.LVL21
 6438 014d 24000000 		.4byte	.LVL26
 6439 0151 0100     		.2byte	0x1
 6440 0153 5D       		.byte	0x5d
 6441 0154 24000000 		.4byte	.LVL26
 6442 0158 26000000 		.4byte	.LFE76
 6443 015c 0300     		.2byte	0x3
 6444 015e 91       		.byte	0x91
 6445 015f 68       		.sleb128 -24
 6446 0160 9F       		.byte	0x9f
 6447 0161 00000000 		.4byte	0
 6448 0165 00000000 		.4byte	0
 6449              	.LLST9:
 6450 0169 0A000000 		.4byte	.LVL21
 6451 016d 0E000000 		.4byte	.LVL22
 6452 0171 0200     		.2byte	0x2
 6453 0173 30       		.byte	0x30
 6454 0174 9F       		.byte	0x9f
 6455 0175 0E000000 		.4byte	.LVL22
 6456 0179 1C000000 		.4byte	.LVL24
 6457 017d 0100     		.2byte	0x1
 6458 017f 54       		.byte	0x54
 6459 0180 1E000000 		.4byte	.LVL25
 6460 0184 26000000 		.4byte	.LFE76
 6461 0188 0100     		.2byte	0x1
 6462 018a 54       		.byte	0x54
 6463 018b 00000000 		.4byte	0
 6464 018f 00000000 		.4byte	0
 6465              	.LLST10:
 6466 0193 00000000 		.4byte	.LVL27
 6467 0197 12000000 		.4byte	.LVL29
 6468 019b 0100     		.2byte	0x1
 6469 019d 50       		.byte	0x50
 6470 019e 12000000 		.4byte	.LVL29
 6471 01a2 2E000000 		.4byte	.LFE77
 6472 01a6 0400     		.2byte	0x4
 6473 01a8 F3       		.byte	0xf3
 6474 01a9 01       		.uleb128 0x1
 6475 01aa 50       		.byte	0x50
 6476 01ab 9F       		.byte	0x9f
 6477 01ac 00000000 		.4byte	0
 6478 01b0 00000000 		.4byte	0
 6479              	.LLST11:
 6480 01b4 0E000000 		.4byte	.LVL28
 6481 01b8 2C000000 		.4byte	.LVL33
 6482 01bc 0100     		.2byte	0x1
 6483 01be 5D       		.byte	0x5d
 6484 01bf 2C000000 		.4byte	.LVL33
 6485 01c3 2E000000 		.4byte	.LFE77
 6486 01c7 0300     		.2byte	0x3
 6487 01c9 91       		.byte	0x91
 6488 01ca 68       		.sleb128 -24
 6489 01cb 9F       		.byte	0x9f
ARM GAS  C:\Users\ANDREW~1\AppData\Local\Temp\ccxC4OPZ.s 			page 140


 6490 01cc 00000000 		.4byte	0
 6491 01d0 00000000 		.4byte	0
 6492              	.LLST12:
 6493 01d4 0E000000 		.4byte	.LVL28
 6494 01d8 12000000 		.4byte	.LVL29
 6495 01dc 0200     		.2byte	0x2
 6496 01de 30       		.byte	0x30
 6497 01df 9F       		.byte	0x9f
 6498 01e0 12000000 		.4byte	.LVL29
 6499 01e4 20000000 		.4byte	.LVL31
 6500 01e8 0100     		.2byte	0x1
 6501 01ea 54       		.byte	0x54
 6502 01eb 22000000 		.4byte	.LVL32
 6503 01ef 2E000000 		.4byte	.LFE77
 6504 01f3 0100     		.2byte	0x1
 6505 01f5 54       		.byte	0x54
 6506 01f6 00000000 		.4byte	0
 6507 01fa 00000000 		.4byte	0
 6508              	.LLST13:
 6509 01fe 00000000 		.4byte	.LVL34
 6510 0202 0C000000 		.4byte	.LVL36
 6511 0206 0100     		.2byte	0x1
 6512 0208 50       		.byte	0x50
 6513 0209 0C000000 		.4byte	.LVL36
 6514 020d 26000000 		.4byte	.LFE78
 6515 0211 0400     		.2byte	0x4
 6516 0213 F3       		.byte	0xf3
 6517 0214 01       		.uleb128 0x1
 6518 0215 50       		.byte	0x50
 6519 0216 9F       		.byte	0x9f
 6520 0217 00000000 		.4byte	0
 6521 021b 00000000 		.4byte	0
 6522              	.LLST14:
 6523 021f 00000000 		.4byte	.LVL34
 6524 0223 0C000000 		.4byte	.LVL36
 6525 0227 0100     		.2byte	0x1
 6526 0229 51       		.byte	0x51
 6527 022a 0C000000 		.4byte	.LVL36
 6528 022e 26000000 		.4byte	.LFE78
 6529 0232 0100     		.2byte	0x1
 6530 0234 56       		.byte	0x56
 6531 0235 00000000 		.4byte	0
 6532 0239 00000000 		.4byte	0
 6533              	.LLST15:
 6534 023d 00000000 		.4byte	.LVL34
 6535 0241 0C000000 		.4byte	.LVL36
 6536 0245 0100     		.2byte	0x1
 6537 0247 52       		.byte	0x52
 6538 0248 0C000000 		.4byte	.LVL36
 6539 024c 26000000 		.4byte	.LFE78
 6540 0250 0400     		.2byte	0x4
 6541 0252 F3       		.byte	0xf3
 6542 0253 01       		.uleb128 0x1
 6543 0254 52       		.byte	0x52
 6544 0255 9F       		.byte	0x9f
 6545 0256 00000000 		.4byte	0
 6546 025a 00000000 		.4byte	0
ARM GAS  C:\Users\ANDREW~1\AppData\Local\Temp\ccxC4OPZ.s 			page 141


 6547              	.LLST16:
 6548 025e 08000000 		.4byte	.LVL35
 6549 0262 0C000000 		.4byte	.LVL36
 6550 0266 0200     		.2byte	0x2
 6551 0268 30       		.byte	0x30
 6552 0269 9F       		.byte	0x9f
 6553 026a 0C000000 		.4byte	.LVL36
 6554 026e 1E000000 		.4byte	.LVL38
 6555 0272 0100     		.2byte	0x1
 6556 0274 54       		.byte	0x54
 6557 0275 20000000 		.4byte	.LVL39
 6558 0279 26000000 		.4byte	.LFE78
 6559 027d 0100     		.2byte	0x1
 6560 027f 54       		.byte	0x54
 6561 0280 00000000 		.4byte	0
 6562 0284 00000000 		.4byte	0
 6563              	.LLST17:
 6564 0288 00000000 		.4byte	.LVL40
 6565 028c 0E000000 		.4byte	.LVL42
 6566 0290 0100     		.2byte	0x1
 6567 0292 50       		.byte	0x50
 6568 0293 0E000000 		.4byte	.LVL42
 6569 0297 2A000000 		.4byte	.LFE79
 6570 029b 0400     		.2byte	0x4
 6571 029d F3       		.byte	0xf3
 6572 029e 01       		.uleb128 0x1
 6573 029f 50       		.byte	0x50
 6574 02a0 9F       		.byte	0x9f
 6575 02a1 00000000 		.4byte	0
 6576 02a5 00000000 		.4byte	0
 6577              	.LLST18:
 6578 02a9 00000000 		.4byte	.LVL40
 6579 02ad 0E000000 		.4byte	.LVL42
 6580 02b1 0100     		.2byte	0x1
 6581 02b3 51       		.byte	0x51
 6582 02b4 0E000000 		.4byte	.LVL42
 6583 02b8 2A000000 		.4byte	.LFE79
 6584 02bc 0100     		.2byte	0x1
 6585 02be 57       		.byte	0x57
 6586 02bf 00000000 		.4byte	0
 6587 02c3 00000000 		.4byte	0
 6588              	.LLST19:
 6589 02c7 00000000 		.4byte	.LVL40
 6590 02cb 0E000000 		.4byte	.LVL42
 6591 02cf 0100     		.2byte	0x1
 6592 02d1 52       		.byte	0x52
 6593 02d2 0E000000 		.4byte	.LVL42
 6594 02d6 2A000000 		.4byte	.LFE79
 6595 02da 0400     		.2byte	0x4
 6596 02dc F3       		.byte	0xf3
 6597 02dd 01       		.uleb128 0x1
 6598 02de 52       		.byte	0x52
 6599 02df 9F       		.byte	0x9f
 6600 02e0 00000000 		.4byte	0
 6601 02e4 00000000 		.4byte	0
 6602              	.LLST20:
 6603 02e8 0A000000 		.4byte	.LVL41
ARM GAS  C:\Users\ANDREW~1\AppData\Local\Temp\ccxC4OPZ.s 			page 142


 6604 02ec 0E000000 		.4byte	.LVL42
 6605 02f0 0200     		.2byte	0x2
 6606 02f2 30       		.byte	0x30
 6607 02f3 9F       		.byte	0x9f
 6608 02f4 0E000000 		.4byte	.LVL42
 6609 02f8 20000000 		.4byte	.LVL44
 6610 02fc 0100     		.2byte	0x1
 6611 02fe 54       		.byte	0x54
 6612 02ff 22000000 		.4byte	.LVL45
 6613 0303 2A000000 		.4byte	.LFE79
 6614 0307 0100     		.2byte	0x1
 6615 0309 54       		.byte	0x54
 6616 030a 00000000 		.4byte	0
 6617 030e 00000000 		.4byte	0
 6618              	.LLST21:
 6619 0312 00000000 		.4byte	.LVL46
 6620 0316 3A000000 		.4byte	.LVL54
 6621 031a 0100     		.2byte	0x1
 6622 031c 50       		.byte	0x50
 6623 031d 3A000000 		.4byte	.LVL54
 6624 0321 44000000 		.4byte	.LVL56
 6625 0325 0100     		.2byte	0x1
 6626 0327 50       		.byte	0x50
 6627 0328 00000000 		.4byte	0
 6628 032c 00000000 		.4byte	0
 6629              	.LLST22:
 6630 0330 02000000 		.4byte	.LVL47
 6631 0334 08000000 		.4byte	.LVL48
 6632 0338 0200     		.2byte	0x2
 6633 033a 30       		.byte	0x30
 6634 033b 9F       		.byte	0x9f
 6635 033c 08000000 		.4byte	.LVL48
 6636 0340 5E000000 		.4byte	.LVL60
 6637 0344 0100     		.2byte	0x1
 6638 0346 55       		.byte	0x55
 6639 0347 00000000 		.4byte	0
 6640 034b 00000000 		.4byte	0
 6641              	.LLST23:
 6642 034f 02000000 		.4byte	.LVL47
 6643 0353 08000000 		.4byte	.LVL48
 6644 0357 0100     		.2byte	0x1
 6645 0359 50       		.byte	0x50
 6646 035a 08000000 		.4byte	.LVL48
 6647 035e 10000000 		.4byte	.LVL49
 6648 0362 0100     		.2byte	0x1
 6649 0364 53       		.byte	0x53
 6650 0365 14000000 		.4byte	.LVL50
 6651 0369 1E000000 		.4byte	.LVL53
 6652 036d 0100     		.2byte	0x1
 6653 036f 53       		.byte	0x53
 6654 0370 00000000 		.4byte	0
 6655 0374 00000000 		.4byte	0
 6656              	.LLST24:
 6657 0378 1C000000 		.4byte	.LVL52
 6658 037c 44000000 		.4byte	.LVL56
 6659 0380 0100     		.2byte	0x1
 6660 0382 52       		.byte	0x52
ARM GAS  C:\Users\ANDREW~1\AppData\Local\Temp\ccxC4OPZ.s 			page 143


 6661 0383 00000000 		.4byte	0
 6662 0387 00000000 		.4byte	0
 6663              	.LLST25:
 6664 038b 44000000 		.4byte	.LVL56
 6665 038f 5E000000 		.4byte	.LVL60
 6666 0393 0100     		.2byte	0x1
 6667 0395 54       		.byte	0x54
 6668 0396 00000000 		.4byte	0
 6669 039a 00000000 		.4byte	0
 6670              	.LLST26:
 6671 039e 00000000 		.4byte	.LVL61
 6672 03a2 09000000 		.4byte	.LVL62-1
 6673 03a6 0600     		.2byte	0x6
 6674 03a8 50       		.byte	0x50
 6675 03a9 93       		.byte	0x93
 6676 03aa 04       		.uleb128 0x4
 6677 03ab 51       		.byte	0x51
 6678 03ac 93       		.byte	0x93
 6679 03ad 04       		.uleb128 0x4
 6680 03ae 09000000 		.4byte	.LVL62-1
 6681 03b2 1C000000 		.4byte	.LFE81
 6682 03b6 0600     		.2byte	0x6
 6683 03b8 F3       		.byte	0xf3
 6684 03b9 03       		.uleb128 0x3
 6685 03ba F5       		.byte	0xf5
 6686 03bb 00       		.uleb128 0
 6687 03bc 25       		.uleb128 0x25
 6688 03bd 9F       		.byte	0x9f
 6689 03be 00000000 		.4byte	0
 6690 03c2 00000000 		.4byte	0
 6691              	.LLST27:
 6692 03c6 00000000 		.4byte	.LVL63
 6693 03ca 09000000 		.4byte	.LVL64-1
 6694 03ce 0600     		.2byte	0x6
 6695 03d0 50       		.byte	0x50
 6696 03d1 93       		.byte	0x93
 6697 03d2 04       		.uleb128 0x4
 6698 03d3 51       		.byte	0x51
 6699 03d4 93       		.byte	0x93
 6700 03d5 04       		.uleb128 0x4
 6701 03d6 09000000 		.4byte	.LVL64-1
 6702 03da 34000000 		.4byte	.LFE82
 6703 03de 0600     		.2byte	0x6
 6704 03e0 F3       		.byte	0xf3
 6705 03e1 03       		.uleb128 0x3
 6706 03e2 F5       		.byte	0xf5
 6707 03e3 00       		.uleb128 0
 6708 03e4 25       		.uleb128 0x25
 6709 03e5 9F       		.byte	0x9f
 6710 03e6 00000000 		.4byte	0
 6711 03ea 00000000 		.4byte	0
 6712              	.LLST28:
 6713 03ee 14000000 		.4byte	.LVL65
 6714 03f2 1B000000 		.4byte	.LVL66-1
 6715 03f6 0600     		.2byte	0x6
 6716 03f8 50       		.byte	0x50
 6717 03f9 93       		.byte	0x93
ARM GAS  C:\Users\ANDREW~1\AppData\Local\Temp\ccxC4OPZ.s 			page 144


 6718 03fa 04       		.uleb128 0x4
 6719 03fb 51       		.byte	0x51
 6720 03fc 93       		.byte	0x93
 6721 03fd 04       		.uleb128 0x4
 6722 03fe 00000000 		.4byte	0
 6723 0402 00000000 		.4byte	0
 6724              	.LLST29:
 6725 0406 00000000 		.4byte	.LVL73
 6726 040a 0D000000 		.4byte	.LVL74-1
 6727 040e 0100     		.2byte	0x1
 6728 0410 50       		.byte	0x50
 6729 0411 0D000000 		.4byte	.LVL74-1
 6730 0415 BA000000 		.4byte	.LVL93
 6731 0419 0100     		.2byte	0x1
 6732 041b 55       		.byte	0x55
 6733 041c BA000000 		.4byte	.LVL93
 6734 0420 C8000000 		.4byte	.LFE88
 6735 0424 0400     		.2byte	0x4
 6736 0426 F3       		.byte	0xf3
 6737 0427 01       		.uleb128 0x1
 6738 0428 50       		.byte	0x50
 6739 0429 9F       		.byte	0x9f
 6740 042a 00000000 		.4byte	0
 6741 042e 00000000 		.4byte	0
 6742              	.LLST30:
 6743 0432 00000000 		.4byte	.LVL73
 6744 0436 0D000000 		.4byte	.LVL74-1
 6745 043a 0100     		.2byte	0x1
 6746 043c 51       		.byte	0x51
 6747 043d 0D000000 		.4byte	.LVL74-1
 6748 0441 18000000 		.4byte	.LVL75
 6749 0445 0100     		.2byte	0x1
 6750 0447 54       		.byte	0x54
 6751 0448 18000000 		.4byte	.LVL75
 6752 044c 5C000000 		.4byte	.LVL82
 6753 0450 0400     		.2byte	0x4
 6754 0452 F3       		.byte	0xf3
 6755 0453 01       		.uleb128 0x1
 6756 0454 51       		.byte	0x51
 6757 0455 9F       		.byte	0x9f
 6758 0456 5C000000 		.4byte	.LVL82
 6759 045a 86000000 		.4byte	.LVL85
 6760 045e 0100     		.2byte	0x1
 6761 0460 54       		.byte	0x54
 6762 0461 86000000 		.4byte	.LVL85
 6763 0465 8A000000 		.4byte	.LVL86
 6764 0469 0300     		.2byte	0x3
 6765 046b 74       		.byte	0x74
 6766 046c 7F       		.sleb128 -1
 6767 046d 9F       		.byte	0x9f
 6768 046e 8A000000 		.4byte	.LVL86
 6769 0472 C8000000 		.4byte	.LFE88
 6770 0476 0400     		.2byte	0x4
 6771 0478 F3       		.byte	0xf3
 6772 0479 01       		.uleb128 0x1
 6773 047a 51       		.byte	0x51
 6774 047b 9F       		.byte	0x9f
ARM GAS  C:\Users\ANDREW~1\AppData\Local\Temp\ccxC4OPZ.s 			page 145


 6775 047c 00000000 		.4byte	0
 6776 0480 00000000 		.4byte	0
 6777              	.LLST31:
 6778 0484 5A000000 		.4byte	.LVL81
 6779 0488 5C000000 		.4byte	.LVL82
 6780 048c 0600     		.2byte	0x6
 6781 048e 50       		.byte	0x50
 6782 048f 93       		.byte	0x93
 6783 0490 04       		.uleb128 0x4
 6784 0491 51       		.byte	0x51
 6785 0492 93       		.byte	0x93
 6786 0493 04       		.uleb128 0x4
 6787 0494 B4000000 		.4byte	.LVL91
 6788 0498 B7000000 		.4byte	.LVL92-1
 6789 049c 0600     		.2byte	0x6
 6790 049e 50       		.byte	0x50
 6791 049f 93       		.byte	0x93
 6792 04a0 04       		.uleb128 0x4
 6793 04a1 51       		.byte	0x51
 6794 04a2 93       		.byte	0x93
 6795 04a3 04       		.uleb128 0x4
 6796 04a4 00000000 		.4byte	0
 6797 04a8 00000000 		.4byte	0
 6798              	.LLST32:
 6799 04ac 00000000 		.4byte	.LVL99
 6800 04b0 0A000000 		.4byte	.LVL100
 6801 04b4 0100     		.2byte	0x1
 6802 04b6 50       		.byte	0x50
 6803 04b7 0A000000 		.4byte	.LVL100
 6804 04bb 88000000 		.4byte	.LFE93
 6805 04bf 0400     		.2byte	0x4
 6806 04c1 F3       		.byte	0xf3
 6807 04c2 01       		.uleb128 0x1
 6808 04c3 50       		.byte	0x50
 6809 04c4 9F       		.byte	0x9f
 6810 04c5 00000000 		.4byte	0
 6811 04c9 00000000 		.4byte	0
 6812              	.LLST33:
 6813 04cd 00000000 		.4byte	.LVL99
 6814 04d1 0E000000 		.4byte	.LVL101
 6815 04d5 0100     		.2byte	0x1
 6816 04d7 51       		.byte	0x51
 6817 04d8 0E000000 		.4byte	.LVL101
 6818 04dc 80000000 		.4byte	.LVL112
 6819 04e0 0100     		.2byte	0x1
 6820 04e2 55       		.byte	0x55
 6821 04e3 80000000 		.4byte	.LVL112
 6822 04e7 88000000 		.4byte	.LFE93
 6823 04eb 0400     		.2byte	0x4
 6824 04ed F3       		.byte	0xf3
 6825 04ee 01       		.uleb128 0x1
 6826 04ef 51       		.byte	0x51
 6827 04f0 9F       		.byte	0x9f
 6828 04f1 00000000 		.4byte	0
 6829 04f5 00000000 		.4byte	0
 6830              	.LLST34:
 6831 04f9 0A000000 		.4byte	.LVL100
ARM GAS  C:\Users\ANDREW~1\AppData\Local\Temp\ccxC4OPZ.s 			page 146


 6832 04fd 22000000 		.4byte	.LVL103
 6833 0501 0100     		.2byte	0x1
 6834 0503 50       		.byte	0x50
 6835 0504 22000000 		.4byte	.LVL103
 6836 0508 88000000 		.4byte	.LFE93
 6837 050c 0C00     		.2byte	0xc
 6838 050e F3       		.byte	0xf3
 6839 050f 01       		.uleb128 0x1
 6840 0510 50       		.byte	0x50
 6841 0511 33       		.byte	0x33
 6842 0512 24       		.byte	0x24
 6843 0513 03       		.byte	0x3
 6844 0514 00000000 		.4byte	.LANCHOR1
 6845 0518 22       		.byte	0x22
 6846 0519 9F       		.byte	0x9f
 6847 051a 00000000 		.4byte	0
 6848 051e 00000000 		.4byte	0
 6849              	.LLST35:
 6850 0522 0A000000 		.4byte	.LVL100
 6851 0526 0E000000 		.4byte	.LVL101
 6852 052a 0200     		.2byte	0x2
 6853 052c 30       		.byte	0x30
 6854 052d 9F       		.byte	0x9f
 6855 052e 0E000000 		.4byte	.LVL101
 6856 0532 2B000000 		.4byte	.LVL104-1
 6857 0536 0100     		.2byte	0x1
 6858 0538 53       		.byte	0x53
 6859 0539 00000000 		.4byte	0
 6860 053d 00000000 		.4byte	0
 6861              	.LLST36:
 6862 0541 00000000 		.4byte	.LVL113
 6863 0545 2A000000 		.4byte	.LVL117
 6864 0549 0600     		.2byte	0x6
 6865 054b 50       		.byte	0x50
 6866 054c 93       		.byte	0x93
 6867 054d 04       		.uleb128 0x4
 6868 054e 51       		.byte	0x51
 6869 054f 93       		.byte	0x93
 6870 0550 04       		.uleb128 0x4
 6871 0551 2A000000 		.4byte	.LVL117
 6872 0555 76000000 		.4byte	.LVL127
 6873 0559 0600     		.2byte	0x6
 6874 055b F3       		.byte	0xf3
 6875 055c 03       		.uleb128 0x3
 6876 055d F5       		.byte	0xf5
 6877 055e 00       		.uleb128 0
 6878 055f 25       		.uleb128 0x25
 6879 0560 9F       		.byte	0x9f
 6880 0561 76000000 		.4byte	.LVL127
 6881 0565 79000000 		.4byte	.LVL128-1
 6882 0569 0600     		.2byte	0x6
 6883 056b 50       		.byte	0x50
 6884 056c 93       		.byte	0x93
 6885 056d 04       		.uleb128 0x4
 6886 056e 51       		.byte	0x51
 6887 056f 93       		.byte	0x93
 6888 0570 04       		.uleb128 0x4
ARM GAS  C:\Users\ANDREW~1\AppData\Local\Temp\ccxC4OPZ.s 			page 147


 6889 0571 BE010000 		.4byte	.LVL148
 6890 0575 DC020000 		.4byte	.LVL158
 6891 0579 0600     		.2byte	0x6
 6892 057b F3       		.byte	0xf3
 6893 057c 03       		.uleb128 0x3
 6894 057d F5       		.byte	0xf5
 6895 057e 00       		.uleb128 0
 6896 057f 25       		.uleb128 0x25
 6897 0580 9F       		.byte	0x9f
 6898 0581 4C030000 		.4byte	.LVL168
 6899 0585 64030000 		.4byte	.LFE91
 6900 0589 0600     		.2byte	0x6
 6901 058b 50       		.byte	0x50
 6902 058c 93       		.byte	0x93
 6903 058d 04       		.uleb128 0x4
 6904 058e 51       		.byte	0x51
 6905 058f 93       		.byte	0x93
 6906 0590 04       		.uleb128 0x4
 6907 0591 00000000 		.4byte	0
 6908 0595 00000000 		.4byte	0
 6909              	.LLST37:
 6910 0599 14000000 		.4byte	.LVL114
 6911 059d 28000000 		.4byte	.LVL116
 6912 05a1 0100     		.2byte	0x1
 6913 05a3 53       		.byte	0x53
 6914 05a4 00000000 		.4byte	0
 6915 05a8 00000000 		.4byte	0
 6916              	.LLST38:
 6917 05ac 82000000 		.4byte	.LVL130
 6918 05b0 87000000 		.4byte	.LVL131-1
 6919 05b4 0100     		.2byte	0x1
 6920 05b6 50       		.byte	0x50
 6921 05b7 87000000 		.4byte	.LVL131-1
 6922 05bb BE010000 		.4byte	.LVL148
 6923 05bf 0100     		.2byte	0x1
 6924 05c1 54       		.byte	0x54
 6925 05c2 00000000 		.4byte	0
 6926 05c6 00000000 		.4byte	0
 6927              	.LLST39:
 6928 05ca 48000000 		.4byte	.LVL120
 6929 05ce 56000000 		.4byte	.LVL122
 6930 05d2 0100     		.2byte	0x1
 6931 05d4 53       		.byte	0x53
 6932 05d5 58000000 		.4byte	.LVL123
 6933 05d9 60000000 		.4byte	.LVL124
 6934 05dd 0100     		.2byte	0x1
 6935 05df 53       		.byte	0x53
 6936 05e0 00000000 		.4byte	0
 6937 05e4 00000000 		.4byte	0
 6938              	.LLST40:
 6939 05e8 0A000000 		.4byte	.LVL174
 6940 05ec 5E000000 		.4byte	.LVL184
 6941 05f0 0600     		.2byte	0x6
 6942 05f2 56       		.byte	0x56
 6943 05f3 93       		.byte	0x93
 6944 05f4 04       		.uleb128 0x4
 6945 05f5 57       		.byte	0x57
ARM GAS  C:\Users\ANDREW~1\AppData\Local\Temp\ccxC4OPZ.s 			page 148


 6946 05f6 93       		.byte	0x93
 6947 05f7 04       		.uleb128 0x4
 6948 05f8 60000000 		.4byte	.LVL185
 6949 05fc 18010000 		.4byte	.LVL213
 6950 0600 0600     		.2byte	0x6
 6951 0602 56       		.byte	0x56
 6952 0603 93       		.byte	0x93
 6953 0604 04       		.uleb128 0x4
 6954 0605 57       		.byte	0x57
 6955 0606 93       		.byte	0x93
 6956 0607 04       		.uleb128 0x4
 6957 0608 00000000 		.4byte	0
 6958 060c 00000000 		.4byte	0
 6959              	.LLST41:
 6960 0610 1C000000 		.4byte	.LVL177
 6961 0614 74000000 		.4byte	.LVL189
 6962 0618 0600     		.2byte	0x6
 6963 061a 54       		.byte	0x54
 6964 061b 93       		.byte	0x93
 6965 061c 04       		.uleb128 0x4
 6966 061d 55       		.byte	0x55
 6967 061e 93       		.byte	0x93
 6968 061f 04       		.uleb128 0x4
 6969 0620 00000000 		.4byte	0
 6970 0624 00000000 		.4byte	0
 6971              	.LLST42:
 6972 0628 76000000 		.4byte	.LVL190
 6973 062c B2000000 		.4byte	.LVL199
 6974 0630 0600     		.2byte	0x6
 6975 0632 54       		.byte	0x54
 6976 0633 93       		.byte	0x93
 6977 0634 04       		.uleb128 0x4
 6978 0635 55       		.byte	0x55
 6979 0636 93       		.byte	0x93
 6980 0637 04       		.uleb128 0x4
 6981 0638 B4000000 		.4byte	.LVL200
 6982 063c 08010000 		.4byte	.LVL211
 6983 0640 0600     		.2byte	0x6
 6984 0642 54       		.byte	0x54
 6985 0643 93       		.byte	0x93
 6986 0644 04       		.uleb128 0x4
 6987 0645 55       		.byte	0x55
 6988 0646 93       		.byte	0x93
 6989 0647 04       		.uleb128 0x4
 6990 0648 00000000 		.4byte	0
 6991 064c 00000000 		.4byte	0
 6992              	.LLST43:
 6993 0650 02000000 		.4byte	.LVL218
 6994 0654 08000000 		.4byte	.LVL219
 6995 0658 0A00     		.2byte	0xa
 6996 065a 9E       		.byte	0x9e
 6997 065b 08       		.uleb128 0x8
 6998 065c 00000000 		.4byte	0
 6999 0660 00000000 		.4byte	0
 7000 0664 08000000 		.4byte	.LVL219
 7001 0668 60000000 		.4byte	.LVL231
 7002 066c 0600     		.2byte	0x6
ARM GAS  C:\Users\ANDREW~1\AppData\Local\Temp\ccxC4OPZ.s 			page 149


 7003 066e 56       		.byte	0x56
 7004 066f 93       		.byte	0x93
 7005 0670 04       		.uleb128 0x4
 7006 0671 57       		.byte	0x57
 7007 0672 93       		.byte	0x93
 7008 0673 04       		.uleb128 0x4
 7009 0674 62000000 		.4byte	.LVL232
 7010 0678 BE000000 		.4byte	.LVL243
 7011 067c 0600     		.2byte	0x6
 7012 067e 56       		.byte	0x56
 7013 067f 93       		.byte	0x93
 7014 0680 04       		.uleb128 0x4
 7015 0681 57       		.byte	0x57
 7016 0682 93       		.byte	0x93
 7017 0683 04       		.uleb128 0x4
 7018 0684 00000000 		.4byte	0
 7019 0688 00000000 		.4byte	0
 7020              	.LLST44:
 7021 068c 1C000000 		.4byte	.LVL223
 7022 0690 B4000000 		.4byte	.LVL242
 7023 0694 0600     		.2byte	0x6
 7024 0696 54       		.byte	0x54
 7025 0697 93       		.byte	0x93
 7026 0698 04       		.uleb128 0x4
 7027 0699 55       		.byte	0x55
 7028 069a 93       		.byte	0x93
 7029 069b 04       		.uleb128 0x4
 7030 069c 00000000 		.4byte	0
 7031 06a0 00000000 		.4byte	0
 7032              	.LLST45:
 7033 06a4 30000000 		.4byte	.LVL269
 7034 06a8 5C000000 		.4byte	.LVL276
 7035 06ac 0600     		.2byte	0x6
 7036 06ae 54       		.byte	0x54
 7037 06af 93       		.byte	0x93
 7038 06b0 04       		.uleb128 0x4
 7039 06b1 55       		.byte	0x55
 7040 06b2 93       		.byte	0x93
 7041 06b3 04       		.uleb128 0x4
 7042 06b4 00000000 		.4byte	0
 7043 06b8 00000000 		.4byte	0
 7044              	.LLST46:
 7045 06bc 6C000000 		.4byte	.LVL278
 7046 06c0 73000000 		.4byte	.LVL279-1
 7047 06c4 0600     		.2byte	0x6
 7048 06c6 50       		.byte	0x50
 7049 06c7 93       		.byte	0x93
 7050 06c8 04       		.uleb128 0x4
 7051 06c9 51       		.byte	0x51
 7052 06ca 93       		.byte	0x93
 7053 06cb 04       		.uleb128 0x4
 7054 06cc 00000000 		.4byte	0
 7055 06d0 00000000 		.4byte	0
 7056              	.LLST47:
 7057 06d4 6E000000 		.4byte	.LVL294
 7058 06d8 CE000000 		.4byte	.LVL306
 7059 06dc 0600     		.2byte	0x6
ARM GAS  C:\Users\ANDREW~1\AppData\Local\Temp\ccxC4OPZ.s 			page 150


 7060 06de 56       		.byte	0x56
 7061 06df 93       		.byte	0x93
 7062 06e0 04       		.uleb128 0x4
 7063 06e1 57       		.byte	0x57
 7064 06e2 93       		.byte	0x93
 7065 06e3 04       		.uleb128 0x4
 7066 06e4 00000000 		.4byte	0
 7067 06e8 00000000 		.4byte	0
 7068              	.LLST48:
 7069 06ec 78000000 		.4byte	.LVL295
 7070 06f0 CE000000 		.4byte	.LVL306
 7071 06f4 0600     		.2byte	0x6
 7072 06f6 56       		.byte	0x56
 7073 06f7 93       		.byte	0x93
 7074 06f8 04       		.uleb128 0x4
 7075 06f9 57       		.byte	0x57
 7076 06fa 93       		.byte	0x93
 7077 06fb 04       		.uleb128 0x4
 7078 06fc 00000000 		.4byte	0
 7079 0700 00000000 		.4byte	0
 7080              	.LLST49:
 7081 0704 78000000 		.4byte	.LVL295
 7082 0708 7E000000 		.4byte	.LVL296
 7083 070c 0200     		.2byte	0x2
 7084 070e 30       		.byte	0x30
 7085 070f 9F       		.byte	0x9f
 7086 0710 7E000000 		.4byte	.LVL296
 7087 0714 9E000000 		.4byte	.LVL299
 7088 0718 0100     		.2byte	0x1
 7089 071a 58       		.byte	0x58
 7090 071b 9E000000 		.4byte	.LVL299
 7091 071f BC000000 		.4byte	.LVL304
 7092 0723 0300     		.2byte	0x3
 7093 0725 78       		.byte	0x78
 7094 0726 01       		.sleb128 1
 7095 0727 9F       		.byte	0x9f
 7096 0728 00000000 		.4byte	0
 7097 072c 00000000 		.4byte	0
 7098              	.LLST50:
 7099 0730 B8000000 		.4byte	.LVL303
 7100 0734 04010000 		.4byte	.LVL311
 7101 0738 0600     		.2byte	0x6
 7102 073a 5A       		.byte	0x5a
 7103 073b 93       		.byte	0x93
 7104 073c 04       		.uleb128 0x4
 7105 073d 5B       		.byte	0x5b
 7106 073e 93       		.byte	0x93
 7107 073f 04       		.uleb128 0x4
 7108 0740 00000000 		.4byte	0
 7109 0744 00000000 		.4byte	0
 7110              	.LLST51:
 7111 0748 E8000000 		.4byte	.LVL308
 7112 074c EF000000 		.4byte	.LVL309-1
 7113 0750 0600     		.2byte	0x6
 7114 0752 50       		.byte	0x50
 7115 0753 93       		.byte	0x93
 7116 0754 04       		.uleb128 0x4
ARM GAS  C:\Users\ANDREW~1\AppData\Local\Temp\ccxC4OPZ.s 			page 151


 7117 0755 51       		.byte	0x51
 7118 0756 93       		.byte	0x93
 7119 0757 04       		.uleb128 0x4
 7120 0758 00000000 		.4byte	0
 7121 075c 00000000 		.4byte	0
 7122              	.LLST52:
 7123 0760 1C000000 		.4byte	.LVL282
 7124 0764 20000000 		.4byte	.LVL283
 7125 0768 0200     		.2byte	0x2
 7126 076a 30       		.byte	0x30
 7127 076b 9F       		.byte	0x9f
 7128 076c 20000000 		.4byte	.LVL283
 7129 0770 6C000000 		.4byte	.LVL293
 7130 0774 0100     		.2byte	0x1
 7131 0776 56       		.byte	0x56
 7132 0777 00000000 		.4byte	0
 7133 077b 00000000 		.4byte	0
 7134              	.LLST53:
 7135 077f 2A000000 		.4byte	.LVL284
 7136 0783 2E000000 		.4byte	.LVL285
 7137 0787 0200     		.2byte	0x2
 7138 0789 30       		.byte	0x30
 7139 078a 9F       		.byte	0x9f
 7140 078b 2E000000 		.4byte	.LVL285
 7141 078f 5A000000 		.4byte	.LVL290
 7142 0793 0100     		.2byte	0x1
 7143 0795 54       		.byte	0x54
 7144 0796 00000000 		.4byte	0
 7145 079a 00000000 		.4byte	0
 7146              	.LLST54:
 7147 079e 02000000 		.4byte	.LVL312
 7148 07a2 06000000 		.4byte	.LVL313
 7149 07a6 0200     		.2byte	0x2
 7150 07a8 31       		.byte	0x31
 7151 07a9 9F       		.byte	0x9f
 7152 07aa 06000000 		.4byte	.LVL313
 7153 07ae 24000000 		.4byte	.LVL318
 7154 07b2 0100     		.2byte	0x1
 7155 07b4 54       		.byte	0x54
 7156 07b5 24000000 		.4byte	.LVL318
 7157 07b9 4C000000 		.4byte	.LVL321
 7158 07bd 0200     		.2byte	0x2
 7159 07bf 30       		.byte	0x30
 7160 07c0 9F       		.byte	0x9f
 7161 07c1 4C000000 		.4byte	.LVL321
 7162 07c5 78000000 		.4byte	.LVL327
 7163 07c9 0100     		.2byte	0x1
 7164 07cb 54       		.byte	0x54
 7165 07cc 78000000 		.4byte	.LVL327
 7166 07d0 7C000000 		.4byte	.LVL328
 7167 07d4 0200     		.2byte	0x2
 7168 07d6 31       		.byte	0x31
 7169 07d7 9F       		.byte	0x9f
 7170 07d8 7C000000 		.4byte	.LVL328
 7171 07dc 8C000000 		.4byte	.LVL330
 7172 07e0 0100     		.2byte	0x1
 7173 07e2 54       		.byte	0x54
ARM GAS  C:\Users\ANDREW~1\AppData\Local\Temp\ccxC4OPZ.s 			page 152


 7174 07e3 00000000 		.4byte	0
 7175 07e7 00000000 		.4byte	0
 7176              	.LLST55:
 7177 07eb 06000000 		.4byte	.LVL313
 7178 07ef 22000000 		.4byte	.LVL317
 7179 07f3 0600     		.2byte	0x6
 7180 07f5 56       		.byte	0x56
 7181 07f6 93       		.byte	0x93
 7182 07f7 04       		.uleb128 0x4
 7183 07f8 57       		.byte	0x57
 7184 07f9 93       		.byte	0x93
 7185 07fa 04       		.uleb128 0x4
 7186 07fb 24000000 		.4byte	.LVL318
 7187 07ff 8C000000 		.4byte	.LVL330
 7188 0803 0600     		.2byte	0x6
 7189 0805 56       		.byte	0x56
 7190 0806 93       		.byte	0x93
 7191 0807 04       		.uleb128 0x4
 7192 0808 57       		.byte	0x57
 7193 0809 93       		.byte	0x93
 7194 080a 04       		.uleb128 0x4
 7195 080b 00000000 		.4byte	0
 7196 080f 00000000 		.4byte	0
 7197              		.section	.debug_aranges,"",%progbits
 7198 0000 04010000 		.4byte	0x104
 7199 0004 0200     		.2byte	0x2
 7200 0006 00000000 		.4byte	.Ldebug_info0
 7201 000a 04       		.byte	0x4
 7202 000b 00       		.byte	0
 7203 000c 0000     		.2byte	0
 7204 000e 0000     		.2byte	0
 7205 0010 00000000 		.4byte	.LFB87
 7206 0014 08000000 		.4byte	.LFE87-.LFB87
 7207 0018 00000000 		.4byte	.LFB89
 7208 001c 0C000000 		.4byte	.LFE89-.LFB89
 7209 0020 00000000 		.4byte	.LFB86
 7210 0024 20000000 		.4byte	.LFE86-.LFB86
 7211 0028 00000000 		.4byte	.LFB69
 7212 002c 10000000 		.4byte	.LFE69-.LFB69
 7213 0030 00000000 		.4byte	.LFB70
 7214 0034 10000000 		.4byte	.LFE70-.LFB70
 7215 0038 00000000 		.4byte	.LFB74
 7216 003c 28000000 		.4byte	.LFE74-.LFB74
 7217 0040 00000000 		.4byte	.LFB75
 7218 0044 24000000 		.4byte	.LFE75-.LFB75
 7219 0048 00000000 		.4byte	.LFB76
 7220 004c 26000000 		.4byte	.LFE76-.LFB76
 7221 0050 00000000 		.4byte	.LFB77
 7222 0054 2E000000 		.4byte	.LFE77-.LFB77
 7223 0058 00000000 		.4byte	.LFB78
 7224 005c 26000000 		.4byte	.LFE78-.LFB78
 7225 0060 00000000 		.4byte	.LFB79
 7226 0064 2A000000 		.4byte	.LFE79-.LFB79
 7227 0068 00000000 		.4byte	.LFB80
 7228 006c 68000000 		.4byte	.LFE80-.LFB80
 7229 0070 00000000 		.4byte	.LFB81
 7230 0074 1C000000 		.4byte	.LFE81-.LFB81
ARM GAS  C:\Users\ANDREW~1\AppData\Local\Temp\ccxC4OPZ.s 			page 153


 7231 0078 00000000 		.4byte	.LFB82
 7232 007c 34000000 		.4byte	.LFE82-.LFB82
 7233 0080 00000000 		.4byte	.LFB85
 7234 0084 24000000 		.4byte	.LFE85-.LFB85
 7235 0088 00000000 		.4byte	.LFB88
 7236 008c C8000000 		.4byte	.LFE88-.LFB88
 7237 0090 00000000 		.4byte	.LFB90
 7238 0094 0C000000 		.4byte	.LFE90-.LFB90
 7239 0098 00000000 		.4byte	.LFB92
 7240 009c 1C000000 		.4byte	.LFE92-.LFB92
 7241 00a0 00000000 		.4byte	.LFB93
 7242 00a4 88000000 		.4byte	.LFE93-.LFB93
 7243 00a8 00000000 		.4byte	.LFB91
 7244 00ac 64030000 		.4byte	.LFE91-.LFB91
 7245 00b0 00000000 		.4byte	.LFB73
 7246 00b4 30000000 		.4byte	.LFE73-.LFB73
 7247 00b8 00000000 		.4byte	.LFB65
 7248 00bc 34010000 		.4byte	.LFE65-.LFB65
 7249 00c0 00000000 		.4byte	.LFB71
 7250 00c4 22000000 		.4byte	.LFE71-.LFB71
 7251 00c8 00000000 		.4byte	.LFB66
 7252 00cc D8000000 		.4byte	.LFE66-.LFB66
 7253 00d0 00000000 		.4byte	.LFB67
 7254 00d4 AC000000 		.4byte	.LFE67-.LFB67
 7255 00d8 00000000 		.4byte	.LFB72
 7256 00dc 18000000 		.4byte	.LFE72-.LFB72
 7257 00e0 00000000 		.4byte	.LFB84
 7258 00e4 A8000000 		.4byte	.LFE84-.LFB84
 7259 00e8 00000000 		.4byte	.LFB83
 7260 00ec 10010000 		.4byte	.LFE83-.LFB83
 7261 00f0 00000000 		.4byte	.LFB68
 7262 00f4 A8000000 		.4byte	.LFE68-.LFB68
 7263 00f8 00000000 		.4byte	.LFB64
 7264 00fc D4010000 		.4byte	.LFE64-.LFB64
 7265 0100 00000000 		.4byte	0
 7266 0104 00000000 		.4byte	0
 7267              		.section	.debug_ranges,"",%progbits
 7268              	.Ldebug_ranges0:
 7269 0000 46000000 		.4byte	.LBB11
 7270 0004 56000000 		.4byte	.LBE11
 7271 0008 58000000 		.4byte	.LBB14
 7272 000c BE010000 		.4byte	.LBE14
 7273 0010 00000000 		.4byte	0
 7274 0014 00000000 		.4byte	0
 7275 0018 48000000 		.4byte	.LBB12
 7276 001c 56000000 		.4byte	.LBE12
 7277 0020 58000000 		.4byte	.LBB13
 7278 0024 5C000000 		.4byte	.LBE13
 7279 0028 00000000 		.4byte	0
 7280 002c 00000000 		.4byte	0
 7281 0030 00000000 		.4byte	.LFB87
 7282 0034 08000000 		.4byte	.LFE87
 7283 0038 00000000 		.4byte	.LFB89
 7284 003c 0C000000 		.4byte	.LFE89
 7285 0040 00000000 		.4byte	.LFB86
 7286 0044 20000000 		.4byte	.LFE86
 7287 0048 00000000 		.4byte	.LFB69
ARM GAS  C:\Users\ANDREW~1\AppData\Local\Temp\ccxC4OPZ.s 			page 154


 7288 004c 10000000 		.4byte	.LFE69
 7289 0050 00000000 		.4byte	.LFB70
 7290 0054 10000000 		.4byte	.LFE70
 7291 0058 00000000 		.4byte	.LFB74
 7292 005c 28000000 		.4byte	.LFE74
 7293 0060 00000000 		.4byte	.LFB75
 7294 0064 24000000 		.4byte	.LFE75
 7295 0068 00000000 		.4byte	.LFB76
 7296 006c 26000000 		.4byte	.LFE76
 7297 0070 00000000 		.4byte	.LFB77
 7298 0074 2E000000 		.4byte	.LFE77
 7299 0078 00000000 		.4byte	.LFB78
 7300 007c 26000000 		.4byte	.LFE78
 7301 0080 00000000 		.4byte	.LFB79
 7302 0084 2A000000 		.4byte	.LFE79
 7303 0088 00000000 		.4byte	.LFB80
 7304 008c 68000000 		.4byte	.LFE80
 7305 0090 00000000 		.4byte	.LFB81
 7306 0094 1C000000 		.4byte	.LFE81
 7307 0098 00000000 		.4byte	.LFB82
 7308 009c 34000000 		.4byte	.LFE82
 7309 00a0 00000000 		.4byte	.LFB85
 7310 00a4 24000000 		.4byte	.LFE85
 7311 00a8 00000000 		.4byte	.LFB88
 7312 00ac C8000000 		.4byte	.LFE88
 7313 00b0 00000000 		.4byte	.LFB90
 7314 00b4 0C000000 		.4byte	.LFE90
 7315 00b8 00000000 		.4byte	.LFB92
 7316 00bc 1C000000 		.4byte	.LFE92
 7317 00c0 00000000 		.4byte	.LFB93
 7318 00c4 88000000 		.4byte	.LFE93
 7319 00c8 00000000 		.4byte	.LFB91
 7320 00cc 64030000 		.4byte	.LFE91
 7321 00d0 00000000 		.4byte	.LFB73
 7322 00d4 30000000 		.4byte	.LFE73
 7323 00d8 00000000 		.4byte	.LFB65
 7324 00dc 34010000 		.4byte	.LFE65
 7325 00e0 00000000 		.4byte	.LFB71
 7326 00e4 22000000 		.4byte	.LFE71
 7327 00e8 00000000 		.4byte	.LFB66
 7328 00ec D8000000 		.4byte	.LFE66
 7329 00f0 00000000 		.4byte	.LFB67
 7330 00f4 AC000000 		.4byte	.LFE67
 7331 00f8 00000000 		.4byte	.LFB72
 7332 00fc 18000000 		.4byte	.LFE72
 7333 0100 00000000 		.4byte	.LFB84
 7334 0104 A8000000 		.4byte	.LFE84
 7335 0108 00000000 		.4byte	.LFB83
 7336 010c 10010000 		.4byte	.LFE83
 7337 0110 00000000 		.4byte	.LFB68
 7338 0114 A8000000 		.4byte	.LFE68
 7339 0118 00000000 		.4byte	.LFB64
 7340 011c D4010000 		.4byte	.LFE64
 7341 0120 00000000 		.4byte	0
 7342 0124 00000000 		.4byte	0
 7343              		.section	.debug_line,"",%progbits
 7344              	.Ldebug_line0:
ARM GAS  C:\Users\ANDREW~1\AppData\Local\Temp\ccxC4OPZ.s 			page 155


 7345 0000 6F080000 		.section	.debug_str,"MS",%progbits,1
 7345      02007403 
 7345      00000201 
 7345      FB0E0D00 
 7345      01010101 
 7346              	.LASF56:
 7347 0000 63686563 		.ascii	"check_second\000"
 7347      6B5F7365 
 7347      636F6E64 
 7347      00
 7348              	.LASF104:
 7349 000d 43794465 		.ascii	"CyDelay\000"
 7349      6C617900 
 7350              	.LASF121:
 7351 0015 4469735F 		.ascii	"Dis_DP_Write\000"
 7351      44505F57 
 7351      72697465 
 7351      00
 7352              	.LASF59:
 7353 0022 70726576 		.ascii	"previous_second\000"
 7353      696F7573 
 7353      5F736563 
 7353      6F6E6400 
 7354              	.LASF143:
 7355 0032 6D61696E 		.ascii	"main.c\000"
 7355      2E6300
 7356              	.LASF44:
 7357 0039 64697370 		.ascii	"display_num\000"
 7357      6C61795F 
 7357      6E756D00 
 7358              	.LASF21:
 7359 0045 63757272 		.ascii	"current_second\000"
 7359      656E745F 
 7359      7365636F 
 7359      6E6400
 7360              	.LASF78:
 7361 0054 74696D65 		.ascii	"time_passed_step\000"
 7361      5F706173 
 7361      7365645F 
 7361      73746570 
 7361      00
 7362              	.LASF9:
 7363 0065 756E7369 		.ascii	"unsigned int\000"
 7363      676E6564 
 7363      20696E74 
 7363      00
 7364              	.LASF84:
 7365 0072 636D5F6F 		.ascii	"cm_or_inch\000"
 7365      725F696E 
 7365      636800
 7366              	.LASF132:
 7367 007d 54696D65 		.ascii	"Timer_1_SetInterruptMode\000"
 7367      725F315F 
 7367      53657449 
 7367      6E746572 
 7367      72757074 
 7368              	.LASF10:
ARM GAS  C:\Users\ANDREW~1\AppData\Local\Temp\ccxC4OPZ.s 			page 156


 7369 0096 5F5F696E 		.ascii	"__int32_t\000"
 7369      7433325F 
 7369      7400
 7370              	.LASF74:
 7371 00a0 666C6167 		.ascii	"flag_read\000"
 7371      5F726561 
 7371      6400
 7372              	.LASF43:
 7373 00aa 6D656469 		.ascii	"median\000"
 7373      616E00
 7374              	.LASF82:
 7375 00b1 6D6F6465 		.ascii	"mode\000"
 7375      00
 7376              	.LASF140:
 7377 00b6 45455052 		.ascii	"EEPROM_Start\000"
 7377      4F4D5F53 
 7377      74617274 
 7377      00
 7378              	.LASF22:
 7379 00c3 45455052 		.ascii	"EEPROM_writeInt\000"
 7379      4F4D5F77 
 7379      72697465 
 7379      496E7400 
 7380              	.LASF35:
 7381 00d3 6E756D5F 		.ascii	"num_digits\000"
 7381      64696769 
 7381      747300
 7382              	.LASF116:
 7383 00de 4469735F 		.ascii	"Dis_C_Write\000"
 7383      435F5772 
 7383      69746500 
 7384              	.LASF18:
 7385 00ea 52656365 		.ascii	"Receive_Ultra\000"
 7385      6976655F 
 7385      556C7472 
 7385      6100
 7386              	.LASF65:
 7387 00f8 76616C73 		.ascii	"vals\000"
 7387      00
 7388              	.LASF14:
 7389 00fd 666C6F61 		.ascii	"float\000"
 7389      7400
 7390              	.LASF91:
 7391 0103 636F756E 		.ascii	"count\000"
 7391      7400
 7392              	.LASF70:
 7393 0109 696E6465 		.ascii	"index\000"
 7393      7800
 7394              	.LASF38:
 7395 010f 64757261 		.ascii	"duration\000"
 7395      74696F6E 
 7395      00
 7396              	.LASF107:
 7397 0118 43794465 		.ascii	"CyDelayUs\000"
 7397      6C617955 
 7397      7300
 7398              	.LASF97:
ARM GAS  C:\Users\ANDREW~1\AppData\Local\Temp\ccxC4OPZ.s 			page 157


 7399 0122 4C454432 		.ascii	"LED2_Yellow_Write\000"
 7399      5F59656C 
 7399      6C6F775F 
 7399      57726974 
 7399      6500
 7400              	.LASF8:
 7401 0134 6C6F6E67 		.ascii	"long long unsigned int\000"
 7401      206C6F6E 
 7401      6720756E 
 7401      7369676E 
 7401      65642069 
 7402              	.LASF98:
 7403 014b 4C454433 		.ascii	"LED3_Green_Write\000"
 7403      5F477265 
 7403      656E5F57 
 7403      72697465 
 7403      00
 7404              	.LASF51:
 7405 015c 64696769 		.ascii	"digits\000"
 7405      747300
 7406              	.LASF75:
 7407 0163 73657475 		.ascii	"setup_previous_time\000"
 7407      705F7072 
 7407      6576696F 
 7407      75735F74 
 7407      696D6500 
 7408              	.LASF25:
 7409 0177 74696D65 		.ascii	"time\000"
 7409      00
 7410              	.LASF24:
 7411 017c 76616C75 		.ascii	"value\000"
 7411      6500
 7412              	.LASF111:
 7413 0182 4469735F 		.ascii	"Dis_D2_Write\000"
 7413      44325F57 
 7413      72697465 
 7413      00
 7414              	.LASF118:
 7415 018f 4469735F 		.ascii	"Dis_E_Write\000"
 7415      455F5772 
 7415      69746500 
 7416              	.LASF142:
 7417 019b 474E5520 		.ascii	"GNU C11 5.4.1 20160609 (release) [ARM/embedded-5-br"
 7417      43313120 
 7417      352E342E 
 7417      31203230 
 7417      31363036 
 7418 01ce 616E6368 		.ascii	"anch revision 237715] -mcpu=cortex-m3 -mthumb -g -O"
 7418      20726576 
 7418      6973696F 
 7418      6E203233 
 7418      37373135 
 7419 0201 67202D66 		.ascii	"g -ffunction-sections -ffat-lto-objects\000"
 7419      66756E63 
 7419      74696F6E 
 7419      2D736563 
 7419      74696F6E 
ARM GAS  C:\Users\ANDREW~1\AppData\Local\Temp\ccxC4OPZ.s 			page 158


 7420              	.LASF54:
 7421 0229 70726576 		.ascii	"previous_second_decimal\000"
 7421      696F7573 
 7421      5F736563 
 7421      6F6E645F 
 7421      64656369 
 7422              	.LASF39:
 7423 0241 42757A7A 		.ascii	"BuzzerRuntime\000"
 7423      65725275 
 7423      6E74696D 
 7423      6500
 7424              	.LASF77:
 7425 024f 636F756E 		.ascii	"counter\000"
 7425      74657200 
 7426              	.LASF130:
 7427 0257 6973725F 		.ascii	"isr_7Seg_ClearPending\000"
 7427      37536567 
 7427      5F436C65 
 7427      61725065 
 7427      6E64696E 
 7428              	.LASF124:
 7429 026d 55415254 		.ascii	"UART_1_PutString\000"
 7429      5F315F50 
 7429      75745374 
 7429      72696E67 
 7429      00
 7430              	.LASF81:
 7431 027e 7365675F 		.ascii	"seg_num\000"
 7431      6E756D00 
 7432              	.LASF52:
 7433 0286 72756E74 		.ascii	"runtime\000"
 7433      696D6500 
 7434              	.LASF127:
 7435 028e 42757474 		.ascii	"Button_S1_Bottom_State_Read\000"
 7435      6F6E5F53 
 7435      315F426F 
 7435      74746F6D 
 7435      5F537461 
 7436              	.LASF120:
 7437 02aa 4469735F 		.ascii	"Dis_G_Write\000"
 7437      475F5772 
 7437      69746500 
 7438              	.LASF20:
 7439 02b6 496D7065 		.ascii	"ImperialLedOn\000"
 7439      7269616C 
 7439      4C65644F 
 7439      6E00
 7440              	.LASF89:
 7441 02c4 72756E5F 		.ascii	"run_7_Seg\000"
 7441      375F5365 
 7441      6700
 7442              	.LASF131:
 7443 02ce 6973725F 		.ascii	"isr_7Seg_StartEx\000"
 7443      37536567 
 7443      5F537461 
 7443      72744578 
 7443      00
ARM GAS  C:\Users\ANDREW~1\AppData\Local\Temp\ccxC4OPZ.s 			page 159


 7444              	.LASF72:
 7445 02df 70726563 		.ascii	"precentage\000"
 7445      656E7461 
 7445      676500
 7446              	.LASF108:
 7447 02ea 54696D65 		.ascii	"Timer_1_Start\000"
 7447      725F315F 
 7447      53746172 
 7447      7400
 7448              	.LASF15:
 7449 02f8 63686172 		.ascii	"char\000"
 7449      00
 7450              	.LASF19:
 7451 02fd 4D657472 		.ascii	"MetricLedOn\000"
 7451      69634C65 
 7451      644F6E00 
 7452              	.LASF90:
 7453 0309 6F6C645F 		.ascii	"old_dis_val\000"
 7453      6469735F 
 7453      76616C00 
 7454              	.LASF113:
 7455 0315 4469735F 		.ascii	"Dis_D4_Write\000"
 7455      44345F57 
 7455      72697465 
 7455      00
 7456              	.LASF109:
 7457 0322 71736F72 		.ascii	"qsort\000"
 7457      7400
 7458              	.LASF57:
 7459 0328 53696E67 		.ascii	"SingleButtonWait\000"
 7459      6C654275 
 7459      74746F6E 
 7459      57616974 
 7459      00
 7460              	.LASF13:
 7461 0339 75696E74 		.ascii	"uint16\000"
 7461      313600
 7462              	.LASF55:
 7463 0340 74696D65 		.ascii	"time_diff\000"
 7463      5F646966 
 7463      6600
 7464              	.LASF106:
 7465 034a 436F6E74 		.ascii	"Control_Reg_1_Write\000"
 7465      726F6C5F 
 7465      5265675F 
 7465      315F5772 
 7465      69746500 
 7466              	.LASF79:
 7467 035e 70726576 		.ascii	"previous_buzz\000"
 7467      696F7573 
 7467      5F62757A 
 7467      7A00
 7468              	.LASF139:
 7469 036c 54696D65 		.ascii	"Timer_2_Start\000"
 7469      725F325F 
 7469      53746172 
 7469      7400
ARM GAS  C:\Users\ANDREW~1\AppData\Local\Temp\ccxC4OPZ.s 			page 160


 7470              	.LASF27:
 7471 037a 636F6D70 		.ascii	"compare_qsort\000"
 7471      6172655F 
 7471      71736F72 
 7471      7400
 7472              	.LASF100:
 7473 0388 54696D65 		.ascii	"Timer_2_ReadCounter\000"
 7473      725F325F 
 7473      52656164 
 7473      436F756E 
 7473      74657200 
 7474              	.LASF41:
 7475 039c 66696E64 		.ascii	"find_median\000"
 7475      5F6D6564 
 7475      69616E00 
 7476              	.LASF126:
 7477 03a8 42757474 		.ascii	"Button_S5_Select_State_Read\000"
 7477      6F6E5F53 
 7477      355F5365 
 7477      6C656374 
 7477      5F537461 
 7478              	.LASF129:
 7479 03c4 6973725F 		.ascii	"isr_6_StartEx\000"
 7479      365F5374 
 7479      61727445 
 7479      7800
 7480              	.LASF7:
 7481 03d2 6C6F6E67 		.ascii	"long long int\000"
 7481      206C6F6E 
 7481      6720696E 
 7481      7400
 7482              	.LASF86:
 7483 03e0 76616C75 		.ascii	"value_text\000"
 7483      655F7465 
 7483      787400
 7484              	.LASF102:
 7485 03eb 45455052 		.ascii	"EEPROM_ReadByte\000"
 7485      4F4D5F52 
 7485      65616442 
 7485      79746500 
 7486              	.LASF94:
 7487 03fb 54696D65 		.ascii	"Timer_1_Stop\000"
 7487      725F315F 
 7487      53746F70 
 7487      00
 7488              	.LASF147:
 7489 0408 6D656D73 		.ascii	"memset\000"
 7489      657400
 7490              	.LASF87:
 7491 040f 77616974 		.ascii	"waiting_ultra\000"
 7491      696E675F 
 7491      756C7472 
 7491      6100
 7492              	.LASF135:
 7493 041d 436F6D70 		.ascii	"Comp_1_Start\000"
 7493      5F315F53 
 7493      74617274 
ARM GAS  C:\Users\ANDREW~1\AppData\Local\Temp\ccxC4OPZ.s 			page 161


 7493      00
 7494              	.LASF42:
 7495 042a 73697A65 		.ascii	"size\000"
 7495      00
 7496              	.LASF71:
 7497 042f 61637475 		.ascii	"actual\000"
 7497      616C00
 7498              	.LASF46:
 7499 0436 636C6561 		.ascii	"clear_7_seg\000"
 7499      725F375F 
 7499      73656700 
 7500              	.LASF47:
 7501 0442 64726177 		.ascii	"draw_7Seg\000"
 7501      5F375365 
 7501      6700
 7502              	.LASF49:
 7503 044c 7365676D 		.ascii	"segmentPattern\000"
 7503      656E7450 
 7503      61747465 
 7503      726E00
 7504              	.LASF68:
 7505 045b 61637475 		.ascii	"actual_dist\000"
 7505      616C5F64 
 7505      69737400 
 7506              	.LASF26:
 7507 0467 45455052 		.ascii	"EEPROM_writeDouble\000"
 7507      4F4D5F77 
 7507      72697465 
 7507      446F7562 
 7507      6C6500
 7508              	.LASF105:
 7509 047a 42757A7A 		.ascii	"Buzzer_Write\000"
 7509      65725F57 
 7509      72697465 
 7509      00
 7510              	.LASF99:
 7511 0487 54696D65 		.ascii	"Timer_2_ReadPeriod\000"
 7511      725F325F 
 7511      52656164 
 7511      50657269 
 7511      6F6400
 7512              	.LASF31:
 7513 049a 61727261 		.ascii	"array\000"
 7513      7900
 7514              	.LASF137:
 7515 04a0 436F756E 		.ascii	"Count7_1_Start\000"
 7515      74375F31 
 7515      5F537461 
 7515      727400
 7516              	.LASF16:
 7517 04af 6C6F6E67 		.ascii	"long double\000"
 7517      20646F75 
 7517      626C6500 
 7518              	.LASF28:
 7519 04bb 45455052 		.ascii	"EEPROM_readDouble\000"
 7519      4F4D5F72 
 7519      65616444 
ARM GAS  C:\Users\ANDREW~1\AppData\Local\Temp\ccxC4OPZ.s 			page 162


 7519      6F75626C 
 7519      6500
 7520              	.LASF80:
 7521 04cd 62757A7A 		.ascii	"buzz_duration\000"
 7521      5F647572 
 7521      6174696F 
 7521      6E00
 7522              	.LASF37:
 7523 04db 42757A7A 		.ascii	"BuzzerSound\000"
 7523      6572536F 
 7523      756E6400 
 7524              	.LASF115:
 7525 04e7 4469735F 		.ascii	"Dis_B_Write\000"
 7525      425F5772 
 7525      69746500 
 7526              	.LASF30:
 7527 04f3 73746172 		.ascii	"startAddress\000"
 7527      74416464 
 7527      72657373 
 7527      00
 7528              	.LASF69:
 7529 0500 6E657874 		.ascii	"nextAddress\000"
 7529      41646472 
 7529      65737300 
 7530              	.LASF125:
 7531 050c 42757474 		.ascii	"Button_S3_Top_State_Read\000"
 7531      6F6E5F53 
 7531      335F546F 
 7531      705F5374 
 7531      6174655F 
 7532              	.LASF63:
 7533 0525 70726576 		.ascii	"previous_ultra_second\000"
 7533      696F7573 
 7533      5F756C74 
 7533      72615F73 
 7533      65636F6E 
 7534              	.LASF128:
 7535 053b 6973725F 		.ascii	"isr_6_ClearPending\000"
 7535      365F436C 
 7535      65617250 
 7535      656E6469 
 7535      6E6700
 7536              	.LASF117:
 7537 054e 4469735F 		.ascii	"Dis_D_Write\000"
 7537      445F5772 
 7537      69746500 
 7538              	.LASF33:
 7539 055a 72656164 		.ascii	"readDoubleArrayFromEEPROM\000"
 7539      446F7562 
 7539      6C654172 
 7539      72617946 
 7539      726F6D45 
 7540              	.LASF3:
 7541 0574 73686F72 		.ascii	"short int\000"
 7541      7420696E 
 7541      7400
 7542              	.LASF29:
ARM GAS  C:\Users\ANDREW~1\AppData\Local\Temp\ccxC4OPZ.s 			page 163


 7543 057e 77726974 		.ascii	"writeDoubleArrayToEEPROM\000"
 7543      65446F75 
 7543      626C6541 
 7543      72726179 
 7543      546F4545 
 7544              	.LASF5:
 7545 0597 6C6F6E67 		.ascii	"long int\000"
 7545      20696E74 
 7545      00
 7546              	.LASF76:
 7547 05a0 49544D5F 		.ascii	"ITM_RxBuffer\000"
 7547      52784275 
 7547      66666572 
 7547      00
 7548              	.LASF34:
 7549 05ad 7072696E 		.ascii	"print_uart\000"
 7549      745F7561 
 7549      727400
 7550              	.LASF85:
 7551 05b8 64697374 		.ascii	"distance\000"
 7551      616E6365 
 7551      00
 7552              	.LASF66:
 7553 05c1 636F756E 		.ascii	"count_median\000"
 7553      745F6D65 
 7553      6469616E 
 7553      00
 7554              	.LASF36:
 7555 05ce 74656D70 		.ascii	"temp\000"
 7555      00
 7556              	.LASF110:
 7557 05d3 4469735F 		.ascii	"Dis_D1_Write\000"
 7557      44315F57 
 7557      72697465 
 7557      00
 7558              	.LASF144:
 7559 05e0 443A5C4D 		.ascii	"D:\\Monash\\Y3S2\\TRC3500\\TRC3500-Lab\\Project 3 U"
 7559      6F6E6173 
 7559      685C5933 
 7559      53325C54 
 7559      52433335 
 7560 060e 6C747261 		.ascii	"ltrasonic Distance Meter-20240427\\Project3_Ultraso"
 7560      736F6E69 
 7560      63204469 
 7560      7374616E 
 7560      6365204D 
 7561 0640 6E69635C 		.ascii	"nic\\7Seg_Display.cydsn\000"
 7561      37536567 
 7561      5F446973 
 7561      706C6179 
 7561      2E637964 
 7562              	.LASF48:
 7563 0657 6E756D62 		.ascii	"number\000"
 7563      657200
 7564              	.LASF141:
 7565 065e 55415254 		.ascii	"UART_1_Start\000"
 7565      5F315F53 
ARM GAS  C:\Users\ANDREW~1\AppData\Local\Temp\ccxC4OPZ.s 			page 164


 7565      74617274 
 7565      00
 7566              	.LASF123:
 7567 066b 42757474 		.ascii	"Button_S4_Right_State_Read\000"
 7567      6F6E5F53 
 7567      345F5269 
 7567      6768745F 
 7567      53746174 
 7568              	.LASF17:
 7569 0686 73697A65 		.ascii	"sizetype\000"
 7569      74797065 
 7569      00
 7570              	.LASF6:
 7571 068f 6C6F6E67 		.ascii	"long unsigned int\000"
 7571      20756E73 
 7571      69676E65 
 7571      6420696E 
 7571      7400
 7572              	.LASF23:
 7573 06a1 61646472 		.ascii	"address\000"
 7573      65737300 
 7574              	.LASF119:
 7575 06a9 4469735F 		.ascii	"Dis_F_Write\000"
 7575      465F5772 
 7575      69746500 
 7576              	.LASF11:
 7577 06b5 696E7433 		.ascii	"int32_t\000"
 7577      325F7400 
 7578              	.LASF50:
 7579 06bd 7365675F 		.ascii	"seg_runtime\000"
 7579      72756E74 
 7579      696D6500 
 7580              	.LASF103:
 7581 06c9 55415254 		.ascii	"UART_1_WriteTxData\000"
 7581      5F315F57 
 7581      72697465 
 7581      54784461 
 7581      746100
 7582              	.LASF2:
 7583 06dc 756E7369 		.ascii	"unsigned char\000"
 7583      676E6564 
 7583      20636861 
 7583      7200
 7584              	.LASF122:
 7585 06ea 42757474 		.ascii	"Button_S2_Left_State_Read\000"
 7585      6F6E5F53 
 7585      325F4C65 
 7585      66745F53 
 7585      74617465 
 7586              	.LASF62:
 7587 0704 756C7472 		.ascii	"ultra_reading\000"
 7587      615F7265 
 7587      6164696E 
 7587      6700
 7588              	.LASF93:
 7589 0712 7365676D 		.ascii	"segmentPattern_array\000"
 7589      656E7450 
ARM GAS  C:\Users\ANDREW~1\AppData\Local\Temp\ccxC4OPZ.s 			page 165


 7589      61747465 
 7589      726E5F61 
 7589      72726179 
 7590              	.LASF88:
 7591 0727 496E7465 		.ascii	"InterruptCnt\000"
 7591      72727570 
 7591      74436E74 
 7591      00
 7592              	.LASF53:
 7593 0734 6D6F6465 		.ascii	"mode_0\000"
 7593      5F3000
 7594              	.LASF58:
 7595 073b 6D6F6465 		.ascii	"mode_1\000"
 7595      5F3100
 7596              	.LASF60:
 7597 0742 6D6F6465 		.ascii	"mode_2\000"
 7597      5F3200
 7598              	.LASF73:
 7599 0749 6D6F6465 		.ascii	"mode_3\000"
 7599      5F3300
 7600              	.LASF134:
 7601 0750 4F70616D 		.ascii	"Opamp_1_Start\000"
 7601      705F315F 
 7601      53746172 
 7601      7400
 7602              	.LASF83:
 7603 075e 67726F75 		.ascii	"group_num\000"
 7603      705F6E75 
 7603      6D00
 7604              	.LASF112:
 7605 0768 4469735F 		.ascii	"Dis_D3_Write\000"
 7605      44335F57 
 7605      72697465 
 7605      00
 7606              	.LASF114:
 7607 0775 4469735F 		.ascii	"Dis_A_Write\000"
 7607      415F5772 
 7607      69746500 
 7608              	.LASF101:
 7609 0781 45455052 		.ascii	"EEPROM_WriteByte\000"
 7609      4F4D5F57 
 7609      72697465 
 7609      42797465 
 7609      00
 7610              	.LASF64:
 7611 0792 756C7472 		.ascii	"ultra_avg\000"
 7611      615F6176 
 7611      6700
 7612              	.LASF45:
 7613 079c 73656E64 		.ascii	"send_ultra_pulse\000"
 7613      5F756C74 
 7613      72615F70 
 7613      756C7365 
 7613      00
 7614              	.LASF133:
 7615 07ad 5047415F 		.ascii	"PGA_1_Start\000"
 7615      315F5374 
ARM GAS  C:\Users\ANDREW~1\AppData\Local\Temp\ccxC4OPZ.s 			page 166


 7615      61727400 
 7616              	.LASF1:
 7617 07b9 7369676E 		.ascii	"signed char\000"
 7617      65642063 
 7617      68617200 
 7618              	.LASF95:
 7619 07c5 54696D65 		.ascii	"Timer_1_ReadPeriod\000"
 7619      725F315F 
 7619      52656164 
 7619      50657269 
 7619      6F6400
 7620              	.LASF4:
 7621 07d8 73686F72 		.ascii	"short unsigned int\000"
 7621      7420756E 
 7621      7369676E 
 7621      65642069 
 7621      6E7400
 7622              	.LASF138:
 7623 07eb 54696D65 		.ascii	"Timer_2_SetInterruptMode\000"
 7623      725F325F 
 7623      53657449 
 7623      6E746572 
 7623      72757074 
 7624              	.LASF146:
 7625 0804 6D61696E 		.ascii	"main\000"
 7625      00
 7626              	.LASF61:
 7627 0809 446F7562 		.ascii	"DoubleButtonWait\000"
 7627      6C654275 
 7627      74746F6E 
 7627      57616974 
 7627      00
 7628              	.LASF67:
 7629 081a 70726564 		.ascii	"predicted_dist\000"
 7629      69637465 
 7629      645F6469 
 7629      737400
 7630              	.LASF12:
 7631 0829 75696E74 		.ascii	"uint8\000"
 7631      3800
 7632              	.LASF0:
 7633 082f 646F7562 		.ascii	"double\000"
 7633      6C6500
 7634              	.LASF136:
 7635 0836 56444143 		.ascii	"VDAC8_1_Start\000"
 7635      385F315F 
 7635      53746172 
 7635      7400
 7636              	.LASF96:
 7637 0844 54696D65 		.ascii	"Timer_1_ReadCounter\000"
 7637      725F315F 
 7637      52656164 
 7637      436F756E 
 7637      74657200 
 7638              	.LASF32:
 7639 0858 61727261 		.ascii	"arraySize\000"
 7639      7953697A 
ARM GAS  C:\Users\ANDREW~1\AppData\Local\Temp\ccxC4OPZ.s 			page 167


 7639      6500
 7640              	.LASF92:
 7641 0862 63686172 		.ascii	"charLookup\000"
 7641      4C6F6F6B 
 7641      757000
 7642              	.LASF40:
 7643 086d 62757A7A 		.ascii	"buzz_time_diff\000"
 7643      5F74696D 
 7643      655F6469 
 7643      666600
 7644              	.LASF145:
 7645 087c 73656737 		.ascii	"seg7_ISR\000"
 7645      5F495352 
 7645      00
 7646              		.ident	"GCC: (GNU Tools for ARM Embedded Processors) 5.4.1 20160609 (release) [ARM/embedded-5-bran
