ARM GAS  C:\Users\ANDREW~1\AppData\Local\Temp\ccwQPnwd.s 			page 1


   1              		.syntax unified
   2              		.cpu cortex-m3
   3              		.fpu softvfp
   4              		.eabi_attribute 20, 1
   5              		.eabi_attribute 21, 1
   6              		.eabi_attribute 23, 3
   7              		.eabi_attribute 24, 1
   8              		.eabi_attribute 25, 1
   9              		.eabi_attribute 26, 1
  10              		.eabi_attribute 30, 1
  11              		.eabi_attribute 34, 1
  12              		.eabi_attribute 18, 4
  13              		.thumb
  14              		.syntax unified
  15              		.file	"main.c"
  16              		.text
  17              	.Ltext0:
  18              		.cfi_sections	.debug_frame
  19              		.section	.text.compare_qsort,"ax",%progbits
  20              		.align	2
  21              		.global	compare_qsort
  22              		.thumb
  23              		.thumb_func
  24              		.type	compare_qsort, %function
  25              	compare_qsort:
  26              	.LFB82:
  27              		.file 1 "main.c"
   1:main.c        **** 
   2:main.c        **** // ================================================================================================
   3:main.c        **** #include "project.h"
   4:main.c        **** #include <stdio.h>
   5:main.c        **** #include <stdlib.h>
   6:main.c        **** 
   7:main.c        **** void display_num(double value);
   8:main.c        **** void draw_7Seg(int number,int dp);
   9:main.c        **** CY_ISR(seg7_ISR);
  10:main.c        **** CY_ISR(Receive_Ultra);
  11:main.c        **** 
  12:main.c        **** void print_uart(int num);
  13:main.c        **** double current_second();
  14:main.c        **** void BuzzerSound(double duration);
  15:main.c        **** void BuzzerRuntime(double duration);
  16:main.c        **** void seg_runtime(double value);
  17:main.c        **** int clear_7_seg();
  18:main.c        **** 
  19:main.c        **** void EEPROM_writeDouble(uint16 address, double value);
  20:main.c        **** double EEPROM_readDouble(uint16 address);
  21:main.c        **** void writeDoubleArrayToEEPROM(uint16 startAddress, double* array, uint16 arraySize);
  22:main.c        **** void readDoubleArrayFromEEPROM(uint16 startAddress, double* array, uint16 arraySize);
  23:main.c        **** void EEPROM_writeInt(uint16 address, int value);
  24:main.c        **** int EEPROM_readInt(uint16 address) ;
  25:main.c        **** 
  26:main.c        **** void mode_0(void);
  27:main.c        **** void mode_1(void);
  28:main.c        **** void mode_2(void);
  29:main.c        **** void mode_3(void);
  30:main.c        **** 
ARM GAS  C:\Users\ANDREW~1\AppData\Local\Temp\ccwQPnwd.s 			page 2


  31:main.c        **** void MetricLedOn(void);
  32:main.c        **** void ImperialLedOn(void);
  33:main.c        **** void SingleButtonWait(void);
  34:main.c        **** void DoubleButtonWait(void);
  35:main.c        **** 
  36:main.c        **** float find_median(float arr[], int size);
  37:main.c        **** int compare_qsort(const void *a, const void *b);
  38:main.c        **** 
  39:main.c        **** double ultra_avg();
  40:main.c        **** double ultra_reading();
  41:main.c        **** 
  42:main.c        **** void runtime();
  43:main.c        **** 
  44:main.c        **** 
  45:main.c        **** 
  46:main.c        **** 
  47:main.c        **** // ================================================================================================
  48:main.c        **** double counter = 0;
  49:main.c        **** 
  50:main.c        **** int time_passed_step=0;
  51:main.c        **** double previous_buzz= 0;
  52:main.c        **** 
  53:main.c        **** double buzz_duration=0;
  54:main.c        **** double seg_num =0;
  55:main.c        **** 
  56:main.c        **** 
  57:main.c        **** 
  58:main.c        **** int mode = 0;
  59:main.c        **** int group_num = 0;
  60:main.c        **** char cm_or_inch;
  61:main.c        **** 
  62:main.c        **** double distance=0;
  63:main.c        **** 
  64:main.c        **** 
  65:main.c        **** 
  66:main.c        **** int main(void)
  67:main.c        **** {
  68:main.c        ****     // Enable interrupts
  69:main.c        ****     CyGlobalIntEnable; 
  70:main.c        ****     
  71:main.c        ****     // 7 Segment display setup
  72:main.c        ****     isr_7Seg_ClearPending(); 
  73:main.c        ****     isr_7Seg_StartEx(seg7_ISR);  
  74:main.c        ****     
  75:main.c        ****     //  Ultrasonic transmitter setup
  76:main.c        ****     isr_6_ClearPending(); 
  77:main.c        ****     Timer_1_SetInterruptMode(3);
  78:main.c        ****     isr_6_StartEx(Receive_Ultra);  
  79:main.c        ****     
  80:main.c        ****     // Ultrasonic receiver setup
  81:main.c        ****     PGA_1_Start();
  82:main.c        ****     Opamp_1_Start();
  83:main.c        ****     Comp_1_Start();
  84:main.c        ****     VDAC8_1_Start();
  85:main.c        ****     Count7_1_Start(); 
  86:main.c        ****     
  87:main.c        ****     // Global clock timer 
ARM GAS  C:\Users\ANDREW~1\AppData\Local\Temp\ccwQPnwd.s 			page 3


  88:main.c        ****     Timer_2_SetInterruptMode(3);
  89:main.c        ****     Timer_2_Start();
  90:main.c        ****     
  91:main.c        ****     // Setup EEPROM
  92:main.c        ****     EEPROM_Start(); 
  93:main.c        ****     
  94:main.c        ****     // Setup UART
  95:main.c        ****     UART_1_Start();
  96:main.c        ****     UART_1_PutString("Start UART");
  97:main.c        ****     CyDelay(5);
  98:main.c        ****     UART_1_WriteTxData(0x20);   
  99:main.c        ****     CyDelay(5);
 100:main.c        ****     
 101:main.c        ****     double setup_previous_time =current_second();
 102:main.c        ****     while((current_second()-setup_previous_time)<=4)
 103:main.c        ****     {
 104:main.c        ****         if((int)(current_second()-setup_previous_time) ==0) display_num(-5);
 105:main.c        ****         if((int)(current_second()-setup_previous_time) ==1) display_num(-6);
 106:main.c        ****         if((int)(current_second()-setup_previous_time) ==2) display_num(-7);
 107:main.c        ****         if((int)(current_second()-setup_previous_time) ==3) display_num(-8);
 108:main.c        ****         runtime();
 109:main.c        ****     }
 110:main.c        ****     
 111:main.c        ****     // EEPROM Write startup
 112:main.c        ****     //
 113:main.c        ****     // Place your initialization/startup code here (e.g. MyInst_Start())
 114:main.c        ****     //int teamNumber = 200;
 115:main.c        ****     //EEPROM_writeInt(0, teamNumber);
 116:main.c        ****     //int nextAddress = sizeof(int);
 117:main.c        ****     //char measurementSystem = 'c';
 118:main.c        ****     //EEPROM_WriteByte((uint8)measurementSystem, nextAddress);
 119:main.c        ****     //nextAddress += sizeof(char);
 120:main.c        ****     //double calibration[55] = {0.0};
 121:main.c        ****     //writeDoubleArrayToEEPROM(nextAddress, calibration, 55);
 122:main.c        ****     //
 123:main.c        ****     
 124:main.c        ****     //int eprom_read = EEPROM_ReadByte(0x00);
 125:main.c        ****     //int eprom_write =eprom_read+1;
 126:main.c        ****     //EEPROM_WriteByte(eprom_write,0x0000);
 127:main.c        ****     
 128:main.c        ****     
 129:main.c        ****     //int eprom_num = EEPROM_ReadByte(55*sizeof(double)+sizeof(char));
 130:main.c        ****     
 131:main.c        ****     group_num = EEPROM_ReadByte(0);
 132:main.c        ****     cm_or_inch = EEPROM_ReadByte(sizeof(int));
 133:main.c        ****     
 134:main.c        ****     
 135:main.c        ****     double previous_second = current_second();
 136:main.c        ****     for(;;)
 137:main.c        ****     {
 138:main.c        ****     
 139:main.c        ****         
 140:main.c        ****         //UART_1_WriteTxData(0x20);    
 141:main.c        ****         //print_uart(mode);
 142:main.c        ****         
 143:main.c        ****         if (mode==0)
 144:main.c        ****         {
ARM GAS  C:\Users\ANDREW~1\AppData\Local\Temp\ccwQPnwd.s 			page 4


 145:main.c        ****             UART_1_PutString("Mode 0\n");
 146:main.c        ****             CyDelay(5);
 147:main.c        ****             
 148:main.c        ****             mode_0();
 149:main.c        ****         
 150:main.c        ****         }
 151:main.c        ****         if (mode==1)
 152:main.c        ****         {
 153:main.c        ****             UART_1_PutString("Mode 1\n");
 154:main.c        ****             CyDelay(5);
 155:main.c        ****             
 156:main.c        ****             mode_1();
 157:main.c        ****         }
 158:main.c        ****         if (mode==2)
 159:main.c        ****         {
 160:main.c        ****            UART_1_PutString("Mode 2\n");
 161:main.c        ****            CyDelay(5);
 162:main.c        ****         
 163:main.c        ****            // TODO problem with EEPROM write
 164:main.c        ****            //EEPROM_writeInt(0, group_num);
 165:main.c        ****            mode_2();
 166:main.c        ****         }
 167:main.c        ****         if (mode==3)
 168:main.c        ****         {
 169:main.c        ****             
 170:main.c        ****             UART_1_PutString("Mode 3\n");
 171:main.c        ****             CyDelay(5);
 172:main.c        ****             
 173:main.c        ****             mode_3();
 174:main.c        ****         }
 175:main.c        ****         CyDelay(5);
 176:main.c        ****         //mode_0();
 177:main.c        ****         
 178:main.c        ****         
 179:main.c        ****         //if(Button_S5_Select_State_Read()==0)
 180:main.c        ****         //{
 181:main.c        ****         //   clear_7_seg();
 182:main.c        ****         //   display_num(ultra_avg());
 183:main.c        ****         //}
 184:main.c        ****         
 185:main.c        ****         
 186:main.c        ****         //display_num( current_second());
 187:main.c        ****         //display_num( 0);
 188:main.c        ****         //if (cm_or_inch =='c') display_num(-1);
 189:main.c        ****         //if (cm_or_inch =='i') display_num(-2);
 190:main.c        ****         
 191:main.c        ****         //display_num( eprom_num);
 192:main.c        ****         //display_num(Button_S5_Select_State_Read()*1000+ Button_S2_Left_Read()*100+Button_S4_Right
 193:main.c        ****         //display_num(-3);
 194:main.c        ****         //BuzzerRuntime(0.2);
 195:main.c        ****         runtime();
 196:main.c        ****         
 197:main.c        ****         
 198:main.c        ****     }
 199:main.c        ****     
 200:main.c        **** }
 201:main.c        **** 
ARM GAS  C:\Users\ANDREW~1\AppData\Local\Temp\ccwQPnwd.s 			page 5


 202:main.c        **** // ================================================================================================
 203:main.c        **** //sleep mode
 204:main.c        **** void mode_0(void)
 205:main.c        **** {
 206:main.c        ****     double previous_second_decimal=current_second();
 207:main.c        ****     while (mode == 0) {
 208:main.c        ****         
 209:main.c        ****         //UART_1_PutString("1");
 210:main.c        ****         //CyDelay(5);
 211:main.c        ****         
 212:main.c        ****         //flash decimal point 1 second on, off
 213:main.c        ****         double time_diff = current_second()-previous_second_decimal;
 214:main.c        ****             
 215:main.c        ****         if (time_diff<=1)                               display_num(-3); //display decimal
 216:main.c        ****         else if ((time_diff > 1)  && (time_diff <= 2))  display_num(-4); //display blank
 217:main.c        ****         else previous_second_decimal = current_second();
 218:main.c        ****         
 219:main.c        ****       
 220:main.c        ****         //check if either button is pressed
 221:main.c        ****         if ((Button_S5_Select_State_Read() == 0) || (Button_S2_Left_State_Read() == 0))
 222:main.c        ****         {
 223:main.c        ****             
 224:main.c        ****             //wait 0.2 seconds to delay check
 225:main.c        ****             double check_second = current_second();
 226:main.c        ****             while ((current_second() - check_second )<0.2)  runtime();
 227:main.c        ****             
 228:main.c        ****             
 229:main.c        ****             
 230:main.c        ****             //if both buttons pressed, wait 1 seconds to go to mode 1
 231:main.c        ****             if ((Button_S5_Select_State_Read() == 0) && (Button_S2_Left_State_Read() == 0))
 232:main.c        ****             {
 233:main.c        ****                 BuzzerSound(0.2);
 234:main.c        ****                 check_second = current_second();        
 235:main.c        ****                 while ((Button_S5_Select_State_Read() == 0) && (Button_S2_Left_State_Read() == 0))
 236:main.c        ****                 {
 237:main.c        ****                     runtime();
 238:main.c        ****                     if (current_second()-check_second==1)
 239:main.c        ****                     {
 240:main.c        ****                         
 241:main.c        ****                         UART_1_PutString("Enter Mode 1\n");
 242:main.c        ****                         CyDelay(5);
 243:main.c        ****                         mode = 1;
 244:main.c        ****                         break;
 245:main.c        ****                     }
 246:main.c        ****                 }  
 247:main.c        ****             }
 248:main.c        ****             
 249:main.c        ****             //if instead just button 1 is pressed, go to mode 3
 250:main.c        ****             else if ((Button_S5_Select_State_Read() == 0) && (Button_S2_Left_State_Read() == 1))
 251:main.c        ****             {
 252:main.c        ****                 mode =3;
 253:main.c        ****             }
 254:main.c        ****         }
 255:main.c        ****         runtime();
 256:main.c        ****         
 257:main.c        ****         
 258:main.c        ****         
ARM GAS  C:\Users\ANDREW~1\AppData\Local\Temp\ccwQPnwd.s 			page 6


 259:main.c        ****     }
 260:main.c        **** }
 261:main.c        **** 
 262:main.c        **** //program mode
 263:main.c        **** void mode_1(void)
 264:main.c        **** {
 265:main.c        ****     double previous_second=0;
 266:main.c        ****     while (mode == 1) {
 267:main.c        ****        
 268:main.c        ****         runtime();
 269:main.c        ****         //flash group number
 270:main.c        ****         double time_diff = current_second()-previous_second;
 271:main.c        ****         if (time_diff<=1)
 272:main.c        ****         {
 273:main.c        ****            display_num(group_num); // group_num
 274:main.c        ****             //display_num(200); // group_num
 275:main.c        ****         }
 276:main.c        ****         else if ((time_diff>1) && (time_diff<=1.5))
 277:main.c        ****         {
 278:main.c        ****             display_num(-4); // Blank
 279:main.c        ****         }
 280:main.c        ****         else
 281:main.c        ****         {
 282:main.c        ****             previous_second = current_second();
 283:main.c        ****         }
 284:main.c        ****        
 285:main.c        ****        
 286:main.c        ****         // Check to go to mode 2
 287:main.c        ****         if (Button_S4_Right_State_Read() == 0) // Assuming active low buttons
 288:main.c        ****         {
 289:main.c        ****             SingleButtonWait();
 290:main.c        ****             BuzzerSound(0.2);
 291:main.c        ****             mode = 2;
 292:main.c        ****         }
 293:main.c        ****         //check to increment number
 294:main.c        ****         if (Button_S5_Select_State_Read() == 0)
 295:main.c        ****         {
 296:main.c        ****             SingleButtonWait();
 297:main.c        ****             BuzzerSound(0.2);
 298:main.c        ****             group_num ++;
 299:main.c        ****         }
 300:main.c        ****         //check to decrement number
 301:main.c        ****         if (Button_S2_Left_State_Read() == 0)
 302:main.c        ****         {
 303:main.c        ****             SingleButtonWait();
 304:main.c        ****             BuzzerSound(0.2);
 305:main.c        ****             group_num --;
 306:main.c        ****         }
 307:main.c        ****     }
 308:main.c        **** }
 309:main.c        **** 
 310:main.c        **** //system change mode
 311:main.c        **** void mode_2(void)
 312:main.c        **** {
 313:main.c        ****     while (mode == 2)
 314:main.c        ****     {
 315:main.c        ****         runtime();
ARM GAS  C:\Users\ANDREW~1\AppData\Local\Temp\ccwQPnwd.s 			page 7


 316:main.c        ****         
 317:main.c        ****         // Display cm or inch
 318:main.c        ****         if (cm_or_inch =='c') display_num(-1);
 319:main.c        ****         if (cm_or_inch =='i') display_num(-2);
 320:main.c        ****         
 321:main.c        ****         //check to go to mode 0
 322:main.c        ****         if (Button_S4_Right_State_Read() == 0)
 323:main.c        ****         {
 324:main.c        ****             SingleButtonWait();
 325:main.c        ****             BuzzerSound(0.2);
 326:main.c        ****             mode = 0;
 327:main.c        ****         }
 328:main.c        ****         //Set system to metric (centimeters)
 329:main.c        ****         if (Button_S5_Select_State_Read() == 0)
 330:main.c        ****         {
 331:main.c        ****             SingleButtonWait();
 332:main.c        ****             BuzzerSound(0.2);
 333:main.c        ****             MetricLedOn();
 334:main.c        ****             
 335:main.c        ****             cm_or_inch = 'c'; // set system to use cm
 336:main.c        ****         }
 337:main.c        ****         //Set system to imperial (inches)
 338:main.c        ****         if (Button_S2_Left_State_Read() == 0)
 339:main.c        ****         {
 340:main.c        ****             SingleButtonWait();
 341:main.c        ****             BuzzerSound(0.2);
 342:main.c        ****             ImperialLedOn();
 343:main.c        ****             
 344:main.c        ****             cm_or_inch = 'i'; // set system to use inch
 345:main.c        ****             
 346:main.c        ****            
 347:main.c        ****         }
 348:main.c        ****     }
 349:main.c        ****     
 350:main.c        ****     EEPROM_WriteByte(cm_or_inch,sizeof(int));
 351:main.c        **** 
 352:main.c        **** }
 353:main.c        **** 
 354:main.c        ****  //ultrasonic reading and display mode
 355:main.c        **** void mode_3(void)
 356:main.c        **** {
 357:main.c        ****    
 358:main.c        ****     int flag_read = 1;
 359:main.c        ****     double previous_second;
 360:main.c        ****     while (mode == 3)
 361:main.c        ****     {
 362:main.c        ****         //check if first time entering loop
 363:main.c        ****         if (flag_read == 1)
 364:main.c        ****         {
 365:main.c        ****             
 366:main.c        ****             BuzzerSound(0.2);
 367:main.c        ****             distance = ultra_avg();
 368:main.c        ****             
 369:main.c        ****             previous_second= current_second();
 370:main.c        ****             
 371:main.c        ****             clear_7_seg();
 372:main.c        ****             flag_read = 0;
ARM GAS  C:\Users\ANDREW~1\AppData\Local\Temp\ccwQPnwd.s 			page 8


 373:main.c        ****             
 374:main.c        ****             
 375:main.c        ****             
 376:main.c        ****             
 377:main.c        ****         }
 378:main.c        ****        
 379:main.c        ****         display_num(distance);
 380:main.c        ****         runtime();
 381:main.c        ****        
 382:main.c        ****         //check if loop has gone for over 2 seconds
 383:main.c        ****         if (current_second()-previous_second >=2)
 384:main.c        ****         {
 385:main.c        ****             //if button pressed, reset whole loop from start. else go to mode 0
 386:main.c        ****             if (Button_S5_Select_State_Read() == 0)
 387:main.c        ****             {
 388:main.c        ****                 clear_7_seg();
 389:main.c        ****                 BuzzerSound(0.2);
 390:main.c        ****                 flag_read=1;
 391:main.c        ****             }
 392:main.c        ****             else
 393:main.c        ****             {
 394:main.c        ****                 mode = 0;
 395:main.c        ****             }
 396:main.c        ****         }
 397:main.c        ****        
 398:main.c        ****     }
 399:main.c        ****    
 400:main.c        **** }
 401:main.c        **** 
 402:main.c        **** 
 403:main.c        **** 
 404:main.c        **** 
 405:main.c        **** void MetricLedOn(void)
 406:main.c        **** {
 407:main.c        ****     // TODO enable metric LED back again
 408:main.c        ****     //LED2_Yellow_Write(0);
 409:main.c        ****     //LED3_Green_Write(1);
 410:main.c        **** }
 411:main.c        **** 
 412:main.c        **** void ImperialLedOn(void)
 413:main.c        **** {
 414:main.c        ****     //LED3_Green_Write(0);
 415:main.c        ****     //LED2_Yellow_Write(1);
 416:main.c        **** 
 417:main.c        **** }
 418:main.c        **** 
 419:main.c        **** void SingleButtonWait(void)
 420:main.c        **** {
 421:main.c        ****     while (Button_S4_Right_State_Read()==0 || Button_S5_Select_State_Read()==0 || Button_S2_Left_St
 422:main.c        ****     {
 423:main.c        ****         runtime();
 424:main.c        ****     }
 425:main.c        **** }
 426:main.c        **** 
 427:main.c        **** void DoubleButtonWait(void)
 428:main.c        **** {
 429:main.c        ****     while (Button_S5_Select_State_Read() == 0 && Button_S2_Left_State_Read() == 0)
ARM GAS  C:\Users\ANDREW~1\AppData\Local\Temp\ccwQPnwd.s 			page 9


 430:main.c        ****     {
 431:main.c        ****         runtime();
 432:main.c        ****     }
 433:main.c        **** }
 434:main.c        **** 
 435:main.c        **** // ================================================================================================
 436:main.c        **** /* System timer*/
 437:main.c        **** void runtime()
 438:main.c        **** {
 439:main.c        ****     BuzzerRuntime(buzz_duration);
 440:main.c        ****     seg_runtime(seg_num);
 441:main.c        ****     LED1_Red_Write(0);
 442:main.c        ****     LED2_Yellow_Write(0);
 443:main.c        ****     LED3_Green_Write(0);
 444:main.c        ****     
 445:main.c        ****     if(mode==0) LED1_Red_Write(1);
 446:main.c        ****     if(mode==1) LED2_Yellow_Write(1);
 447:main.c        ****     if(mode==2) LED3_Green_Write(1);
 448:main.c        ****     if(mode==3) 
 449:main.c        ****     {
 450:main.c        ****         LED2_Yellow_Write(1);
 451:main.c        ****         LED3_Green_Write(1);
 452:main.c        ****     }
 453:main.c        ****     
 454:main.c        **** }
 455:main.c        **** 
 456:main.c        **** double current_second()
 457:main.c        **** {
 458:main.c        ****     double time = (double)(Timer_2_ReadPeriod()-Timer_2_ReadCounter());
 459:main.c        ****     time = time/1000;
 460:main.c        ****     
 461:main.c        ****     return time;
 462:main.c        **** }
 463:main.c        **** // ================================================================================================
 464:main.c        **** /* EEPROM */
 465:main.c        **** /*
 466:main.c        **** void EEPROM_writeDouble(uint16 address, double value) {
 467:main.c        ****     uint8 ptr = (uint8)(void*)&value;  // Convert double to byte array
 468:main.c        ****     for (uint8 i = 0; i < sizeof(double); i++) {
 469:main.c        ****         EEPROM_WriteByte(ptr[i], address + i);
 470:main.c        ****     }
 471:main.c        **** }
 472:main.c        **** 
 473:main.c        **** double EEPROM_readDouble(uint16 address) {
 474:main.c        ****     double value = 0.0;
 475:main.c        ****     uint8 ptr = (uint8)(void*)&value;
 476:main.c        ****     for (uint8 i = 0; i < sizeof(double); i++) {
 477:main.c        ****         ptr[i] = EEPROM_ReadByte(address + i);
 478:main.c        ****     }
 479:main.c        ****     return value;
 480:main.c        **** }
 481:main.c        **** 
 482:main.c        **** void writeDoubleArrayToEEPROM(uint16 startAddress, double* array, uint16 arraySize) {
 483:main.c        ****     for (uint16 i = 0; i < arraySize; i++) {
 484:main.c        ****         EEPROM_writeDouble(startAddress + i * sizeof(double), array[i]);
 485:main.c        ****     }
 486:main.c        **** }
ARM GAS  C:\Users\ANDREW~1\AppData\Local\Temp\ccwQPnwd.s 			page 10


 487:main.c        **** 
 488:main.c        **** void readDoubleArrayFromEEPROM(uint16 startAddress, double* array, uint16 arraySize) {
 489:main.c        ****     for (uint16 i = 0; i < arraySize; i++) {
 490:main.c        ****         array[i] = EEPROM_readDouble(startAddress + i * sizeof(double));
 491:main.c        ****     }
 492:main.c        **** }
 493:main.c        **** 
 494:main.c        **** void EEPROM_writeInt(uint16 address, int value) {
 495:main.c        ****     uint8 ptr = (uint8)(void*)&value;  // Convert int to byte array
 496:main.c        ****     for (uint8 i = 0; i < sizeof(int); i++) {
 497:main.c        ****         EEPROM_WriteByte(ptr[i], address + i);
 498:main.c        ****     }
 499:main.c        **** }
 500:main.c        **** 
 501:main.c        **** int EEPROM_readInt(uint16 address) {
 502:main.c        ****     int value = 0;
 503:main.c        ****     uint8 ptr = (uint8)(void*)&value;
 504:main.c        ****     for (uint8 i = 0; i < sizeof(int); i++) {
 505:main.c        ****         ptr[i] = EEPROM_ReadByte(address + i);
 506:main.c        ****     }
 507:main.c        ****     return value;
 508:main.c        **** }
 509:main.c        **** */
 510:main.c        **** 
 511:main.c        **** // ================================================================================================
 512:main.c        **** /* UART communications */
 513:main.c        **** 
 514:main.c        **** uint8 value_text[16];
 515:main.c        **** void print_uart(int num)
 516:main.c        **** { 
 517:main.c        ****     int num_digits = 0;
 518:main.c        ****     int temp = num;
 519:main.c        ****     
 520:main.c        ****     // Count the number of digits (optional for pre-allocation)
 521:main.c        ****     while (temp != 0) {
 522:main.c        ****         temp /= 10;
 523:main.c        ****         num_digits++;
 524:main.c        ****     }
 525:main.c        **** 
 526:main.c        ****     for (int i = num_digits-1; i >= 0; --i) {
 527:main.c        ****         value_text[i] = num % 10;
 528:main.c        ****         num /= 10;
 529:main.c        ****     }
 530:main.c        ****     
 531:main.c        ****     for (int i = 0; i < num_digits; ++i) {
 532:main.c        ****         UART_1_WriteTxData(value_text[i]+0x30); //display number
 533:main.c        ****         CyDelay(5);
 534:main.c        ****     }
 535:main.c        ****     
 536:main.c        **** }
 537:main.c        **** 
 538:main.c        **** // ================================================================================================
 539:main.c        **** /* Buzzer */
 540:main.c        **** void BuzzerSound(double duration)
 541:main.c        **** {
 542:main.c        ****     previous_buzz = current_second();
 543:main.c        ****     buzz_duration= duration;
ARM GAS  C:\Users\ANDREW~1\AppData\Local\Temp\ccwQPnwd.s 			page 11


 544:main.c        **** }
 545:main.c        **** void BuzzerRuntime(double duration)
 546:main.c        **** {
 547:main.c        ****     double buzz_time_diff = current_second()-previous_buzz;
 548:main.c        ****     
 549:main.c        ****     if(buzz_time_diff<duration) Buzzer_Write(0);  // Turn on buzzer
 550:main.c        ****     else Buzzer_Write(1); // Turn off buzzer
 551:main.c        **** }
 552:main.c        **** 
 553:main.c        **** 
 554:main.c        **** 
 555:main.c        **** // ================================================================================================
 556:main.c        **** /* Ultrasinic launch function*/
 557:main.c        **** 
 558:main.c        **** int waiting_ultra = 0;
 559:main.c        **** 
 560:main.c        **** double ultra_avg(){
 561:main.c        ****  
 562:main.c        ****     //UART_1_PutString("1");
 563:main.c        ****     //CyDelay(5);
 564:main.c        ****     float vals[10] = {0,0,0,0,0,0,0,0,0,0};
 565:main.c        ****     float count_median[20] = {0,0,0,0,0,0,0,0,0,0,0,0,0,0,0,0,0,0,0,0};
 566:main.c        ****     double final_dist;
 567:main.c        ****     
 568:main.c        ****     //UART_1_PutString("2");
 569:main.c        ****     //CyDelay(5);
 570:main.c        ****     for(int x = 0; x< 20 ; x++)
 571:main.c        ****     {
 572:main.c        ****         
 573:main.c        ****         //runtime();
 574:main.c        ****         //UART_1_PutString("3");
 575:main.c        ****         //CyDelay(5);
 576:main.c        ****         for (int i = 0; i < 10; i++) 
 577:main.c        ****         {    
 578:main.c        ****         BuzzerRuntime(buzz_duration);
 579:main.c        ****             
 580:main.c        ****         //UART_1_PutString("4");
 581:main.c        ****         //CyDelay(5);
 582:main.c        ****         vals[i] = ultra_reading();
 583:main.c        ****         }
 584:main.c        ****         
 585:main.c        ****         //UART_1_PutString("5");
 586:main.c        ****         //CyDelay(5);
 587:main.c        ****         count_median[x] = find_median(vals, 10);
 588:main.c        ****     }
 589:main.c        ****             
 590:main.c        ****     final_dist = find_median(count_median, 20);
 591:main.c        ****     return final_dist;
 592:main.c        **** }
 593:main.c        **** 
 594:main.c        **** double ultra_reading()
 595:main.c        **** {
 596:main.c        ****     isr_6_ClearPending();
 597:main.c        ****     isr_6_StartEx(Receive_Ultra);  
 598:main.c        ****     
 599:main.c        ****     // Send pulse
 600:main.c        ****     Control_Reg_1_Write(1); // Reset counter to do more pulses
ARM GAS  C:\Users\ANDREW~1\AppData\Local\Temp\ccwQPnwd.s 			page 12


 601:main.c        ****     CyDelayUs(150);
 602:main.c        ****     Control_Reg_1_Write(0);
 603:main.c        ****     
 604:main.c        ****     Timer_1_Start();        // Start receiver timer
 605:main.c        ****     waiting_ultra =1;
 606:main.c        ****     
 607:main.c        ****     // Wait for response
 608:main.c        ****     // TODO: may need to write blocking code to obtain ultrasonic values
 609:main.c        ****     double previous_ultra_second=current_second();
 610:main.c        ****     double time_diff = current_second()-previous_ultra_second;
 611:main.c        ****     
 612:main.c        ****     
 613:main.c        ****     //while(waiting_ultra==1 && (current_second()-previous_ultra_second)<1){
 614:main.c        ****     //    runtime();
 615:main.c        ****     //}
 616:main.c        ****     CyDelay(10);
 617:main.c        **** 
 618:main.c        ****     double value =  (double)time_passed_step/10000; //in ms
 619:main.c        ****     distance = (34*value)/2;
 620:main.c        ****     
 621:main.c        ****     return distance;
 622:main.c        **** }
 623:main.c        **** void send_ultra_pulse()
 624:main.c        **** {
 625:main.c        ****     Control_Reg_1_Write(1); // Reset counter to do more pulses
 626:main.c        ****     CyDelayUs(150);
 627:main.c        ****     Control_Reg_1_Write(0);
 628:main.c        ****     
 629:main.c        ****     Timer_1_Start();        // Start receiver timer
 630:main.c        ****     
 631:main.c        ****     waiting_ultra =1;
 632:main.c        **** }
 633:main.c        **** 
 634:main.c        **** uint8 InterruptCnt;
 635:main.c        **** CY_ISR(Receive_Ultra)  // Ultrasonic Receiver
 636:main.c        **** {
 637:main.c        ****     Timer_1_Stop();
 638:main.c        ****     time_passed_step = Timer_1_ReadPeriod()-Timer_1_ReadCounter() ;
 639:main.c        ****     waiting_ultra =0;
 640:main.c        ****     
 641:main.c        ****     //print_uart(time_passed_step);
 642:main.c        **** }
 643:main.c        **** 
 644:main.c        **** // Compare two values for quick sort
 645:main.c        **** int compare_qsort(const void *a, const void *b)
 646:main.c        **** {
  28              		.loc 1 646 0
  29              		.cfi_startproc
  30              		@ args = 0, pretend = 0, frame = 0
  31              		@ frame_needed = 0, uses_anonymous_args = 0
  32              		@ link register save eliminated.
  33              	.LVL0:
 647:main.c        ****     return (*(int*)a - *(int*)b);
  34              		.loc 1 647 0
  35 0000 0068     		ldr	r0, [r0]
  36              	.LVL1:
  37 0002 0B68     		ldr	r3, [r1]
ARM GAS  C:\Users\ANDREW~1\AppData\Local\Temp\ccwQPnwd.s 			page 13


 648:main.c        **** }
  38              		.loc 1 648 0
  39 0004 C01A     		subs	r0, r0, r3
  40 0006 7047     		bx	lr
  41              		.cfi_endproc
  42              	.LFE82:
  43              		.size	compare_qsort, .-compare_qsort
  44              		.section	.text.seg7_ISR,"ax",%progbits
  45              		.align	2
  46              		.global	seg7_ISR
  47              		.thumb
  48              		.thumb_func
  49              		.type	seg7_ISR, %function
  50              	seg7_ISR:
  51              	.LFB84:
 649:main.c        **** 
 650:main.c        **** // Find the median of a given array
 651:main.c        **** float find_median(float arr[], int size) 
 652:main.c        **** {
 653:main.c        ****     double median;
 654:main.c        ****     qsort(arr, size, sizeof(int), compare_qsort); // Sort the array
 655:main.c        **** 
 656:main.c        ****     // Check if the size of the array is odd or even
 657:main.c        ****     if (size % 2 == 0) 
 658:main.c        ****     {
 659:main.c        ****         median = (arr[(size/2)-2] + arr[(size/2)-1] + arr[size/2] + arr[(size/2)+1] + arr[(size/2)+
 660:main.c        ****     }
 661:main.c        ****     else
 662:main.c        ****     {
 663:main.c        **** //        median = (arr[(size - 1) / 2] + arr[size / 2]) / 2.0;
 664:main.c        ****         median = (arr[((size-1)/2)-2] + arr[((size-1)/2)-1] + arr[(size-1)/2] + arr[(size+1)/2]+ ar
 665:main.c        ****     }
 666:main.c        ****     return median;
 667:main.c        **** }
 668:main.c        **** // ================================================================================================
 669:main.c        **** /* Mid Level 7 Segment display code*/
 670:main.c        **** 
 671:main.c        **** //Global variable
 672:main.c        **** int run_7_Seg = 0;
 673:main.c        **** 
 674:main.c        **** // Interrupt routine for displaying each sections
 675:main.c        **** CY_ISR(seg7_ISR) 
 676:main.c        **** {
  52              		.loc 1 676 0
  53              		.cfi_startproc
  54              		@ args = 0, pretend = 0, frame = 0
  55              		@ frame_needed = 0, uses_anonymous_args = 0
  56              		@ link register save eliminated.
 677:main.c        ****     run_7_Seg = 1;
  57              		.loc 1 677 0
  58 0000 0122     		movs	r2, #1
  59 0002 014B     		ldr	r3, .L3
  60 0004 1A60     		str	r2, [r3]
  61 0006 7047     		bx	lr
  62              	.L4:
  63              		.align	2
  64              	.L3:
ARM GAS  C:\Users\ANDREW~1\AppData\Local\Temp\ccwQPnwd.s 			page 14


  65 0008 00000000 		.word	.LANCHOR0
  66              		.cfi_endproc
  67              	.LFE84:
  68              		.size	seg7_ISR, .-seg7_ISR
  69              		.section	.text.Receive_Ultra,"ax",%progbits
  70              		.align	2
  71              		.global	Receive_Ultra
  72              		.thumb
  73              		.thumb_func
  74              		.type	Receive_Ultra, %function
  75              	Receive_Ultra:
  76              	.LFB81:
 636:main.c        ****     Timer_1_Stop();
  77              		.loc 1 636 0
  78              		.cfi_startproc
  79              		@ args = 0, pretend = 0, frame = 0
  80              		@ frame_needed = 0, uses_anonymous_args = 0
  81 0000 10B5     		push	{r4, lr}
  82              		.cfi_def_cfa_offset 8
  83              		.cfi_offset 4, -8
  84              		.cfi_offset 14, -4
 637:main.c        ****     time_passed_step = Timer_1_ReadPeriod()-Timer_1_ReadCounter() ;
  85              		.loc 1 637 0
  86 0002 FFF7FEFF 		bl	Timer_1_Stop
  87              	.LVL2:
 638:main.c        ****     waiting_ultra =0;
  88              		.loc 1 638 0
  89 0006 FFF7FEFF 		bl	Timer_1_ReadPeriod
  90              	.LVL3:
  91 000a 0446     		mov	r4, r0
  92 000c FFF7FEFF 		bl	Timer_1_ReadCounter
  93              	.LVL4:
  94 0010 201A     		subs	r0, r4, r0
  95 0012 024B     		ldr	r3, .L7
  96 0014 5860     		str	r0, [r3, #4]
 639:main.c        ****     
  97              		.loc 1 639 0
  98 0016 0022     		movs	r2, #0
  99 0018 9A60     		str	r2, [r3, #8]
 100 001a 10BD     		pop	{r4, pc}
 101              	.L8:
 102              		.align	2
 103              	.L7:
 104 001c 00000000 		.word	.LANCHOR0
 105              		.cfi_endproc
 106              	.LFE81:
 107              		.size	Receive_Ultra, .-Receive_Ultra
 108              		.section	.text.MetricLedOn,"ax",%progbits
 109              		.align	2
 110              		.global	MetricLedOn
 111              		.thumb
 112              		.thumb_func
 113              		.type	MetricLedOn, %function
 114              	MetricLedOn:
 115              	.LFB69:
 406:main.c        ****     // TODO enable metric LED back again
 116              		.loc 1 406 0
ARM GAS  C:\Users\ANDREW~1\AppData\Local\Temp\ccwQPnwd.s 			page 15


 117              		.cfi_startproc
 118              		@ args = 0, pretend = 0, frame = 0
 119              		@ frame_needed = 0, uses_anonymous_args = 0
 120              		@ link register save eliminated.
 121 0000 7047     		bx	lr
 122              		.cfi_endproc
 123              	.LFE69:
 124              		.size	MetricLedOn, .-MetricLedOn
 125 0002 00BF     		.section	.text.ImperialLedOn,"ax",%progbits
 126              		.align	2
 127              		.global	ImperialLedOn
 128              		.thumb
 129              		.thumb_func
 130              		.type	ImperialLedOn, %function
 131              	ImperialLedOn:
 132              	.LFB70:
 413:main.c        ****     //LED3_Green_Write(0);
 133              		.loc 1 413 0
 134              		.cfi_startproc
 135              		@ args = 0, pretend = 0, frame = 0
 136              		@ frame_needed = 0, uses_anonymous_args = 0
 137              		@ link register save eliminated.
 138 0000 7047     		bx	lr
 139              		.cfi_endproc
 140              	.LFE70:
 141              		.size	ImperialLedOn, .-ImperialLedOn
 142              		.global	__aeabi_ui2d
 143              		.global	__aeabi_ddiv
 144 0002 00BF     		.section	.text.current_second,"ax",%progbits
 145              		.align	2
 146              		.global	current_second
 147              		.thumb
 148              		.thumb_func
 149              		.type	current_second, %function
 150              	current_second:
 151              	.LFB74:
 457:main.c        ****     double time = (double)(Timer_2_ReadPeriod()-Timer_2_ReadCounter());
 152              		.loc 1 457 0
 153              		.cfi_startproc
 154              		@ args = 0, pretend = 0, frame = 0
 155              		@ frame_needed = 0, uses_anonymous_args = 0
 457:main.c        ****     double time = (double)(Timer_2_ReadPeriod()-Timer_2_ReadCounter());
 156              		.loc 1 457 0
 157 0000 10B5     		push	{r4, lr}
 158              		.cfi_def_cfa_offset 8
 159              		.cfi_offset 4, -8
 160              		.cfi_offset 14, -4
 458:main.c        ****     time = time/1000;
 161              		.loc 1 458 0
 162 0002 FFF7FEFF 		bl	Timer_2_ReadPeriod
 163              	.LVL5:
 164 0006 0446     		mov	r4, r0
 165 0008 FFF7FEFF 		bl	Timer_2_ReadCounter
 166              	.LVL6:
 167 000c 201A     		subs	r0, r4, r0
 168 000e FFF7FEFF 		bl	__aeabi_ui2d
 169              	.LVL7:
ARM GAS  C:\Users\ANDREW~1\AppData\Local\Temp\ccwQPnwd.s 			page 16


 459:main.c        ****     
 170              		.loc 1 459 0
 171 0012 0022     		movs	r2, #0
 172 0014 014B     		ldr	r3, .L13
 173 0016 FFF7FEFF 		bl	__aeabi_ddiv
 174              	.LVL8:
 462:main.c        **** // ================================================================================================
 175              		.loc 1 462 0
 176 001a 10BD     		pop	{r4, pc}
 177              	.L14:
 178              		.align	2
 179              	.L13:
 180 001c 00408F40 		.word	1083129856
 181              		.cfi_endproc
 182              	.LFE74:
 183              		.size	current_second, .-current_second
 184              		.section	.text.print_uart,"ax",%progbits
 185              		.align	2
 186              		.global	print_uart
 187              		.thumb
 188              		.thumb_func
 189              		.type	print_uart, %function
 190              	print_uart:
 191              	.LFB75:
 516:main.c        ****     int num_digits = 0;
 192              		.loc 1 516 0
 193              		.cfi_startproc
 194              		@ args = 0, pretend = 0, frame = 0
 195              		@ frame_needed = 0, uses_anonymous_args = 0
 196              	.LVL9:
 197 0000 38B5     		push	{r3, r4, r5, lr}
 198              		.cfi_def_cfa_offset 16
 199              		.cfi_offset 3, -16
 200              		.cfi_offset 4, -12
 201              		.cfi_offset 5, -8
 202              		.cfi_offset 14, -4
 203              	.LVL10:
 518:main.c        ****     
 204              		.loc 1 518 0
 205 0002 0346     		mov	r3, r0
 517:main.c        ****     int temp = num;
 206              		.loc 1 517 0
 207 0004 0025     		movs	r5, #0
 521:main.c        ****         temp /= 10;
 208              		.loc 1 521 0
 209 0006 06E0     		b	.L16
 210              	.LVL11:
 211              	.L17:
 522:main.c        ****         num_digits++;
 212              		.loc 1 522 0
 213 0008 154A     		ldr	r2, .L23
 214 000a 82FB0312 		smull	r1, r2, r2, r3
 215 000e DB17     		asrs	r3, r3, #31
 216              	.LVL12:
 217 0010 C3EBA203 		rsb	r3, r3, r2, asr #2
 218              	.LVL13:
 523:main.c        ****     }
ARM GAS  C:\Users\ANDREW~1\AppData\Local\Temp\ccwQPnwd.s 			page 17


 219              		.loc 1 523 0
 220 0014 0135     		adds	r5, r5, #1
 221              	.LVL14:
 222              	.L16:
 521:main.c        ****         temp /= 10;
 223              		.loc 1 521 0
 224 0016 002B     		cmp	r3, #0
 225 0018 F6D1     		bne	.L17
 226              	.LBB2:
 526:main.c        ****         value_text[i] = num % 10;
 227              		.loc 1 526 0
 228 001a 6A1E     		subs	r2, r5, #1
 229              	.LVL15:
 230 001c 0EE0     		b	.L18
 231              	.LVL16:
 232              	.L19:
 527:main.c        ****         num /= 10;
 233              		.loc 1 527 0 discriminator 3
 234 001e 104B     		ldr	r3, .L23
 235 0020 83FB0031 		smull	r3, r1, r3, r0
 236 0024 C317     		asrs	r3, r0, #31
 237 0026 C3EBA103 		rsb	r3, r3, r1, asr #2
 238 002a 1C46     		mov	r4, r3
 239 002c 03EB8303 		add	r3, r3, r3, lsl #2
 240 0030 5900     		lsls	r1, r3, #1
 241 0032 431A     		subs	r3, r0, r1
 242 0034 0B49     		ldr	r1, .L23+4
 243 0036 8B54     		strb	r3, [r1, r2]
 528:main.c        ****     }
 244              		.loc 1 528 0 discriminator 3
 245 0038 2046     		mov	r0, r4
 246              	.LVL17:
 526:main.c        ****         value_text[i] = num % 10;
 247              		.loc 1 526 0 discriminator 3
 248 003a 013A     		subs	r2, r2, #1
 249              	.LVL18:
 250              	.L18:
 526:main.c        ****         value_text[i] = num % 10;
 251              		.loc 1 526 0 is_stmt 0 discriminator 1
 252 003c 002A     		cmp	r2, #0
 253 003e EEDA     		bge	.L19
 254 0040 0024     		movs	r4, #0
 255 0042 09E0     		b	.L20
 256              	.LVL19:
 257              	.L21:
 258              	.LBE2:
 259              	.LBB3:
 532:main.c        ****         CyDelay(5);
 260              		.loc 1 532 0 is_stmt 1 discriminator 3
 261 0044 074B     		ldr	r3, .L23+4
 262 0046 185D     		ldrb	r0, [r3, r4]	@ zero_extendqisi2
 263 0048 3030     		adds	r0, r0, #48
 264 004a C0B2     		uxtb	r0, r0
 265 004c FFF7FEFF 		bl	UART_1_WriteTxData
 266              	.LVL20:
 533:main.c        ****     }
 267              		.loc 1 533 0 discriminator 3
ARM GAS  C:\Users\ANDREW~1\AppData\Local\Temp\ccwQPnwd.s 			page 18


 268 0050 0520     		movs	r0, #5
 269 0052 FFF7FEFF 		bl	CyDelay
 270              	.LVL21:
 531:main.c        ****         UART_1_WriteTxData(value_text[i]+0x30); //display number
 271              		.loc 1 531 0 discriminator 3
 272 0056 0134     		adds	r4, r4, #1
 273              	.LVL22:
 274              	.L20:
 531:main.c        ****         UART_1_WriteTxData(value_text[i]+0x30); //display number
 275              		.loc 1 531 0 is_stmt 0 discriminator 1
 276 0058 A542     		cmp	r5, r4
 277 005a F3DC     		bgt	.L21
 278              	.LBE3:
 536:main.c        **** 
 279              		.loc 1 536 0 is_stmt 1
 280 005c 38BD     		pop	{r3, r4, r5, pc}
 281              	.LVL23:
 282              	.L24:
 283 005e 00BF     		.align	2
 284              	.L23:
 285 0060 67666666 		.word	1717986919
 286 0064 00000000 		.word	value_text
 287              		.cfi_endproc
 288              	.LFE75:
 289              		.size	print_uart, .-print_uart
 290              		.section	.text.BuzzerSound,"ax",%progbits
 291              		.align	2
 292              		.global	BuzzerSound
 293              		.thumb
 294              		.thumb_func
 295              		.type	BuzzerSound, %function
 296              	BuzzerSound:
 297              	.LFB76:
 541:main.c        ****     previous_buzz = current_second();
 298              		.loc 1 541 0
 299              		.cfi_startproc
 300              		@ args = 0, pretend = 0, frame = 0
 301              		@ frame_needed = 0, uses_anonymous_args = 0
 302              	.LVL24:
 303 0000 38B5     		push	{r3, r4, r5, lr}
 304              		.cfi_def_cfa_offset 16
 305              		.cfi_offset 3, -16
 306              		.cfi_offset 4, -12
 307              		.cfi_offset 5, -8
 308              		.cfi_offset 14, -4
 309 0002 0446     		mov	r4, r0
 310 0004 0D46     		mov	r5, r1
 542:main.c        ****     buzz_duration= duration;
 311              		.loc 1 542 0
 312 0006 FFF7FEFF 		bl	current_second
 313              	.LVL25:
 314 000a 034B     		ldr	r3, .L27
 315 000c C3E90401 		strd	r0, [r3, #16]
 543:main.c        **** }
 316              		.loc 1 543 0
 317 0010 C3E90645 		strd	r4, [r3, #24]
 318 0014 38BD     		pop	{r3, r4, r5, pc}
ARM GAS  C:\Users\ANDREW~1\AppData\Local\Temp\ccwQPnwd.s 			page 19


 319              	.L28:
 320 0016 00BF     		.align	2
 321              	.L27:
 322 0018 00000000 		.word	.LANCHOR0
 323              		.cfi_endproc
 324              	.LFE76:
 325              		.size	BuzzerSound, .-BuzzerSound
 326              		.global	__aeabi_dsub
 327              		.global	__aeabi_dcmplt
 328              		.section	.text.BuzzerRuntime,"ax",%progbits
 329              		.align	2
 330              		.global	BuzzerRuntime
 331              		.thumb
 332              		.thumb_func
 333              		.type	BuzzerRuntime, %function
 334              	BuzzerRuntime:
 335              	.LFB77:
 546:main.c        ****     double buzz_time_diff = current_second()-previous_buzz;
 336              		.loc 1 546 0
 337              		.cfi_startproc
 338              		@ args = 0, pretend = 0, frame = 0
 339              		@ frame_needed = 0, uses_anonymous_args = 0
 340              	.LVL26:
 341 0000 38B5     		push	{r3, r4, r5, lr}
 342              		.cfi_def_cfa_offset 16
 343              		.cfi_offset 3, -16
 344              		.cfi_offset 4, -12
 345              		.cfi_offset 5, -8
 346              		.cfi_offset 14, -4
 347 0002 0446     		mov	r4, r0
 348 0004 0D46     		mov	r5, r1
 547:main.c        ****     
 349              		.loc 1 547 0
 350 0006 FFF7FEFF 		bl	current_second
 351              	.LVL27:
 352 000a 094B     		ldr	r3, .L36
 353 000c D3E90423 		ldrd	r2, [r3, #16]
 354 0010 FFF7FEFF 		bl	__aeabi_dsub
 355              	.LVL28:
 549:main.c        ****     else Buzzer_Write(1); // Turn off buzzer
 356              		.loc 1 549 0
 357 0014 2246     		mov	r2, r4
 358 0016 2B46     		mov	r3, r5
 359 0018 FFF7FEFF 		bl	__aeabi_dcmplt
 360              	.LVL29:
 361 001c 18B1     		cbz	r0, .L34
 549:main.c        ****     else Buzzer_Write(1); // Turn off buzzer
 362              		.loc 1 549 0 is_stmt 0 discriminator 1
 363 001e 0020     		movs	r0, #0
 364 0020 FFF7FEFF 		bl	Buzzer_Write
 365              	.LVL30:
 366 0024 38BD     		pop	{r3, r4, r5, pc}
 367              	.L34:
 550:main.c        **** }
 368              		.loc 1 550 0 is_stmt 1
 369 0026 0120     		movs	r0, #1
 370 0028 FFF7FEFF 		bl	Buzzer_Write
ARM GAS  C:\Users\ANDREW~1\AppData\Local\Temp\ccwQPnwd.s 			page 20


 371              	.LVL31:
 372 002c 38BD     		pop	{r3, r4, r5, pc}
 373              	.L37:
 374 002e 00BF     		.align	2
 375              	.L36:
 376 0030 00000000 		.word	.LANCHOR0
 377              		.cfi_endproc
 378              	.LFE77:
 379              		.size	BuzzerRuntime, .-BuzzerRuntime
 380              		.global	__aeabi_i2d
 381              		.global	__aeabi_dmul
 382              		.section	.text.ultra_reading,"ax",%progbits
 383              		.align	2
 384              		.global	ultra_reading
 385              		.thumb
 386              		.thumb_func
 387              		.type	ultra_reading, %function
 388              	ultra_reading:
 389              	.LFB79:
 595:main.c        ****     isr_6_ClearPending();
 390              		.loc 1 595 0
 391              		.cfi_startproc
 392              		@ args = 0, pretend = 0, frame = 0
 393              		@ frame_needed = 0, uses_anonymous_args = 0
 394 0000 10B5     		push	{r4, lr}
 395              		.cfi_def_cfa_offset 8
 396              		.cfi_offset 4, -8
 397              		.cfi_offset 14, -4
 596:main.c        ****     isr_6_StartEx(Receive_Ultra);  
 398              		.loc 1 596 0
 399 0002 FFF7FEFF 		bl	isr_6_ClearPending
 400              	.LVL32:
 597:main.c        ****     
 401              		.loc 1 597 0
 402 0006 1848     		ldr	r0, .L40+8
 403 0008 FFF7FEFF 		bl	isr_6_StartEx
 404              	.LVL33:
 600:main.c        ****     CyDelayUs(150);
 405              		.loc 1 600 0
 406 000c 0120     		movs	r0, #1
 407 000e FFF7FEFF 		bl	Control_Reg_1_Write
 408              	.LVL34:
 601:main.c        ****     Control_Reg_1_Write(0);
 409              		.loc 1 601 0
 410 0012 9620     		movs	r0, #150
 411 0014 FFF7FEFF 		bl	CyDelayUs
 412              	.LVL35:
 602:main.c        ****     
 413              		.loc 1 602 0
 414 0018 0020     		movs	r0, #0
 415 001a FFF7FEFF 		bl	Control_Reg_1_Write
 416              	.LVL36:
 604:main.c        ****     waiting_ultra =1;
 417              		.loc 1 604 0
 418 001e FFF7FEFF 		bl	Timer_1_Start
 419              	.LVL37:
 605:main.c        ****     
ARM GAS  C:\Users\ANDREW~1\AppData\Local\Temp\ccwQPnwd.s 			page 21


 420              		.loc 1 605 0
 421 0022 124C     		ldr	r4, .L40+12
 422 0024 0123     		movs	r3, #1
 423 0026 A360     		str	r3, [r4, #8]
 609:main.c        ****     double time_diff = current_second()-previous_ultra_second;
 424              		.loc 1 609 0
 425 0028 FFF7FEFF 		bl	current_second
 426              	.LVL38:
 610:main.c        ****     
 427              		.loc 1 610 0
 428 002c FFF7FEFF 		bl	current_second
 429              	.LVL39:
 616:main.c        **** 
 430              		.loc 1 616 0
 431 0030 0A20     		movs	r0, #10
 432 0032 FFF7FEFF 		bl	CyDelay
 433              	.LVL40:
 618:main.c        ****     distance = (34*value)/2;
 434              		.loc 1 618 0
 435 0036 6068     		ldr	r0, [r4, #4]
 436 0038 FFF7FEFF 		bl	__aeabi_i2d
 437              	.LVL41:
 438 003c 08A3     		adr	r3, .L40
 439 003e D3E90023 		ldrd	r2, [r3]
 440 0042 FFF7FEFF 		bl	__aeabi_ddiv
 441              	.LVL42:
 619:main.c        ****     
 442              		.loc 1 619 0
 443 0046 0022     		movs	r2, #0
 444 0048 094B     		ldr	r3, .L40+16
 445 004a FFF7FEFF 		bl	__aeabi_dmul
 446              	.LVL43:
 447 004e 0022     		movs	r2, #0
 448 0050 084B     		ldr	r3, .L40+20
 449 0052 FFF7FEFF 		bl	__aeabi_dmul
 450              	.LVL44:
 451 0056 C4E90801 		strd	r0, [r4, #32]
 622:main.c        **** void send_ultra_pulse()
 452              		.loc 1 622 0
 453 005a 10BD     		pop	{r4, pc}
 454              	.L41:
 455 005c AFF30080 		.align	3
 456              	.L40:
 457 0060 00000000 		.word	0
 458 0064 0088C340 		.word	1086556160
 459 0068 00000000 		.word	Receive_Ultra
 460 006c 00000000 		.word	.LANCHOR0
 461 0070 00004140 		.word	1078001664
 462 0074 0000E03F 		.word	1071644672
 463              		.cfi_endproc
 464              	.LFE79:
 465              		.size	ultra_reading, .-ultra_reading
 466              		.section	.text.send_ultra_pulse,"ax",%progbits
 467              		.align	2
 468              		.global	send_ultra_pulse
 469              		.thumb
 470              		.thumb_func
ARM GAS  C:\Users\ANDREW~1\AppData\Local\Temp\ccwQPnwd.s 			page 22


 471              		.type	send_ultra_pulse, %function
 472              	send_ultra_pulse:
 473              	.LFB80:
 624:main.c        ****     Control_Reg_1_Write(1); // Reset counter to do more pulses
 474              		.loc 1 624 0
 475              		.cfi_startproc
 476              		@ args = 0, pretend = 0, frame = 0
 477              		@ frame_needed = 0, uses_anonymous_args = 0
 478 0000 08B5     		push	{r3, lr}
 479              		.cfi_def_cfa_offset 8
 480              		.cfi_offset 3, -8
 481              		.cfi_offset 14, -4
 625:main.c        ****     CyDelayUs(150);
 482              		.loc 1 625 0
 483 0002 0120     		movs	r0, #1
 484 0004 FFF7FEFF 		bl	Control_Reg_1_Write
 485              	.LVL45:
 626:main.c        ****     Control_Reg_1_Write(0);
 486              		.loc 1 626 0
 487 0008 9620     		movs	r0, #150
 488 000a FFF7FEFF 		bl	CyDelayUs
 489              	.LVL46:
 627:main.c        ****     
 490              		.loc 1 627 0
 491 000e 0020     		movs	r0, #0
 492 0010 FFF7FEFF 		bl	Control_Reg_1_Write
 493              	.LVL47:
 629:main.c        ****     
 494              		.loc 1 629 0
 495 0014 FFF7FEFF 		bl	Timer_1_Start
 496              	.LVL48:
 631:main.c        **** }
 497              		.loc 1 631 0
 498 0018 0122     		movs	r2, #1
 499 001a 014B     		ldr	r3, .L44
 500 001c 9A60     		str	r2, [r3, #8]
 501 001e 08BD     		pop	{r3, pc}
 502              	.L45:
 503              		.align	2
 504              	.L44:
 505 0020 00000000 		.word	.LANCHOR0
 506              		.cfi_endproc
 507              	.LFE80:
 508              		.size	send_ultra_pulse, .-send_ultra_pulse
 509              		.global	__aeabi_fadd
 510              		.global	__aeabi_f2d
 511              		.global	__aeabi_d2f
 512              		.section	.text.find_median,"ax",%progbits
 513              		.align	2
 514              		.global	find_median
 515              		.thumb
 516              		.thumb_func
 517              		.type	find_median, %function
 518              	find_median:
 519              	.LFB83:
 652:main.c        ****     double median;
 520              		.loc 1 652 0
ARM GAS  C:\Users\ANDREW~1\AppData\Local\Temp\ccwQPnwd.s 			page 23


 521              		.cfi_startproc
 522              		@ args = 0, pretend = 0, frame = 0
 523              		@ frame_needed = 0, uses_anonymous_args = 0
 524              	.LVL49:
 525 0000 70B5     		push	{r4, r5, r6, lr}
 526              		.cfi_def_cfa_offset 16
 527              		.cfi_offset 4, -16
 528              		.cfi_offset 5, -12
 529              		.cfi_offset 6, -8
 530              		.cfi_offset 14, -4
 531 0002 0546     		mov	r5, r0
 532 0004 0C46     		mov	r4, r1
 654:main.c        **** 
 533              		.loc 1 654 0
 534 0006 2D4B     		ldr	r3, .L50
 535 0008 0422     		movs	r2, #4
 536 000a FFF7FEFF 		bl	qsort
 537              	.LVL50:
 657:main.c        ****     {
 538              		.loc 1 657 0
 539 000e 14F0010F 		tst	r4, #1
 540 0012 23D1     		bne	.L47
 659:main.c        ****     }
 541              		.loc 1 659 0
 542 0014 04EBD474 		add	r4, r4, r4, lsr #31
 543              	.LVL51:
 544 0018 6410     		asrs	r4, r4, #1
 545 001a 04F18043 		add	r3, r4, #1073741824
 546 001e 023B     		subs	r3, r3, #2
 547 0020 04F18042 		add	r2, r4, #1073741824
 548 0024 013A     		subs	r2, r2, #1
 549 0026 55F82210 		ldr	r1, [r5, r2, lsl #2]	@ float
 550 002a 55F82300 		ldr	r0, [r5, r3, lsl #2]	@ float
 551 002e FFF7FEFF 		bl	__aeabi_fadd
 552              	.LVL52:
 553 0032 55F82410 		ldr	r1, [r5, r4, lsl #2]	@ float
 554 0036 FFF7FEFF 		bl	__aeabi_fadd
 555              	.LVL53:
 556 003a 631C     		adds	r3, r4, #1
 557 003c 55F82310 		ldr	r1, [r5, r3, lsl #2]	@ float
 558 0040 FFF7FEFF 		bl	__aeabi_fadd
 559              	.LVL54:
 560 0044 0234     		adds	r4, r4, #2
 561 0046 55F82410 		ldr	r1, [r5, r4, lsl #2]	@ float
 562 004a FFF7FEFF 		bl	__aeabi_fadd
 563              	.LVL55:
 564 004e FFF7FEFF 		bl	__aeabi_f2d
 565              	.LVL56:
 566 0052 0022     		movs	r2, #0
 567 0054 1A4B     		ldr	r3, .L50+4
 568 0056 FFF7FEFF 		bl	__aeabi_ddiv
 569              	.LVL57:
 570 005a 2BE0     		b	.L48
 571              	.LVL58:
 572              	.L47:
 664:main.c        ****     }
 573              		.loc 1 664 0
ARM GAS  C:\Users\ANDREW~1\AppData\Local\Temp\ccwQPnwd.s 			page 24


 574 005c 661E     		subs	r6, r4, #1
 575 005e 06EBD676 		add	r6, r6, r6, lsr #31
 576 0062 7610     		asrs	r6, r6, #1
 577 0064 06F18043 		add	r3, r6, #1073741824
 578 0068 023B     		subs	r3, r3, #2
 579 006a 06F18042 		add	r2, r6, #1073741824
 580 006e 013A     		subs	r2, r2, #1
 581 0070 55F82210 		ldr	r1, [r5, r2, lsl #2]	@ float
 582 0074 55F82300 		ldr	r0, [r5, r3, lsl #2]	@ float
 583 0078 FFF7FEFF 		bl	__aeabi_fadd
 584              	.LVL59:
 585 007c 55F82610 		ldr	r1, [r5, r6, lsl #2]	@ float
 586 0080 FFF7FEFF 		bl	__aeabi_fadd
 587              	.LVL60:
 588 0084 0134     		adds	r4, r4, #1
 589              	.LVL61:
 590 0086 04EBD474 		add	r4, r4, r4, lsr #31
 591              	.LVL62:
 592 008a 6410     		asrs	r4, r4, #1
 593 008c 55F82410 		ldr	r1, [r5, r4, lsl #2]	@ float
 594 0090 FFF7FEFF 		bl	__aeabi_fadd
 595              	.LVL63:
 596 0094 631C     		adds	r3, r4, #1
 597 0096 55F82310 		ldr	r1, [r5, r3, lsl #2]	@ float
 598 009a FFF7FEFF 		bl	__aeabi_fadd
 599              	.LVL64:
 600 009e 0234     		adds	r4, r4, #2
 601 00a0 55F82410 		ldr	r1, [r5, r4, lsl #2]	@ float
 602 00a4 FFF7FEFF 		bl	__aeabi_fadd
 603              	.LVL65:
 604 00a8 FFF7FEFF 		bl	__aeabi_f2d
 605              	.LVL66:
 606 00ac 0022     		movs	r2, #0
 607 00ae 054B     		ldr	r3, .L50+8
 608 00b0 FFF7FEFF 		bl	__aeabi_ddiv
 609              	.LVL67:
 610              	.L48:
 666:main.c        **** }
 611              		.loc 1 666 0
 612 00b4 FFF7FEFF 		bl	__aeabi_d2f
 613              	.LVL68:
 667:main.c        **** // ================================================================================================
 614              		.loc 1 667 0
 615 00b8 70BD     		pop	{r4, r5, r6, pc}
 616              	.LVL69:
 617              	.L51:
 618 00ba 00BF     		.align	2
 619              	.L50:
 620 00bc 00000000 		.word	compare_qsort
 621 00c0 00001440 		.word	1075052544
 622 00c4 00001840 		.word	1075314688
 623              		.cfi_endproc
 624              	.LFE83:
 625              		.size	find_median, .-find_median
 626              		.section	.text.ultra_avg,"ax",%progbits
 627              		.align	2
 628              		.global	ultra_avg
ARM GAS  C:\Users\ANDREW~1\AppData\Local\Temp\ccwQPnwd.s 			page 25


 629              		.thumb
 630              		.thumb_func
 631              		.type	ultra_avg, %function
 632              	ultra_avg:
 633              	.LFB78:
 560:main.c        ****  
 634              		.loc 1 560 0
 635              		.cfi_startproc
 636              		@ args = 0, pretend = 0, frame = 120
 637              		@ frame_needed = 0, uses_anonymous_args = 0
 638 0000 70B5     		push	{r4, r5, r6, lr}
 639              		.cfi_def_cfa_offset 16
 640              		.cfi_offset 4, -16
 641              		.cfi_offset 5, -12
 642              		.cfi_offset 6, -8
 643              		.cfi_offset 14, -4
 644 0002 9EB0     		sub	sp, sp, #120
 645              		.cfi_def_cfa_offset 136
 564:main.c        ****     float count_median[20] = {0,0,0,0,0,0,0,0,0,0,0,0,0,0,0,0,0,0,0,0};
 646              		.loc 1 564 0
 647 0004 2822     		movs	r2, #40
 648 0006 0021     		movs	r1, #0
 649 0008 14A8     		add	r0, sp, #80
 650 000a FFF7FEFF 		bl	memset
 651              	.LVL70:
 565:main.c        ****     double final_dist;
 652              		.loc 1 565 0
 653 000e 5022     		movs	r2, #80
 654 0010 0021     		movs	r1, #0
 655 0012 6846     		mov	r0, sp
 656 0014 FFF7FEFF 		bl	memset
 657              	.LVL71:
 658              	.LBB4:
 570:main.c        ****     {
 659              		.loc 1 570 0
 660 0018 0026     		movs	r6, #0
 661 001a 1CE0     		b	.L53
 662              	.LVL72:
 663              	.L54:
 664              	.LBB5:
 578:main.c        ****             
 665              		.loc 1 578 0 discriminator 3
 666 001c 134B     		ldr	r3, .L58
 667 001e D3E90601 		ldrd	r0, [r3, #24]
 668 0022 FFF7FEFF 		bl	BuzzerRuntime
 669              	.LVL73:
 582:main.c        ****         }
 670              		.loc 1 582 0 discriminator 3
 671 0026 FFF7FEFF 		bl	ultra_reading
 672              	.LVL74:
 673 002a 1EAB     		add	r3, sp, #120
 674 002c 03EB8405 		add	r5, r3, r4, lsl #2
 675 0030 FFF7FEFF 		bl	__aeabi_d2f
 676              	.LVL75:
 677 0034 45F8280C 		str	r0, [r5, #-40]	@ float
 576:main.c        ****         {    
 678              		.loc 1 576 0 discriminator 3
ARM GAS  C:\Users\ANDREW~1\AppData\Local\Temp\ccwQPnwd.s 			page 26


 679 0038 0134     		adds	r4, r4, #1
 680              	.LVL76:
 681 003a 00E0     		b	.L55
 682              	.LVL77:
 683              	.L56:
 684              	.LBE5:
 685 003c 0024     		movs	r4, #0
 686              	.L55:
 687              	.LVL78:
 688              	.LBB6:
 576:main.c        ****         {    
 689              		.loc 1 576 0 is_stmt 0 discriminator 1
 690 003e 092C     		cmp	r4, #9
 691 0040 ECDD     		ble	.L54
 692              	.LBE6:
 587:main.c        ****     }
 693              		.loc 1 587 0 is_stmt 1 discriminator 2
 694 0042 0A21     		movs	r1, #10
 695 0044 14A8     		add	r0, sp, #80
 696 0046 FFF7FEFF 		bl	find_median
 697              	.LVL79:
 698 004a 1EAB     		add	r3, sp, #120
 699 004c 03EB8603 		add	r3, r3, r6, lsl #2
 700 0050 43F8780C 		str	r0, [r3, #-120]	@ float
 570:main.c        ****     {
 701              		.loc 1 570 0 discriminator 2
 702 0054 0136     		adds	r6, r6, #1
 703              	.LVL80:
 704              	.L53:
 570:main.c        ****     {
 705              		.loc 1 570 0 is_stmt 0 discriminator 1
 706 0056 132E     		cmp	r6, #19
 707 0058 F0DD     		ble	.L56
 708              	.LBE4:
 590:main.c        ****     return final_dist;
 709              		.loc 1 590 0 is_stmt 1
 710 005a 1421     		movs	r1, #20
 711 005c 6846     		mov	r0, sp
 712 005e FFF7FEFF 		bl	find_median
 713              	.LVL81:
 714 0062 FFF7FEFF 		bl	__aeabi_f2d
 715              	.LVL82:
 592:main.c        **** 
 716              		.loc 1 592 0
 717 0066 1EB0     		add	sp, sp, #120
 718              		.cfi_def_cfa_offset 16
 719              		@ sp needed
 720 0068 70BD     		pop	{r4, r5, r6, pc}
 721              	.LVL83:
 722              	.L59:
 723 006a 00BF     		.align	2
 724              	.L58:
 725 006c 00000000 		.word	.LANCHOR0
 726              		.cfi_endproc
 727              	.LFE78:
 728              		.size	ultra_avg, .-ultra_avg
 729              		.section	.text.display_num,"ax",%progbits
ARM GAS  C:\Users\ANDREW~1\AppData\Local\Temp\ccwQPnwd.s 			page 27


 730              		.align	2
 731              		.global	display_num
 732              		.thumb
 733              		.thumb_func
 734              		.type	display_num, %function
 735              	display_num:
 736              	.LFB85:
 678:main.c        **** }
 679:main.c        **** 
 680:main.c        **** double old_dis_val=0;
 681:main.c        **** 
 682:main.c        **** int D[4]= {0,0,0,0};
 683:main.c        **** int dp[4]={0,0,0,0};
 684:main.c        **** unsigned long count = 0;
 685:main.c        **** 
 686:main.c        **** void display_num(double value)
 687:main.c        **** {
 737              		.loc 1 687 0
 738              		.cfi_startproc
 739              		@ args = 0, pretend = 0, frame = 0
 740              		@ frame_needed = 0, uses_anonymous_args = 0
 741              		@ link register save eliminated.
 742              	.LVL84:
 688:main.c        ****     seg_num = value;
 743              		.loc 1 688 0
 744 0000 014B     		ldr	r3, .L61
 745 0002 C3E90A01 		strd	r0, [r3, #40]
 746 0006 7047     		bx	lr
 747              	.L62:
 748              		.align	2
 749              	.L61:
 750 0008 00000000 		.word	.LANCHOR0
 751              		.cfi_endproc
 752              	.LFE85:
 753              		.size	display_num, .-display_num
 754              		.section	.text.clear_7_seg,"ax",%progbits
 755              		.align	2
 756              		.global	clear_7_seg
 757              		.thumb
 758              		.thumb_func
 759              		.type	clear_7_seg, %function
 760              	clear_7_seg:
 761              	.LFB87:
 689:main.c        **** }
 690:main.c        **** void seg_runtime(double value){
 691:main.c        ****       
 692:main.c        ****     if (run_7_Seg==0) return; // Ignore the rest of the code when interrupt is not triggered
 693:main.c        ****     
 694:main.c        ****     for (int i = 0; i < 4; ++i) dp[i] = 0; // Reset all 0 
 695:main.c        ****     if(value>0)
 696:main.c        ****     {
 697:main.c        ****     
 698:main.c        ****         //////////////// Code after this would only run once per interrupt////////////////
 699:main.c        ****         // Only update the value when it gets a new value (for consistency and save computation for
 700:main.c        ****         if((value != old_dis_val)){ 
 701:main.c        ****             // Convert double to d1,d2,d3,d4,dp_pos
 702:main.c        ****             int dp_pos = 0;
ARM GAS  C:\Users\ANDREW~1\AppData\Local\Temp\ccwQPnwd.s 			page 28


 703:main.c        ****             
 704:main.c        ****             if (value>=1){ // For values above 1
 705:main.c        ****             while(value<1000){
 706:main.c        ****                 value=value*10;
 707:main.c        ****                  dp_pos+=1;
 708:main.c        ****             }
 709:main.c        ****                     
 710:main.c        ****             // Extract integer and decimal parts
 711:main.c        ****             int digits = (int)value;
 712:main.c        ****                     
 713:main.c        ****             D[0] = (int)(digits/1000)%10;
 714:main.c        ****             D[1] = (int)(digits/100)%10;
 715:main.c        ****             D[2] = (int)(digits/10)%10;
 716:main.c        ****             D[3] = (int)(digits/1) %10;
 717:main.c        ****             }
 718:main.c        ****             else { //For below 1, fix decimal point to always show 4 significant figure (eg. 0.900,
 719:main.c        ****             dp_pos=3;
 720:main.c        ****             int digits = (int) (value*1000);
 721:main.c        ****                     
 722:main.c        ****             D[0] = (int)(digits/1000)%10;
 723:main.c        ****             D[1] = (int)(digits/100)%10;
 724:main.c        ****             D[2] = (int)(digits/10)%10;
 725:main.c        ****             D[3] = (int)(digits/1) %10;
 726:main.c        ****             }
 727:main.c        ****             
 728:main.c        ****         ////////////////////////////////////////////
 729:main.c        ****         // fill each segments of the display
 730:main.c        ****         for (int i = 0; i < 4; ++i) dp[i] = 0; // Reset all 0 
 731:main.c        ****             dp[dp_pos]=1;
 732:main.c        ****                 
 733:main.c        ****             old_dis_val = value;
 734:main.c        ****         }
 735:main.c        ****             
 736:main.c        ****     }
 737:main.c        ****     else if(value==0)
 738:main.c        ****     {
 739:main.c        ****         D[0] = 0; 
 740:main.c        ****         D[1] = 0;
 741:main.c        ****         D[2] = 0; 
 742:main.c        ****         D[3] = 0; 
 743:main.c        ****         dp[0]=1;
 744:main.c        ****     }
 745:main.c        ****     
 746:main.c        ****     else if(value== -1) //Show cm icon
 747:main.c        ****     {
 748:main.c        ****         D[0] = 15; //C
 749:main.c        ****         D[1] = 16; //E
 750:main.c        ****         D[2] = 18; //N
 751:main.c        ****         D[3] = 17; //t
 752:main.c        ****     }
 753:main.c        ****     else if(value== -2) //Show inch icon
 754:main.c        ****     {
 755:main.c        ****         D[0] = 13; //i 
 756:main.c        ****         D[1] = 12; //n 
 757:main.c        ****         D[2] = 11; //c
 758:main.c        ****         D[3] = 14; //h
 759:main.c        ****         
ARM GAS  C:\Users\ANDREW~1\AppData\Local\Temp\ccwQPnwd.s 			page 29


 760:main.c        ****     }
 761:main.c        ****     else if(value== -3) // Dot
 762:main.c        ****     {
 763:main.c        ****         D[0] = 10; //space
 764:main.c        ****         D[1] = 10; //space
 765:main.c        ****         D[2] = 10; //space
 766:main.c        ****         D[3] = 10; //space
 767:main.c        ****         dp[1]=1;
 768:main.c        ****     }
 769:main.c        ****     else if(value== -4) // Nothing
 770:main.c        ****     {
 771:main.c        ****         D[0] = 10; //space
 772:main.c        ****         D[1] = 10; //space
 773:main.c        ****         D[2] = 10; //space
 774:main.c        ****         D[3] = 10; //space
 775:main.c        ****         
 776:main.c        ****     }
 777:main.c        ****     else // reserve for startup
 778:main.c        ****     {
 779:main.c        ****         D[0] = 10; //space
 780:main.c        ****         D[1] = 10; //space
 781:main.c        ****         D[2] = 10; //space
 782:main.c        ****         D[3] = 10; //space
 783:main.c        ****         
 784:main.c        ****         if(value ==-5) D[0] = 8; 
 785:main.c        ****         if(value ==-6) D[1] = 8; 
 786:main.c        ****         if(value ==-7) D[2] = 8; 
 787:main.c        ****         if(value ==-8) D[3] = 8; 
 788:main.c        ****     }
 789:main.c        ****     
 790:main.c        ****         
 791:main.c        ****     
 792:main.c        ****     
 793:main.c        ****     // Loop through each display each time we run 7_seg display function
 794:main.c        ****     count++;
 795:main.c        ****     count = count %4; //limit count between 0 to 3
 796:main.c        ****         
 797:main.c        ****     // Turn off all sections
 798:main.c        ****     Dis_D1_Write(1);
 799:main.c        ****     Dis_D2_Write(1);
 800:main.c        ****     Dis_D3_Write(1);
 801:main.c        ****     Dis_D4_Write(1);
 802:main.c        ****         
 803:main.c        ****     // Update to show a specific value
 804:main.c        ****     draw_7Seg(D[count],dp[3-count]);
 805:main.c        ****         
 806:main.c        ****     // Only show on specified section
 807:main.c        ****     if     (count==0)Dis_D1_Write(0);
 808:main.c        ****     else if(count==1)Dis_D2_Write(0);
 809:main.c        ****     else if(count==2)Dis_D3_Write(0);
 810:main.c        ****     else if(count==3)Dis_D4_Write(0);
 811:main.c        ****     
 812:main.c        ****     run_7_Seg =0;
 813:main.c        ****     
 814:main.c        **** }
 815:main.c        **** 
 816:main.c        **** int clear_7_seg()
ARM GAS  C:\Users\ANDREW~1\AppData\Local\Temp\ccwQPnwd.s 			page 30


 817:main.c        **** {
 762              		.loc 1 817 0
 763              		.cfi_startproc
 764              		@ args = 0, pretend = 0, frame = 0
 765              		@ frame_needed = 0, uses_anonymous_args = 0
 766 0000 08B5     		push	{r3, lr}
 767              		.cfi_def_cfa_offset 8
 768              		.cfi_offset 3, -8
 769              		.cfi_offset 14, -4
 818:main.c        ****     // Turn off all sections
 819:main.c        ****     Dis_D1_Write(1);
 770              		.loc 1 819 0
 771 0002 0120     		movs	r0, #1
 772 0004 FFF7FEFF 		bl	Dis_D1_Write
 773              	.LVL85:
 820:main.c        ****     Dis_D2_Write(1);
 774              		.loc 1 820 0
 775 0008 0120     		movs	r0, #1
 776 000a FFF7FEFF 		bl	Dis_D2_Write
 777              	.LVL86:
 821:main.c        ****     Dis_D3_Write(1);
 778              		.loc 1 821 0
 779 000e 0120     		movs	r0, #1
 780 0010 FFF7FEFF 		bl	Dis_D3_Write
 781              	.LVL87:
 822:main.c        ****     Dis_D4_Write(1);
 782              		.loc 1 822 0
 783 0014 0120     		movs	r0, #1
 784 0016 FFF7FEFF 		bl	Dis_D4_Write
 785              	.LVL88:
 823:main.c        **** }
 786              		.loc 1 823 0
 787 001a 08BD     		pop	{r3, pc}
 788              		.cfi_endproc
 789              	.LFE87:
 790              		.size	clear_7_seg, .-clear_7_seg
 791              		.section	.text.draw_7Seg,"ax",%progbits
 792              		.align	2
 793              		.global	draw_7Seg
 794              		.thumb
 795              		.thumb_func
 796              		.type	draw_7Seg, %function
 797              	draw_7Seg:
 798              	.LFB88:
 824:main.c        **** 
 825:main.c        **** // ================================================================================================
 826:main.c        **** /* Low level 7 segment display conversion code*/
 827:main.c        **** // Lookup table for 0 to 9
 828:main.c        **** const char charLookup[][8] = {
 829:main.c        ****   "1111110", // 0
 830:main.c        ****   "0110000", // 1
 831:main.c        ****   "1101101", // 2
 832:main.c        ****   "1111001", // 3
 833:main.c        ****   "0110011", // 4
 834:main.c        ****   "1011011", // 5
 835:main.c        ****   "1011111", // 6
 836:main.c        ****   "1110000", // 7
ARM GAS  C:\Users\ANDREW~1\AppData\Local\Temp\ccwQPnwd.s 			page 31


 837:main.c        ****   "1111111", // 8
 838:main.c        ****   "1111011", // 9
 839:main.c        ****   "0000000", // Space - 10
 840:main.c        ****   "0001101", // c -11
 841:main.c        ****   "0010101", // n -12
 842:main.c        ****   "0010000", // i -13
 843:main.c        ****   "0010111", // h -14
 844:main.c        ****   "1001110", // big C -15
 845:main.c        ****   "1001111", // big E -16
 846:main.c        ****   "0001111", // t -17
 847:main.c        ****   "1110110", // big N -18
 848:main.c        **** };
 849:main.c        **** 
 850:main.c        **** // update pins to show a specific number and turn on the decimal point if required
 851:main.c        **** int segmentPattern_array[7];  // Array to store the converted 1s and 0s (7 elements for 7 segments)
 852:main.c        **** void draw_7Seg(int number,int dp)
 853:main.c        **** {
 799              		.loc 1 853 0
 800              		.cfi_startproc
 801              		@ args = 0, pretend = 0, frame = 0
 802              		@ frame_needed = 0, uses_anonymous_args = 0
 803              	.LVL89:
 804 0000 38B5     		push	{r3, r4, r5, lr}
 805              		.cfi_def_cfa_offset 16
 806              		.cfi_offset 3, -16
 807              		.cfi_offset 4, -12
 808              		.cfi_offset 5, -8
 809              		.cfi_offset 14, -4
 810 0002 0D46     		mov	r5, r1
 854:main.c        ****     const char* segmentPattern = charLookup[number];
 811              		.loc 1 854 0
 812 0004 1E4B     		ldr	r3, .L69
 813 0006 03EBC000 		add	r0, r3, r0, lsl #3
 814              	.LVL90:
 815              	.LBB7:
 855:main.c        ****     
 856:main.c        ****     // Convert string to integer
 857:main.c        ****     for (int i = 0; i < 7; i++) {
 816              		.loc 1 857 0
 817 000a 0023     		movs	r3, #0
 818 000c 05E0     		b	.L66
 819              	.LVL91:
 820              	.L67:
 858:main.c        ****         segmentPattern_array[i] = segmentPattern[i]-'0';
 821              		.loc 1 858 0 discriminator 3
 822 000e C25C     		ldrb	r2, [r0, r3]	@ zero_extendqisi2
 823 0010 303A     		subs	r2, r2, #48
 824 0012 1C49     		ldr	r1, .L69+4
 825 0014 41F82320 		str	r2, [r1, r3, lsl #2]
 857:main.c        ****         segmentPattern_array[i] = segmentPattern[i]-'0';
 826              		.loc 1 857 0 discriminator 3
 827 0018 0133     		adds	r3, r3, #1
 828              	.LVL92:
 829              	.L66:
 857:main.c        ****         segmentPattern_array[i] = segmentPattern[i]-'0';
 830              		.loc 1 857 0 is_stmt 0 discriminator 1
 831 001a 062B     		cmp	r3, #6
ARM GAS  C:\Users\ANDREW~1\AppData\Local\Temp\ccwQPnwd.s 			page 32


 832 001c F7DD     		ble	.L67
 833              	.LBE7:
 859:main.c        ****     }
 860:main.c        ****     
 861:main.c        ****     Dis_A_Write(!segmentPattern_array[0]);
 834              		.loc 1 861 0 is_stmt 1
 835 001e 194C     		ldr	r4, .L69+4
 836 0020 2068     		ldr	r0, [r4]
 837              	.LVL93:
 838 0022 B0FA80F0 		clz	r0, r0
 839 0026 4009     		lsrs	r0, r0, #5
 840 0028 FFF7FEFF 		bl	Dis_A_Write
 841              	.LVL94:
 862:main.c        ****     Dis_B_Write(!segmentPattern_array[1]);
 842              		.loc 1 862 0
 843 002c 6068     		ldr	r0, [r4, #4]
 844 002e B0FA80F0 		clz	r0, r0
 845 0032 4009     		lsrs	r0, r0, #5
 846 0034 FFF7FEFF 		bl	Dis_B_Write
 847              	.LVL95:
 863:main.c        ****     Dis_C_Write(!segmentPattern_array[2]);
 848              		.loc 1 863 0
 849 0038 A068     		ldr	r0, [r4, #8]
 850 003a B0FA80F0 		clz	r0, r0
 851 003e 4009     		lsrs	r0, r0, #5
 852 0040 FFF7FEFF 		bl	Dis_C_Write
 853              	.LVL96:
 864:main.c        ****     Dis_D_Write(!segmentPattern_array[3]);
 854              		.loc 1 864 0
 855 0044 E068     		ldr	r0, [r4, #12]
 856 0046 B0FA80F0 		clz	r0, r0
 857 004a 4009     		lsrs	r0, r0, #5
 858 004c FFF7FEFF 		bl	Dis_D_Write
 859              	.LVL97:
 865:main.c        ****     Dis_E_Write(!segmentPattern_array[4]);
 860              		.loc 1 865 0
 861 0050 2069     		ldr	r0, [r4, #16]
 862 0052 B0FA80F0 		clz	r0, r0
 863 0056 4009     		lsrs	r0, r0, #5
 864 0058 FFF7FEFF 		bl	Dis_E_Write
 865              	.LVL98:
 866:main.c        ****     Dis_F_Write(!segmentPattern_array[5]);
 866              		.loc 1 866 0
 867 005c 6069     		ldr	r0, [r4, #20]
 868 005e B0FA80F0 		clz	r0, r0
 869 0062 4009     		lsrs	r0, r0, #5
 870 0064 FFF7FEFF 		bl	Dis_F_Write
 871              	.LVL99:
 867:main.c        ****     Dis_G_Write(!segmentPattern_array[6]);
 872              		.loc 1 867 0
 873 0068 A069     		ldr	r0, [r4, #24]
 874 006a B0FA80F0 		clz	r0, r0
 875 006e 4009     		lsrs	r0, r0, #5
 876 0070 FFF7FEFF 		bl	Dis_G_Write
 877              	.LVL100:
 868:main.c        ****     Dis_DP_Write(!dp);
 878              		.loc 1 868 0
ARM GAS  C:\Users\ANDREW~1\AppData\Local\Temp\ccwQPnwd.s 			page 33


 879 0074 B5FA85F0 		clz	r0, r5
 880 0078 4009     		lsrs	r0, r0, #5
 881 007a FFF7FEFF 		bl	Dis_DP_Write
 882              	.LVL101:
 883 007e 38BD     		pop	{r3, r4, r5, pc}
 884              	.LVL102:
 885              	.L70:
 886              		.align	2
 887              	.L69:
 888 0080 00000000 		.word	.LANCHOR1
 889 0084 00000000 		.word	segmentPattern_array
 890              		.cfi_endproc
 891              	.LFE88:
 892              		.size	draw_7Seg, .-draw_7Seg
 893              		.global	__aeabi_dcmpgt
 894              		.global	__aeabi_dcmpeq
 895              		.global	__aeabi_dcmpge
 896              		.global	__aeabi_d2iz
 897              		.section	.text.seg_runtime,"ax",%progbits
 898              		.align	2
 899              		.global	seg_runtime
 900              		.thumb
 901              		.thumb_func
 902              		.type	seg_runtime, %function
 903              	seg_runtime:
 904              	.LFB86:
 690:main.c        ****       
 905              		.loc 1 690 0
 906              		.cfi_startproc
 907              		@ args = 0, pretend = 0, frame = 0
 908              		@ frame_needed = 0, uses_anonymous_args = 0
 909              	.LVL103:
 910 0000 F8B5     		push	{r3, r4, r5, r6, r7, lr}
 911              		.cfi_def_cfa_offset 24
 912              		.cfi_offset 3, -24
 913              		.cfi_offset 4, -20
 914              		.cfi_offset 5, -16
 915              		.cfi_offset 6, -12
 916              		.cfi_offset 7, -8
 917              		.cfi_offset 14, -4
 692:main.c        ****     
 918              		.loc 1 692 0
 919 0002 B54B     		ldr	r3, .L126
 920 0004 1B68     		ldr	r3, [r3]
 921 0006 002B     		cmp	r3, #0
 922 0008 00F09681 		beq	.L71
 923 000c 0446     		mov	r4, r0
 924 000e 0D46     		mov	r5, r1
 925 0010 0023     		movs	r3, #0
 926 0012 05E0     		b	.L73
 927              	.LVL104:
 928              	.L74:
 929              	.LBB8:
 694:main.c        ****     if(value>0)
 930              		.loc 1 694 0 discriminator 3
 931 0014 B04A     		ldr	r2, .L126
 932 0016 02EB8302 		add	r2, r2, r3, lsl #2
ARM GAS  C:\Users\ANDREW~1\AppData\Local\Temp\ccwQPnwd.s 			page 34


 933 001a 0021     		movs	r1, #0
 934 001c 1163     		str	r1, [r2, #48]
 935 001e 0133     		adds	r3, r3, #1
 936              	.LVL105:
 937              	.L73:
 694:main.c        ****     if(value>0)
 938              		.loc 1 694 0 is_stmt 0 discriminator 1
 939 0020 032B     		cmp	r3, #3
 940 0022 F7DD     		ble	.L74
 941              	.LBE8:
 695:main.c        ****     {
 942              		.loc 1 695 0 is_stmt 1
 943 0024 0022     		movs	r2, #0
 944 0026 0023     		movs	r3, #0
 945              	.LVL106:
 946 0028 2046     		mov	r0, r4
 947              	.LVL107:
 948 002a 2946     		mov	r1, r5
 949 002c FFF7FEFF 		bl	__aeabi_dcmpgt
 950              	.LVL108:
 951 0030 0028     		cmp	r0, #0
 952 0032 00F0AE80 		beq	.L118
 700:main.c        ****             // Convert double to d1,d2,d3,d4,dp_pos
 953              		.loc 1 700 0
 954 0036 A84B     		ldr	r3, .L126
 955 0038 D3E91023 		ldrd	r2, [r3, #64]
 956 003c 2046     		mov	r0, r4
 957 003e 2946     		mov	r1, r5
 958 0040 FFF7FEFF 		bl	__aeabi_dcmpeq
 959              	.LVL109:
 960 0044 0028     		cmp	r0, #0
 961 0046 40F02381 		bne	.L77
 962              	.LVL110:
 963              	.LBB9:
 704:main.c        ****             while(value<1000){
 964              		.loc 1 704 0
 965 004a 0022     		movs	r2, #0
 966 004c A34B     		ldr	r3, .L126+4
 967 004e 2046     		mov	r0, r4
 968 0050 2946     		mov	r1, r5
 969 0052 FFF7FEFF 		bl	__aeabi_dcmpge
 970              	.LVL111:
 971 0056 50B9     		cbnz	r0, .L106
 972 0058 4CE0     		b	.L119
 973              	.LVL112:
 974              	.L81:
 975              	.LBB10:
 706:main.c        ****                  dp_pos+=1;
 976              		.loc 1 706 0
 977 005a 0022     		movs	r2, #0
 978 005c A04B     		ldr	r3, .L126+8
 979 005e 2046     		mov	r0, r4
 980 0060 2946     		mov	r1, r5
 981 0062 FFF7FEFF 		bl	__aeabi_dmul
 982              	.LVL113:
 983 0066 0446     		mov	r4, r0
 984              	.LVL114:
ARM GAS  C:\Users\ANDREW~1\AppData\Local\Temp\ccwQPnwd.s 			page 35


 985 0068 0D46     		mov	r5, r1
 986              	.LVL115:
 707:main.c        ****             }
 987              		.loc 1 707 0
 988 006a 0136     		adds	r6, r6, #1
 989              	.LVL116:
 990 006c 00E0     		b	.L79
 991              	.LVL117:
 992              	.L106:
 993              	.LBE10:
 994 006e 0026     		movs	r6, #0
 995              	.LVL118:
 996              	.L79:
 997              	.LBB11:
 705:main.c        ****                 value=value*10;
 998              		.loc 1 705 0
 999 0070 0022     		movs	r2, #0
 1000 0072 9C4B     		ldr	r3, .L126+12
 1001 0074 2046     		mov	r0, r4
 1002 0076 2946     		mov	r1, r5
 1003 0078 FFF7FEFF 		bl	__aeabi_dcmplt
 1004              	.LVL119:
 1005 007c 0028     		cmp	r0, #0
 1006 007e ECD1     		bne	.L81
 711:main.c        ****                     
 1007              		.loc 1 711 0
 1008 0080 2046     		mov	r0, r4
 1009 0082 2946     		mov	r1, r5
 1010 0084 FFF7FEFF 		bl	__aeabi_d2iz
 1011              	.LVL120:
 713:main.c        ****             D[1] = (int)(digits/100)%10;
 1012              		.loc 1 713 0
 1013 0088 974F     		ldr	r7, .L126+16
 1014 008a 87FB0037 		smull	r3, r7, r7, r0
 1015 008e C317     		asrs	r3, r0, #31
 1016 0090 C3EBA717 		rsb	r7, r3, r7, asr #6
 1017 0094 954A     		ldr	r2, .L126+20
 1018 0096 82FB071E 		smull	r1, lr, r2, r7
 1019 009a F917     		asrs	r1, r7, #31
 1020 009c C1EBAE01 		rsb	r1, r1, lr, asr #2
 1021 00a0 01EB8101 		add	r1, r1, r1, lsl #2
 1022 00a4 A7EB4101 		sub	r1, r7, r1, lsl #1
 1023 00a8 8B4F     		ldr	r7, .L126
 1024 00aa B964     		str	r1, [r7, #72]
 714:main.c        ****             D[2] = (int)(digits/10)%10;
 1025              		.loc 1 714 0
 1026 00ac 9049     		ldr	r1, .L126+24
 1027 00ae 81FB001E 		smull	r1, lr, r1, r0
 1028 00b2 C3EB6E1E 		rsb	lr, r3, lr, asr #5
 1029 00b6 82FB0E1C 		smull	r1, ip, r2, lr
 1030 00ba 4FEAEE71 		asr	r1, lr, #31
 1031 00be C1EBAC01 		rsb	r1, r1, ip, asr #2
 1032 00c2 01EB8101 		add	r1, r1, r1, lsl #2
 1033 00c6 AEEB4101 		sub	r1, lr, r1, lsl #1
 1034 00ca F964     		str	r1, [r7, #76]
 715:main.c        ****             D[3] = (int)(digits/1) %10;
 1035              		.loc 1 715 0
ARM GAS  C:\Users\ANDREW~1\AppData\Local\Temp\ccwQPnwd.s 			page 36


 1036 00cc 82FB00E1 		smull	lr, r1, r2, r0
 1037 00d0 C3EBA103 		rsb	r3, r3, r1, asr #2
 1038 00d4 82FB0321 		smull	r2, r1, r2, r3
 1039 00d8 DA17     		asrs	r2, r3, #31
 1040 00da C2EBA102 		rsb	r2, r2, r1, asr #2
 1041 00de 02EB8202 		add	r2, r2, r2, lsl #2
 1042 00e2 A3EB4202 		sub	r2, r3, r2, lsl #1
 1043 00e6 3A65     		str	r2, [r7, #80]
 716:main.c        ****             }
 1044              		.loc 1 716 0
 1045 00e8 03EB8303 		add	r3, r3, r3, lsl #2
 1046 00ec A0EB4303 		sub	r3, r0, r3, lsl #1
 1047 00f0 7B65     		str	r3, [r7, #84]
 1048              	.LBE11:
 1049 00f2 3CE0     		b	.L82
 1050              	.LVL121:
 1051              	.L119:
 1052              	.LBB12:
 720:main.c        ****                     
 1053              		.loc 1 720 0
 1054 00f4 0022     		movs	r2, #0
 1055 00f6 7B4B     		ldr	r3, .L126+12
 1056 00f8 2046     		mov	r0, r4
 1057 00fa 2946     		mov	r1, r5
 1058 00fc FFF7FEFF 		bl	__aeabi_dmul
 1059              	.LVL122:
 1060 0100 FFF7FEFF 		bl	__aeabi_d2iz
 1061              	.LVL123:
 722:main.c        ****             D[1] = (int)(digits/100)%10;
 1062              		.loc 1 722 0
 1063 0104 784E     		ldr	r6, .L126+16
 1064 0106 86FB0036 		smull	r3, r6, r6, r0
 1065 010a C317     		asrs	r3, r0, #31
 1066 010c C3EBA616 		rsb	r6, r3, r6, asr #6
 1067 0110 764A     		ldr	r2, .L126+20
 1068 0112 82FB0617 		smull	r1, r7, r2, r6
 1069 0116 F117     		asrs	r1, r6, #31
 1070 0118 C1EBA701 		rsb	r1, r1, r7, asr #2
 1071 011c 01EB8101 		add	r1, r1, r1, lsl #2
 1072 0120 A6EB4101 		sub	r1, r6, r1, lsl #1
 1073 0124 6C4E     		ldr	r6, .L126
 1074 0126 B164     		str	r1, [r6, #72]
 723:main.c        ****             D[2] = (int)(digits/10)%10;
 1075              		.loc 1 723 0
 1076 0128 714F     		ldr	r7, .L126+24
 1077 012a 87FB0017 		smull	r1, r7, r7, r0
 1078 012e C3EB6717 		rsb	r7, r3, r7, asr #5
 1079 0132 82FB071E 		smull	r1, lr, r2, r7
 1080 0136 F917     		asrs	r1, r7, #31
 1081 0138 C1EBAE01 		rsb	r1, r1, lr, asr #2
 1082 013c 01EB8101 		add	r1, r1, r1, lsl #2
 1083 0140 A7EB4101 		sub	r1, r7, r1, lsl #1
 1084 0144 F164     		str	r1, [r6, #76]
 724:main.c        ****             D[3] = (int)(digits/1) %10;
 1085              		.loc 1 724 0
 1086 0146 82FB0071 		smull	r7, r1, r2, r0
 1087 014a C3EBA103 		rsb	r3, r3, r1, asr #2
ARM GAS  C:\Users\ANDREW~1\AppData\Local\Temp\ccwQPnwd.s 			page 37


 1088 014e 82FB0321 		smull	r2, r1, r2, r3
 1089 0152 DA17     		asrs	r2, r3, #31
 1090 0154 C2EBA102 		rsb	r2, r2, r1, asr #2
 1091 0158 02EB8202 		add	r2, r2, r2, lsl #2
 1092 015c A3EB4202 		sub	r2, r3, r2, lsl #1
 1093 0160 3265     		str	r2, [r6, #80]
 725:main.c        ****             }
 1094              		.loc 1 725 0
 1095 0162 03EB8303 		add	r3, r3, r3, lsl #2
 1096 0166 A0EB4303 		sub	r3, r0, r3, lsl #1
 1097 016a 7365     		str	r3, [r6, #84]
 719:main.c        ****             int digits = (int) (value*1000);
 1098              		.loc 1 719 0
 1099 016c 0326     		movs	r6, #3
 1100              	.LVL124:
 1101              	.L82:
 1102              	.LBE12:
 1103              	.LBB13:
 730:main.c        ****             dp[dp_pos]=1;
 1104              		.loc 1 730 0
 1105 016e 0023     		movs	r3, #0
 1106 0170 05E0     		b	.L83
 1107              	.LVL125:
 1108              	.L84:
 730:main.c        ****             dp[dp_pos]=1;
 1109              		.loc 1 730 0 is_stmt 0 discriminator 3
 1110 0172 594A     		ldr	r2, .L126
 1111 0174 02EB8302 		add	r2, r2, r3, lsl #2
 1112 0178 0021     		movs	r1, #0
 1113 017a 1163     		str	r1, [r2, #48]
 1114 017c 0133     		adds	r3, r3, #1
 1115              	.LVL126:
 1116              	.L83:
 730:main.c        ****             dp[dp_pos]=1;
 1117              		.loc 1 730 0 discriminator 1
 1118 017e 032B     		cmp	r3, #3
 1119 0180 F7DD     		ble	.L84
 1120              	.LBE13:
 731:main.c        ****                 
 1121              		.loc 1 731 0 is_stmt 1
 1122 0182 554B     		ldr	r3, .L126
 1123              	.LVL127:
 1124 0184 03EB8606 		add	r6, r3, r6, lsl #2
 1125              	.LVL128:
 1126 0188 0122     		movs	r2, #1
 1127 018a 3263     		str	r2, [r6, #48]
 733:main.c        ****         }
 1128              		.loc 1 733 0
 1129 018c C3E91045 		strd	r4, [r3, #64]
 1130 0190 7EE0     		b	.L77
 1131              	.LVL129:
 1132              	.L118:
 1133              	.LBE9:
 737:main.c        ****     {
 1134              		.loc 1 737 0
 1135 0192 0022     		movs	r2, #0
 1136 0194 0023     		movs	r3, #0
ARM GAS  C:\Users\ANDREW~1\AppData\Local\Temp\ccwQPnwd.s 			page 38


 1137 0196 2046     		mov	r0, r4
 1138 0198 2946     		mov	r1, r5
 1139 019a FFF7FEFF 		bl	__aeabi_dcmpeq
 1140              	.LVL130:
 1141 019e 40B1     		cbz	r0, .L120
 739:main.c        ****         D[1] = 0;
 1142              		.loc 1 739 0
 1143 01a0 4D4B     		ldr	r3, .L126
 1144 01a2 0022     		movs	r2, #0
 1145 01a4 9A64     		str	r2, [r3, #72]
 740:main.c        ****         D[2] = 0; 
 1146              		.loc 1 740 0
 1147 01a6 DA64     		str	r2, [r3, #76]
 741:main.c        ****         D[3] = 0; 
 1148              		.loc 1 741 0
 1149 01a8 1A65     		str	r2, [r3, #80]
 742:main.c        ****         dp[0]=1;
 1150              		.loc 1 742 0
 1151 01aa 5A65     		str	r2, [r3, #84]
 743:main.c        ****     }
 1152              		.loc 1 743 0
 1153 01ac 0122     		movs	r2, #1
 1154 01ae 1A63     		str	r2, [r3, #48]
 1155 01b0 6EE0     		b	.L77
 1156              	.L120:
 746:main.c        ****     {
 1157              		.loc 1 746 0
 1158 01b2 0022     		movs	r2, #0
 1159 01b4 4F4B     		ldr	r3, .L126+28
 1160 01b6 2046     		mov	r0, r4
 1161 01b8 2946     		mov	r1, r5
 1162 01ba FFF7FEFF 		bl	__aeabi_dcmpeq
 1163              	.LVL131:
 1164 01be 48B1     		cbz	r0, .L121
 748:main.c        ****         D[1] = 16; //E
 1165              		.loc 1 748 0
 1166 01c0 454B     		ldr	r3, .L126
 1167 01c2 0F22     		movs	r2, #15
 1168 01c4 9A64     		str	r2, [r3, #72]
 749:main.c        ****         D[2] = 18; //N
 1169              		.loc 1 749 0
 1170 01c6 1022     		movs	r2, #16
 1171 01c8 DA64     		str	r2, [r3, #76]
 750:main.c        ****         D[3] = 17; //t
 1172              		.loc 1 750 0
 1173 01ca 1222     		movs	r2, #18
 1174 01cc 1A65     		str	r2, [r3, #80]
 751:main.c        ****     }
 1175              		.loc 1 751 0
 1176 01ce 1122     		movs	r2, #17
 1177 01d0 5A65     		str	r2, [r3, #84]
 1178 01d2 5DE0     		b	.L77
 1179              	.L121:
 753:main.c        ****     {
 1180              		.loc 1 753 0
 1181 01d4 0022     		movs	r2, #0
 1182 01d6 4FF04043 		mov	r3, #-1073741824
ARM GAS  C:\Users\ANDREW~1\AppData\Local\Temp\ccwQPnwd.s 			page 39


 1183 01da 2046     		mov	r0, r4
 1184 01dc 2946     		mov	r1, r5
 1185 01de FFF7FEFF 		bl	__aeabi_dcmpeq
 1186              	.LVL132:
 1187 01e2 48B1     		cbz	r0, .L122
 755:main.c        ****         D[1] = 12; //n 
 1188              		.loc 1 755 0
 1189 01e4 3C4B     		ldr	r3, .L126
 1190 01e6 0D22     		movs	r2, #13
 1191 01e8 9A64     		str	r2, [r3, #72]
 756:main.c        ****         D[2] = 11; //c
 1192              		.loc 1 756 0
 1193 01ea 0C22     		movs	r2, #12
 1194 01ec DA64     		str	r2, [r3, #76]
 757:main.c        ****         D[3] = 14; //h
 1195              		.loc 1 757 0
 1196 01ee 0B22     		movs	r2, #11
 1197 01f0 1A65     		str	r2, [r3, #80]
 758:main.c        ****         
 1198              		.loc 1 758 0
 1199 01f2 0E22     		movs	r2, #14
 1200 01f4 5A65     		str	r2, [r3, #84]
 1201 01f6 4BE0     		b	.L77
 1202              	.L122:
 761:main.c        ****     {
 1203              		.loc 1 761 0
 1204 01f8 0022     		movs	r2, #0
 1205 01fa 3F4B     		ldr	r3, .L126+32
 1206 01fc 2046     		mov	r0, r4
 1207 01fe 2946     		mov	r1, r5
 1208 0200 FFF7FEFF 		bl	__aeabi_dcmpeq
 1209              	.LVL133:
 1210 0204 40B1     		cbz	r0, .L123
 763:main.c        ****         D[1] = 10; //space
 1211              		.loc 1 763 0
 1212 0206 344B     		ldr	r3, .L126
 1213 0208 0A22     		movs	r2, #10
 1214 020a 9A64     		str	r2, [r3, #72]
 764:main.c        ****         D[2] = 10; //space
 1215              		.loc 1 764 0
 1216 020c DA64     		str	r2, [r3, #76]
 765:main.c        ****         D[3] = 10; //space
 1217              		.loc 1 765 0
 1218 020e 1A65     		str	r2, [r3, #80]
 766:main.c        ****         dp[1]=1;
 1219              		.loc 1 766 0
 1220 0210 5A65     		str	r2, [r3, #84]
 767:main.c        ****     }
 1221              		.loc 1 767 0
 1222 0212 0122     		movs	r2, #1
 1223 0214 5A63     		str	r2, [r3, #52]
 1224 0216 3BE0     		b	.L77
 1225              	.L123:
 769:main.c        ****     {
 1226              		.loc 1 769 0
 1227 0218 0022     		movs	r2, #0
 1228 021a 384B     		ldr	r3, .L126+36
ARM GAS  C:\Users\ANDREW~1\AppData\Local\Temp\ccwQPnwd.s 			page 40


 1229 021c 2046     		mov	r0, r4
 1230 021e 2946     		mov	r1, r5
 1231 0220 FFF7FEFF 		bl	__aeabi_dcmpeq
 1232              	.LVL134:
 1233 0224 30B1     		cbz	r0, .L124
 771:main.c        ****         D[1] = 10; //space
 1234              		.loc 1 771 0
 1235 0226 2C4B     		ldr	r3, .L126
 1236 0228 0A22     		movs	r2, #10
 1237 022a 9A64     		str	r2, [r3, #72]
 772:main.c        ****         D[2] = 10; //space
 1238              		.loc 1 772 0
 1239 022c DA64     		str	r2, [r3, #76]
 773:main.c        ****         D[3] = 10; //space
 1240              		.loc 1 773 0
 1241 022e 1A65     		str	r2, [r3, #80]
 774:main.c        ****         
 1242              		.loc 1 774 0
 1243 0230 5A65     		str	r2, [r3, #84]
 1244 0232 2DE0     		b	.L77
 1245              	.L124:
 779:main.c        ****         D[1] = 10; //space
 1246              		.loc 1 779 0
 1247 0234 284B     		ldr	r3, .L126
 1248 0236 0A22     		movs	r2, #10
 1249 0238 9A64     		str	r2, [r3, #72]
 780:main.c        ****         D[2] = 10; //space
 1250              		.loc 1 780 0
 1251 023a DA64     		str	r2, [r3, #76]
 781:main.c        ****         D[3] = 10; //space
 1252              		.loc 1 781 0
 1253 023c 1A65     		str	r2, [r3, #80]
 782:main.c        ****         
 1254              		.loc 1 782 0
 1255 023e 5A65     		str	r2, [r3, #84]
 784:main.c        ****         if(value ==-6) D[1] = 8; 
 1256              		.loc 1 784 0
 1257 0240 0022     		movs	r2, #0
 1258 0242 2F4B     		ldr	r3, .L126+40
 1259 0244 2046     		mov	r0, r4
 1260 0246 2946     		mov	r1, r5
 1261 0248 FFF7FEFF 		bl	__aeabi_dcmpeq
 1262              	.LVL135:
 1263 024c 10B1     		cbz	r0, .L95
 784:main.c        ****         if(value ==-6) D[1] = 8; 
 1264              		.loc 1 784 0 is_stmt 0 discriminator 1
 1265 024e 0822     		movs	r2, #8
 1266 0250 214B     		ldr	r3, .L126
 1267 0252 9A64     		str	r2, [r3, #72]
 1268              	.L95:
 785:main.c        ****         if(value ==-7) D[2] = 8; 
 1269              		.loc 1 785 0 is_stmt 1
 1270 0254 0022     		movs	r2, #0
 1271 0256 2B4B     		ldr	r3, .L126+44
 1272 0258 2046     		mov	r0, r4
 1273 025a 2946     		mov	r1, r5
 1274 025c FFF7FEFF 		bl	__aeabi_dcmpeq
ARM GAS  C:\Users\ANDREW~1\AppData\Local\Temp\ccwQPnwd.s 			page 41


 1275              	.LVL136:
 1276 0260 10B1     		cbz	r0, .L97
 785:main.c        ****         if(value ==-7) D[2] = 8; 
 1277              		.loc 1 785 0 is_stmt 0 discriminator 1
 1278 0262 0822     		movs	r2, #8
 1279 0264 1C4B     		ldr	r3, .L126
 1280 0266 DA64     		str	r2, [r3, #76]
 1281              	.L97:
 786:main.c        ****         if(value ==-8) D[3] = 8; 
 1282              		.loc 1 786 0 is_stmt 1
 1283 0268 0022     		movs	r2, #0
 1284 026a 274B     		ldr	r3, .L126+48
 1285 026c 2046     		mov	r0, r4
 1286 026e 2946     		mov	r1, r5
 1287 0270 FFF7FEFF 		bl	__aeabi_dcmpeq
 1288              	.LVL137:
 1289 0274 10B1     		cbz	r0, .L99
 786:main.c        ****         if(value ==-8) D[3] = 8; 
 1290              		.loc 1 786 0 is_stmt 0 discriminator 1
 1291 0276 0822     		movs	r2, #8
 1292 0278 174B     		ldr	r3, .L126
 1293 027a 1A65     		str	r2, [r3, #80]
 1294              	.L99:
 787:main.c        ****     }
 1295              		.loc 1 787 0 is_stmt 1
 1296 027c 0022     		movs	r2, #0
 1297 027e 234B     		ldr	r3, .L126+52
 1298 0280 2046     		mov	r0, r4
 1299 0282 2946     		mov	r1, r5
 1300 0284 FFF7FEFF 		bl	__aeabi_dcmpeq
 1301              	.LVL138:
 1302 0288 10B1     		cbz	r0, .L77
 787:main.c        ****     }
 1303              		.loc 1 787 0 is_stmt 0 discriminator 1
 1304 028a 0822     		movs	r2, #8
 1305 028c 124B     		ldr	r3, .L126
 1306 028e 5A65     		str	r2, [r3, #84]
 1307              	.LVL139:
 1308              	.L77:
 794:main.c        ****     count = count %4; //limit count between 0 to 3
 1309              		.loc 1 794 0 is_stmt 1
 1310 0290 114C     		ldr	r4, .L126
 1311 0292 A36D     		ldr	r3, [r4, #88]
 1312 0294 0133     		adds	r3, r3, #1
 795:main.c        ****         
 1313              		.loc 1 795 0
 1314 0296 03F00303 		and	r3, r3, #3
 1315 029a A365     		str	r3, [r4, #88]
 798:main.c        ****     Dis_D2_Write(1);
 1316              		.loc 1 798 0
 1317 029c 0120     		movs	r0, #1
 1318 029e FFF7FEFF 		bl	Dis_D1_Write
 1319              	.LVL140:
 799:main.c        ****     Dis_D3_Write(1);
 1320              		.loc 1 799 0
 1321 02a2 0120     		movs	r0, #1
 1322 02a4 FFF7FEFF 		bl	Dis_D2_Write
ARM GAS  C:\Users\ANDREW~1\AppData\Local\Temp\ccwQPnwd.s 			page 42


 1323              	.LVL141:
 800:main.c        ****     Dis_D4_Write(1);
 1324              		.loc 1 800 0
 1325 02a8 0120     		movs	r0, #1
 1326 02aa FFF7FEFF 		bl	Dis_D3_Write
 1327              	.LVL142:
 801:main.c        ****         
 1328              		.loc 1 801 0
 1329 02ae 0120     		movs	r0, #1
 1330 02b0 FFF7FEFF 		bl	Dis_D4_Write
 1331              	.LVL143:
 804:main.c        ****         
 1332              		.loc 1 804 0
 1333 02b4 A36D     		ldr	r3, [r4, #88]
 1334 02b6 C3F10302 		rsb	r2, r3, #3
 1335 02ba 04EB8202 		add	r2, r4, r2, lsl #2
 1336 02be 04EB8303 		add	r3, r4, r3, lsl #2
 1337 02c2 116B     		ldr	r1, [r2, #48]
 1338 02c4 986C     		ldr	r0, [r3, #72]
 1339 02c6 FFF7FEFF 		bl	draw_7Seg
 1340              	.LVL144:
 807:main.c        ****     else if(count==1)Dis_D2_Write(0);
 1341              		.loc 1 807 0
 1342 02ca A36D     		ldr	r3, [r4, #88]
 1343 02cc 03BB     		cbnz	r3, .L102
 807:main.c        ****     else if(count==1)Dis_D2_Write(0);
 1344              		.loc 1 807 0 is_stmt 0 discriminator 1
 1345 02ce 0020     		movs	r0, #0
 1346 02d0 FFF7FEFF 		bl	Dis_D1_Write
 1347              	.LVL145:
 1348 02d4 2DE0     		b	.L103
 1349              	.L127:
 1350 02d6 00BF     		.align	2
 1351              	.L126:
 1352 02d8 00000000 		.word	.LANCHOR0
 1353 02dc 0000F03F 		.word	1072693248
 1354 02e0 00002440 		.word	1076101120
 1355 02e4 00408F40 		.word	1083129856
 1356 02e8 D34D6210 		.word	274877907
 1357 02ec 67666666 		.word	1717986919
 1358 02f0 1F85EB51 		.word	1374389535
 1359 02f4 0000F0BF 		.word	-1074790400
 1360 02f8 000008C0 		.word	-1073217536
 1361 02fc 000010C0 		.word	-1072693248
 1362 0300 000014C0 		.word	-1072431104
 1363 0304 000018C0 		.word	-1072168960
 1364 0308 00001CC0 		.word	-1071906816
 1365 030c 000020C0 		.word	-1071644672
 1366              	.L102:
 808:main.c        ****     else if(count==2)Dis_D3_Write(0);
 1367              		.loc 1 808 0 is_stmt 1
 1368 0310 012B     		cmp	r3, #1
 1369 0312 03D1     		bne	.L104
 808:main.c        ****     else if(count==2)Dis_D3_Write(0);
 1370              		.loc 1 808 0 is_stmt 0 discriminator 1
 1371 0314 0020     		movs	r0, #0
 1372 0316 FFF7FEFF 		bl	Dis_D2_Write
ARM GAS  C:\Users\ANDREW~1\AppData\Local\Temp\ccwQPnwd.s 			page 43


 1373              	.LVL146:
 1374 031a 0AE0     		b	.L103
 1375              	.L104:
 809:main.c        ****     else if(count==3)Dis_D4_Write(0);
 1376              		.loc 1 809 0 is_stmt 1
 1377 031c 022B     		cmp	r3, #2
 1378 031e 03D1     		bne	.L105
 809:main.c        ****     else if(count==3)Dis_D4_Write(0);
 1379              		.loc 1 809 0 is_stmt 0 discriminator 1
 1380 0320 0020     		movs	r0, #0
 1381 0322 FFF7FEFF 		bl	Dis_D3_Write
 1382              	.LVL147:
 1383 0326 04E0     		b	.L103
 1384              	.L105:
 810:main.c        ****     
 1385              		.loc 1 810 0 is_stmt 1
 1386 0328 032B     		cmp	r3, #3
 1387 032a 02D1     		bne	.L103
 810:main.c        ****     
 1388              		.loc 1 810 0 is_stmt 0 discriminator 1
 1389 032c 0020     		movs	r0, #0
 1390 032e FFF7FEFF 		bl	Dis_D4_Write
 1391              	.LVL148:
 1392              	.L103:
 812:main.c        ****     
 1393              		.loc 1 812 0 is_stmt 1
 1394 0332 0022     		movs	r2, #0
 1395 0334 014B     		ldr	r3, .L128
 1396 0336 1A60     		str	r2, [r3]
 1397              	.L71:
 1398 0338 F8BD     		pop	{r3, r4, r5, r6, r7, pc}
 1399              	.L129:
 1400 033a 00BF     		.align	2
 1401              	.L128:
 1402 033c 00000000 		.word	.LANCHOR0
 1403              		.cfi_endproc
 1404              	.LFE86:
 1405              		.size	seg_runtime, .-seg_runtime
 1406              		.section	.text.runtime,"ax",%progbits
 1407              		.align	2
 1408              		.global	runtime
 1409              		.thumb
 1410              		.thumb_func
 1411              		.type	runtime, %function
 1412              	runtime:
 1413              	.LFB73:
 438:main.c        ****     BuzzerRuntime(buzz_duration);
 1414              		.loc 1 438 0
 1415              		.cfi_startproc
 1416              		@ args = 0, pretend = 0, frame = 0
 1417              		@ frame_needed = 0, uses_anonymous_args = 0
 1418 0000 10B5     		push	{r4, lr}
 1419              		.cfi_def_cfa_offset 8
 1420              		.cfi_offset 4, -8
 1421              		.cfi_offset 14, -4
 439:main.c        ****     seg_runtime(seg_num);
 1422              		.loc 1 439 0
ARM GAS  C:\Users\ANDREW~1\AppData\Local\Temp\ccwQPnwd.s 			page 44


 1423 0002 184C     		ldr	r4, .L136
 1424 0004 D4E90601 		ldrd	r0, [r4, #24]
 1425 0008 FFF7FEFF 		bl	BuzzerRuntime
 1426              	.LVL149:
 440:main.c        ****     LED1_Red_Write(0);
 1427              		.loc 1 440 0
 1428 000c D4E90A01 		ldrd	r0, [r4, #40]
 1429 0010 FFF7FEFF 		bl	seg_runtime
 1430              	.LVL150:
 441:main.c        ****     LED2_Yellow_Write(0);
 1431              		.loc 1 441 0
 1432 0014 0020     		movs	r0, #0
 1433 0016 FFF7FEFF 		bl	LED1_Red_Write
 1434              	.LVL151:
 442:main.c        ****     LED3_Green_Write(0);
 1435              		.loc 1 442 0
 1436 001a 0020     		movs	r0, #0
 1437 001c FFF7FEFF 		bl	LED2_Yellow_Write
 1438              	.LVL152:
 443:main.c        ****     
 1439              		.loc 1 443 0
 1440 0020 0020     		movs	r0, #0
 1441 0022 FFF7FEFF 		bl	LED3_Green_Write
 1442              	.LVL153:
 445:main.c        ****     if(mode==1) LED2_Yellow_Write(1);
 1443              		.loc 1 445 0
 1444 0026 E36D     		ldr	r3, [r4, #92]
 1445 0028 13B9     		cbnz	r3, .L131
 445:main.c        ****     if(mode==1) LED2_Yellow_Write(1);
 1446              		.loc 1 445 0 is_stmt 0 discriminator 1
 1447 002a 0120     		movs	r0, #1
 1448 002c FFF7FEFF 		bl	LED1_Red_Write
 1449              	.LVL154:
 1450              	.L131:
 446:main.c        ****     if(mode==2) LED3_Green_Write(1);
 1451              		.loc 1 446 0 is_stmt 1
 1452 0030 0C4B     		ldr	r3, .L136
 1453 0032 DB6D     		ldr	r3, [r3, #92]
 1454 0034 012B     		cmp	r3, #1
 1455 0036 02D1     		bne	.L132
 446:main.c        ****     if(mode==2) LED3_Green_Write(1);
 1456              		.loc 1 446 0 is_stmt 0 discriminator 1
 1457 0038 0120     		movs	r0, #1
 1458 003a FFF7FEFF 		bl	LED2_Yellow_Write
 1459              	.LVL155:
 1460              	.L132:
 447:main.c        ****     if(mode==3) 
 1461              		.loc 1 447 0 is_stmt 1
 1462 003e 094B     		ldr	r3, .L136
 1463 0040 DB6D     		ldr	r3, [r3, #92]
 1464 0042 022B     		cmp	r3, #2
 1465 0044 02D1     		bne	.L133
 447:main.c        ****     if(mode==3) 
 1466              		.loc 1 447 0 is_stmt 0 discriminator 1
 1467 0046 0120     		movs	r0, #1
 1468 0048 FFF7FEFF 		bl	LED3_Green_Write
 1469              	.LVL156:
ARM GAS  C:\Users\ANDREW~1\AppData\Local\Temp\ccwQPnwd.s 			page 45


 1470              	.L133:
 448:main.c        ****     {
 1471              		.loc 1 448 0 is_stmt 1
 1472 004c 054B     		ldr	r3, .L136
 1473 004e DB6D     		ldr	r3, [r3, #92]
 1474 0050 032B     		cmp	r3, #3
 1475 0052 05D1     		bne	.L130
 450:main.c        ****         LED3_Green_Write(1);
 1476              		.loc 1 450 0
 1477 0054 0120     		movs	r0, #1
 1478 0056 FFF7FEFF 		bl	LED2_Yellow_Write
 1479              	.LVL157:
 451:main.c        ****     }
 1480              		.loc 1 451 0
 1481 005a 0120     		movs	r0, #1
 1482 005c FFF7FEFF 		bl	LED3_Green_Write
 1483              	.LVL158:
 1484              	.L130:
 1485 0060 10BD     		pop	{r4, pc}
 1486              	.L137:
 1487 0062 00BF     		.align	2
 1488              	.L136:
 1489 0064 00000000 		.word	.LANCHOR0
 1490              		.cfi_endproc
 1491              	.LFE73:
 1492              		.size	runtime, .-runtime
 1493              		.global	__aeabi_dcmple
 1494              		.section	.text.mode_0,"ax",%progbits
 1495              		.align	2
 1496              		.global	mode_0
 1497              		.thumb
 1498              		.thumb_func
 1499              		.type	mode_0, %function
 1500              	mode_0:
 1501              	.LFB65:
 205:main.c        ****     double previous_second_decimal=current_second();
 1502              		.loc 1 205 0
 1503              		.cfi_startproc
 1504              		@ args = 0, pretend = 0, frame = 0
 1505              		@ frame_needed = 0, uses_anonymous_args = 0
 1506 0000 F8B5     		push	{r3, r4, r5, r6, r7, lr}
 1507              		.cfi_def_cfa_offset 24
 1508              		.cfi_offset 3, -24
 1509              		.cfi_offset 4, -20
 1510              		.cfi_offset 5, -16
 1511              		.cfi_offset 6, -12
 1512              		.cfi_offset 7, -8
 1513              		.cfi_offset 14, -4
 206:main.c        ****     while (mode == 0) {
 1514              		.loc 1 206 0
 1515 0002 FFF7FEFF 		bl	current_second
 1516              	.LVL159:
 1517 0006 0646     		mov	r6, r0
 1518 0008 0F46     		mov	r7, r1
 1519              	.LVL160:
 207:main.c        ****         
 1520              		.loc 1 207 0
ARM GAS  C:\Users\ANDREW~1\AppData\Local\Temp\ccwQPnwd.s 			page 46


 1521 000a 7FE0     		b	.L139
 1522              	.L154:
 1523              	.LBB14:
 213:main.c        ****             
 1524              		.loc 1 213 0
 1525 000c FFF7FEFF 		bl	current_second
 1526              	.LVL161:
 1527 0010 3246     		mov	r2, r6
 1528 0012 3B46     		mov	r3, r7
 1529 0014 FFF7FEFF 		bl	__aeabi_dsub
 1530              	.LVL162:
 1531 0018 0446     		mov	r4, r0
 1532 001a 0D46     		mov	r5, r1
 1533              	.LVL163:
 215:main.c        ****         else if ((time_diff > 1)  && (time_diff <= 2))  display_num(-4); //display blank
 1534              		.loc 1 215 0
 1535 001c 0022     		movs	r2, #0
 1536 001e 404B     		ldr	r3, .L161+8
 1537 0020 FFF7FEFF 		bl	__aeabi_dcmple
 1538              	.LVL164:
 1539 0024 20B1     		cbz	r0, .L159
 215:main.c        ****         else if ((time_diff > 1)  && (time_diff <= 2))  display_num(-4); //display blank
 1540              		.loc 1 215 0 is_stmt 0 discriminator 1
 1541 0026 0020     		movs	r0, #0
 1542 0028 3E49     		ldr	r1, .L161+12
 1543 002a FFF7FEFF 		bl	display_num
 1544              	.LVL165:
 1545 002e 17E0     		b	.L142
 1546              	.L159:
 216:main.c        ****         else previous_second_decimal = current_second();
 1547              		.loc 1 216 0 is_stmt 1
 1548 0030 0022     		movs	r2, #0
 1549 0032 3B4B     		ldr	r3, .L161+8
 1550 0034 2046     		mov	r0, r4
 1551 0036 2946     		mov	r1, r5
 1552 0038 FFF7FEFF 		bl	__aeabi_dcmpgt
 1553              	.LVL166:
 1554 003c 60B1     		cbz	r0, .L143
 216:main.c        ****         else previous_second_decimal = current_second();
 1555              		.loc 1 216 0 is_stmt 0 discriminator 1
 1556 003e 0022     		movs	r2, #0
 1557 0040 4FF08043 		mov	r3, #1073741824
 1558 0044 2046     		mov	r0, r4
 1559 0046 2946     		mov	r1, r5
 1560 0048 FFF7FEFF 		bl	__aeabi_dcmple
 1561              	.LVL167:
 1562 004c 20B1     		cbz	r0, .L143
 216:main.c        ****         else previous_second_decimal = current_second();
 1563              		.loc 1 216 0 discriminator 2
 1564 004e 0020     		movs	r0, #0
 1565 0050 3549     		ldr	r1, .L161+16
 1566 0052 FFF7FEFF 		bl	display_num
 1567              	.LVL168:
 1568 0056 03E0     		b	.L142
 1569              	.L143:
 217:main.c        ****         
 1570              		.loc 1 217 0 is_stmt 1
ARM GAS  C:\Users\ANDREW~1\AppData\Local\Temp\ccwQPnwd.s 			page 47


 1571 0058 FFF7FEFF 		bl	current_second
 1572              	.LVL169:
 1573 005c 0646     		mov	r6, r0
 1574              	.LVL170:
 1575 005e 0F46     		mov	r7, r1
 1576              	.LVL171:
 1577              	.L142:
 221:main.c        ****         {
 1578              		.loc 1 221 0
 1579 0060 FFF7FEFF 		bl	Button_S5_Select_State_Read
 1580              	.LVL172:
 1581 0064 18B1     		cbz	r0, .L146
 221:main.c        ****         {
 1582              		.loc 1 221 0 is_stmt 0 discriminator 1
 1583 0066 FFF7FEFF 		bl	Button_S2_Left_State_Read
 1584              	.LVL173:
 1585 006a 0028     		cmp	r0, #0
 1586 006c 4CD1     		bne	.L147
 1587              	.L146:
 1588              	.LBB15:
 225:main.c        ****             while ((current_second() - check_second )<0.2)  runtime();
 1589              		.loc 1 225 0 is_stmt 1
 1590 006e FFF7FEFF 		bl	current_second
 1591              	.LVL174:
 1592 0072 0446     		mov	r4, r0
 1593              	.LVL175:
 1594 0074 0D46     		mov	r5, r1
 1595              	.LVL176:
 226:main.c        ****             
 1596              		.loc 1 226 0
 1597 0076 01E0     		b	.L148
 1598              	.L149:
 226:main.c        ****             
 1599              		.loc 1 226 0 is_stmt 0 discriminator 2
 1600 0078 FFF7FEFF 		bl	runtime
 1601              	.LVL177:
 1602              	.L148:
 226:main.c        ****             
 1603              		.loc 1 226 0 discriminator 1
 1604 007c FFF7FEFF 		bl	current_second
 1605              	.LVL178:
 1606 0080 2246     		mov	r2, r4
 1607 0082 2B46     		mov	r3, r5
 1608 0084 FFF7FEFF 		bl	__aeabi_dsub
 1609              	.LVL179:
 1610 0088 23A3     		adr	r3, .L161
 1611 008a D3E90023 		ldrd	r2, [r3]
 1612 008e FFF7FEFF 		bl	__aeabi_dcmplt
 1613              	.LVL180:
 1614 0092 0028     		cmp	r0, #0
 1615 0094 F0D1     		bne	.L149
 231:main.c        ****             {
 1616              		.loc 1 231 0 is_stmt 1
 1617 0096 FFF7FEFF 		bl	Button_S5_Select_State_Read
 1618              	.LVL181:
 1619 009a 58BB     		cbnz	r0, .L150
 231:main.c        ****             {
ARM GAS  C:\Users\ANDREW~1\AppData\Local\Temp\ccwQPnwd.s 			page 48


 1620              		.loc 1 231 0 is_stmt 0 discriminator 1
 1621 009c FFF7FEFF 		bl	Button_S2_Left_State_Read
 1622              	.LVL182:
 1623 00a0 40BB     		cbnz	r0, .L150
 233:main.c        ****                 check_second = current_second();        
 1624              		.loc 1 233 0 is_stmt 1
 1625 00a2 1DA1     		adr	r1, .L161
 1626 00a4 D1E90001 		ldrd	r0, [r1]
 1627 00a8 FFF7FEFF 		bl	BuzzerSound
 1628              	.LVL183:
 234:main.c        ****                 while ((Button_S5_Select_State_Read() == 0) && (Button_S2_Left_State_Read() == 0))
 1629              		.loc 1 234 0
 1630 00ac FFF7FEFF 		bl	current_second
 1631              	.LVL184:
 1632 00b0 0446     		mov	r4, r0
 1633              	.LVL185:
 1634 00b2 0D46     		mov	r5, r1
 1635              	.LVL186:
 235:main.c        ****                 {
 1636              		.loc 1 235 0
 1637 00b4 16E0     		b	.L151
 1638              	.L153:
 237:main.c        ****                     if (current_second()-check_second==1)
 1639              		.loc 1 237 0
 1640 00b6 FFF7FEFF 		bl	runtime
 1641              	.LVL187:
 238:main.c        ****                     {
 1642              		.loc 1 238 0
 1643 00ba FFF7FEFF 		bl	current_second
 1644              	.LVL188:
 1645 00be 2246     		mov	r2, r4
 1646 00c0 2B46     		mov	r3, r5
 1647 00c2 FFF7FEFF 		bl	__aeabi_dsub
 1648              	.LVL189:
 1649 00c6 0022     		movs	r2, #0
 1650 00c8 154B     		ldr	r3, .L161+8
 1651 00ca FFF7FEFF 		bl	__aeabi_dcmpeq
 1652              	.LVL190:
 1653 00ce 48B1     		cbz	r0, .L151
 241:main.c        ****                         CyDelay(5);
 1654              		.loc 1 241 0
 1655 00d0 1648     		ldr	r0, .L161+20
 1656 00d2 FFF7FEFF 		bl	UART_1_PutString
 1657              	.LVL191:
 242:main.c        ****                         mode = 1;
 1658              		.loc 1 242 0
 1659 00d6 0520     		movs	r0, #5
 1660 00d8 FFF7FEFF 		bl	CyDelay
 1661              	.LVL192:
 243:main.c        ****                         break;
 1662              		.loc 1 243 0
 1663 00dc 0122     		movs	r2, #1
 1664 00de 144B     		ldr	r3, .L161+24
 1665 00e0 DA65     		str	r2, [r3, #92]
 244:main.c        ****                     }
 1666              		.loc 1 244 0
 1667 00e2 11E0     		b	.L147
ARM GAS  C:\Users\ANDREW~1\AppData\Local\Temp\ccwQPnwd.s 			page 49


 1668              	.L151:
 235:main.c        ****                 {
 1669              		.loc 1 235 0
 1670 00e4 FFF7FEFF 		bl	Button_S5_Select_State_Read
 1671              	.LVL193:
 1672 00e8 70B9     		cbnz	r0, .L147
 235:main.c        ****                 {
 1673              		.loc 1 235 0 is_stmt 0 discriminator 1
 1674 00ea FFF7FEFF 		bl	Button_S2_Left_State_Read
 1675              	.LVL194:
 1676 00ee 0028     		cmp	r0, #0
 1677 00f0 E1D0     		beq	.L153
 1678 00f2 09E0     		b	.L147
 1679              	.L150:
 250:main.c        ****             {
 1680              		.loc 1 250 0 is_stmt 1
 1681 00f4 FFF7FEFF 		bl	Button_S5_Select_State_Read
 1682              	.LVL195:
 1683 00f8 30B9     		cbnz	r0, .L147
 250:main.c        ****             {
 1684              		.loc 1 250 0 is_stmt 0 discriminator 1
 1685 00fa FFF7FEFF 		bl	Button_S2_Left_State_Read
 1686              	.LVL196:
 1687 00fe 0128     		cmp	r0, #1
 1688 0100 02D1     		bne	.L147
 252:main.c        ****             }
 1689              		.loc 1 252 0 is_stmt 1
 1690 0102 0322     		movs	r2, #3
 1691 0104 0A4B     		ldr	r3, .L161+24
 1692 0106 DA65     		str	r2, [r3, #92]
 1693              	.LVL197:
 1694              	.L147:
 1695              	.LBE15:
 255:main.c        ****         
 1696              		.loc 1 255 0
 1697 0108 FFF7FEFF 		bl	runtime
 1698              	.LVL198:
 1699              	.L139:
 1700              	.LBE14:
 207:main.c        ****         
 1701              		.loc 1 207 0
 1702 010c 084B     		ldr	r3, .L161+24
 1703 010e DB6D     		ldr	r3, [r3, #92]
 1704 0110 002B     		cmp	r3, #0
 1705 0112 3FF47BAF 		beq	.L154
 260:main.c        **** 
 1706              		.loc 1 260 0
 1707 0116 F8BD     		pop	{r3, r4, r5, r6, r7, pc}
 1708              	.LVL199:
 1709              	.L162:
 1710              		.align	3
 1711              	.L161:
 1712 0118 9A999999 		.word	-1717986918
 1713 011c 9999C93F 		.word	1070176665
 1714 0120 0000F03F 		.word	1072693248
 1715 0124 000008C0 		.word	-1073217536
 1716 0128 000010C0 		.word	-1072693248
ARM GAS  C:\Users\ANDREW~1\AppData\Local\Temp\ccwQPnwd.s 			page 50


 1717 012c 00000000 		.word	.LC0
 1718 0130 00000000 		.word	.LANCHOR0
 1719              		.cfi_endproc
 1720              	.LFE65:
 1721              		.size	mode_0, .-mode_0
 1722              		.section	.text.mode_3,"ax",%progbits
 1723              		.align	2
 1724              		.global	mode_3
 1725              		.thumb
 1726              		.thumb_func
 1727              		.type	mode_3, %function
 1728              	mode_3:
 1729              	.LFB68:
 356:main.c        ****    
 1730              		.loc 1 356 0
 1731              		.cfi_startproc
 1732              		@ args = 0, pretend = 0, frame = 0
 1733              		@ frame_needed = 0, uses_anonymous_args = 0
 1734 0000 70B5     		push	{r4, r5, r6, lr}
 1735              		.cfi_def_cfa_offset 16
 1736              		.cfi_offset 4, -16
 1737              		.cfi_offset 5, -12
 1738              		.cfi_offset 6, -8
 1739              		.cfi_offset 14, -4
 1740              	.LVL200:
 358:main.c        ****     double previous_second;
 1741              		.loc 1 358 0
 1742 0002 0126     		movs	r6, #1
 360:main.c        ****     {
 1743              		.loc 1 360 0
 1744 0004 33E0     		b	.L164
 1745              	.LVL201:
 1746              	.L169:
 363:main.c        ****         {
 1747              		.loc 1 363 0
 1748 0006 86B1     		cbz	r6, .L165
 366:main.c        ****             distance = ultra_avg();
 1749              		.loc 1 366 0
 1750 0008 1BA1     		adr	r1, .L172
 1751 000a D1E90001 		ldrd	r0, [r1]
 1752 000e FFF7FEFF 		bl	BuzzerSound
 1753              	.LVL202:
 367:main.c        ****             
 1754              		.loc 1 367 0
 1755 0012 FFF7FEFF 		bl	ultra_avg
 1756              	.LVL203:
 1757 0016 1A4B     		ldr	r3, .L172+8
 1758 0018 C3E90801 		strd	r0, [r3, #32]
 369:main.c        ****             
 1759              		.loc 1 369 0
 1760 001c FFF7FEFF 		bl	current_second
 1761              	.LVL204:
 1762 0020 0446     		mov	r4, r0
 1763              	.LVL205:
 1764 0022 0D46     		mov	r5, r1
 1765              	.LVL206:
 371:main.c        ****             flag_read = 0;
ARM GAS  C:\Users\ANDREW~1\AppData\Local\Temp\ccwQPnwd.s 			page 51


 1766              		.loc 1 371 0
 1767 0024 FFF7FEFF 		bl	clear_7_seg
 1768              	.LVL207:
 372:main.c        ****             
 1769              		.loc 1 372 0
 1770 0028 0026     		movs	r6, #0
 1771              	.LVL208:
 1772              	.L165:
 379:main.c        ****         runtime();
 1773              		.loc 1 379 0
 1774 002a 154B     		ldr	r3, .L172+8
 1775 002c D3E90801 		ldrd	r0, [r3, #32]
 1776 0030 FFF7FEFF 		bl	display_num
 1777              	.LVL209:
 380:main.c        ****        
 1778              		.loc 1 380 0
 1779 0034 FFF7FEFF 		bl	runtime
 1780              	.LVL210:
 383:main.c        ****         {
 1781              		.loc 1 383 0
 1782 0038 FFF7FEFF 		bl	current_second
 1783              	.LVL211:
 1784 003c 2246     		mov	r2, r4
 1785 003e 2B46     		mov	r3, r5
 1786 0040 FFF7FEFF 		bl	__aeabi_dsub
 1787              	.LVL212:
 1788 0044 0022     		movs	r2, #0
 1789 0046 4FF08043 		mov	r3, #1073741824
 1790 004a FFF7FEFF 		bl	__aeabi_dcmpge
 1791              	.LVL213:
 1792 004e 70B1     		cbz	r0, .L164
 386:main.c        ****             {
 1793              		.loc 1 386 0
 1794 0050 FFF7FEFF 		bl	Button_S5_Select_State_Read
 1795              	.LVL214:
 1796 0054 40B9     		cbnz	r0, .L168
 388:main.c        ****                 BuzzerSound(0.2);
 1797              		.loc 1 388 0
 1798 0056 FFF7FEFF 		bl	clear_7_seg
 1799              	.LVL215:
 389:main.c        ****                 flag_read=1;
 1800              		.loc 1 389 0
 1801 005a 07A1     		adr	r1, .L172
 1802 005c D1E90001 		ldrd	r0, [r1]
 1803 0060 FFF7FEFF 		bl	BuzzerSound
 1804              	.LVL216:
 390:main.c        ****             }
 1805              		.loc 1 390 0
 1806 0064 0126     		movs	r6, #1
 1807 0066 02E0     		b	.L164
 1808              	.LVL217:
 1809              	.L168:
 394:main.c        ****             }
 1810              		.loc 1 394 0
 1811 0068 0022     		movs	r2, #0
 1812 006a 054B     		ldr	r3, .L172+8
 1813 006c DA65     		str	r2, [r3, #92]
ARM GAS  C:\Users\ANDREW~1\AppData\Local\Temp\ccwQPnwd.s 			page 52


 1814              	.LVL218:
 1815              	.L164:
 360:main.c        ****     {
 1816              		.loc 1 360 0
 1817 006e 044B     		ldr	r3, .L172+8
 1818 0070 DB6D     		ldr	r3, [r3, #92]
 1819 0072 032B     		cmp	r3, #3
 1820 0074 C7D0     		beq	.L169
 400:main.c        **** 
 1821              		.loc 1 400 0
 1822 0076 70BD     		pop	{r4, r5, r6, pc}
 1823              	.LVL219:
 1824              	.L173:
 1825              		.align	3
 1826              	.L172:
 1827 0078 9A999999 		.word	-1717986918
 1828 007c 9999C93F 		.word	1070176665
 1829 0080 00000000 		.word	.LANCHOR0
 1830              		.cfi_endproc
 1831              	.LFE68:
 1832              		.size	mode_3, .-mode_3
 1833              		.section	.text.SingleButtonWait,"ax",%progbits
 1834              		.align	2
 1835              		.global	SingleButtonWait
 1836              		.thumb
 1837              		.thumb_func
 1838              		.type	SingleButtonWait, %function
 1839              	SingleButtonWait:
 1840              	.LFB71:
 420:main.c        ****     while (Button_S4_Right_State_Read()==0 || Button_S5_Select_State_Read()==0 || Button_S2_Left_St
 1841              		.loc 1 420 0
 1842              		.cfi_startproc
 1843              		@ args = 0, pretend = 0, frame = 0
 1844              		@ frame_needed = 0, uses_anonymous_args = 0
 1845 0000 08B5     		push	{r3, lr}
 1846              		.cfi_def_cfa_offset 8
 1847              		.cfi_offset 3, -8
 1848              		.cfi_offset 14, -4
 421:main.c        ****     {
 1849              		.loc 1 421 0
 1850 0002 01E0     		b	.L175
 1851              	.L176:
 423:main.c        ****     }
 1852              		.loc 1 423 0
 1853 0004 FFF7FEFF 		bl	runtime
 1854              	.LVL220:
 1855              	.L175:
 421:main.c        ****     {
 1856              		.loc 1 421 0
 1857 0008 FFF7FEFF 		bl	Button_S4_Right_State_Read
 1858              	.LVL221:
 1859 000c 0028     		cmp	r0, #0
 1860 000e F9D0     		beq	.L176
 421:main.c        ****     {
 1861              		.loc 1 421 0 is_stmt 0 discriminator 1
 1862 0010 FFF7FEFF 		bl	Button_S5_Select_State_Read
 1863              	.LVL222:
ARM GAS  C:\Users\ANDREW~1\AppData\Local\Temp\ccwQPnwd.s 			page 53


 1864 0014 0028     		cmp	r0, #0
 1865 0016 F5D0     		beq	.L176
 421:main.c        ****     {
 1866              		.loc 1 421 0 discriminator 2
 1867 0018 FFF7FEFF 		bl	Button_S2_Left_State_Read
 1868              	.LVL223:
 1869 001c 0028     		cmp	r0, #0
 1870 001e F1D0     		beq	.L176
 425:main.c        **** 
 1871              		.loc 1 425 0 is_stmt 1
 1872 0020 08BD     		pop	{r3, pc}
 1873              		.cfi_endproc
 1874              	.LFE71:
 1875              		.size	SingleButtonWait, .-SingleButtonWait
 1876 0022 00BF     		.section	.text.mode_1,"ax",%progbits
 1877              		.align	2
 1878              		.global	mode_1
 1879              		.thumb
 1880              		.thumb_func
 1881              		.type	mode_1, %function
 1882              	mode_1:
 1883              	.LFB66:
 264:main.c        ****     double previous_second=0;
 1884              		.loc 1 264 0
 1885              		.cfi_startproc
 1886              		@ args = 0, pretend = 0, frame = 0
 1887              		@ frame_needed = 0, uses_anonymous_args = 0
 1888 0000 F8B5     		push	{r3, r4, r5, r6, r7, lr}
 1889              		.cfi_def_cfa_offset 24
 1890              		.cfi_offset 3, -24
 1891              		.cfi_offset 4, -20
 1892              		.cfi_offset 5, -16
 1893              		.cfi_offset 6, -12
 1894              		.cfi_offset 7, -8
 1895              		.cfi_offset 14, -4
 1896              	.LVL224:
 265:main.c        ****     while (mode == 1) {
 1897              		.loc 1 265 0
 1898 0002 0026     		movs	r6, #0
 1899 0004 0027     		movs	r7, #0
 266:main.c        ****        
 1900              		.loc 1 266 0
 1901 0006 55E0     		b	.L179
 1902              	.LVL225:
 1903              	.L189:
 1904              	.LBB16:
 268:main.c        ****         //flash group number
 1905              		.loc 1 268 0
 1906 0008 FFF7FEFF 		bl	runtime
 1907              	.LVL226:
 270:main.c        ****         if (time_diff<=1)
 1908              		.loc 1 270 0
 1909 000c FFF7FEFF 		bl	current_second
 1910              	.LVL227:
 1911 0010 3246     		mov	r2, r6
 1912 0012 3B46     		mov	r3, r7
 1913 0014 FFF7FEFF 		bl	__aeabi_dsub
ARM GAS  C:\Users\ANDREW~1\AppData\Local\Temp\ccwQPnwd.s 			page 54


 1914              	.LVL228:
 1915 0018 0446     		mov	r4, r0
 1916 001a 0D46     		mov	r5, r1
 1917              	.LVL229:
 271:main.c        ****         {
 1918              		.loc 1 271 0
 1919 001c 0022     		movs	r2, #0
 1920 001e 2A4B     		ldr	r3, .L195+8
 1921 0020 FFF7FEFF 		bl	__aeabi_dcmple
 1922              	.LVL230:
 1923 0024 30B1     		cbz	r0, .L193
 273:main.c        ****             //display_num(200); // group_num
 1924              		.loc 1 273 0
 1925 0026 294B     		ldr	r3, .L195+12
 1926 0028 186E     		ldr	r0, [r3, #96]
 1927 002a FFF7FEFF 		bl	__aeabi_i2d
 1928              	.LVL231:
 1929 002e FFF7FEFF 		bl	display_num
 1930              	.LVL232:
 1931 0032 16E0     		b	.L182
 1932              	.L193:
 276:main.c        ****         {
 1933              		.loc 1 276 0
 1934 0034 0022     		movs	r2, #0
 1935 0036 244B     		ldr	r3, .L195+8
 1936 0038 2046     		mov	r0, r4
 1937 003a 2946     		mov	r1, r5
 1938 003c FFF7FEFF 		bl	__aeabi_dcmpgt
 1939              	.LVL233:
 1940 0040 58B1     		cbz	r0, .L183
 276:main.c        ****         {
 1941              		.loc 1 276 0 is_stmt 0 discriminator 1
 1942 0042 0022     		movs	r2, #0
 1943 0044 224B     		ldr	r3, .L195+16
 1944 0046 2046     		mov	r0, r4
 1945 0048 2946     		mov	r1, r5
 1946 004a FFF7FEFF 		bl	__aeabi_dcmple
 1947              	.LVL234:
 1948 004e 20B1     		cbz	r0, .L183
 278:main.c        ****         }
 1949              		.loc 1 278 0 is_stmt 1
 1950 0050 0020     		movs	r0, #0
 1951 0052 2049     		ldr	r1, .L195+20
 1952 0054 FFF7FEFF 		bl	display_num
 1953              	.LVL235:
 1954 0058 03E0     		b	.L182
 1955              	.L183:
 282:main.c        ****         }
 1956              		.loc 1 282 0
 1957 005a FFF7FEFF 		bl	current_second
 1958              	.LVL236:
 1959 005e 0646     		mov	r6, r0
 1960              	.LVL237:
 1961 0060 0F46     		mov	r7, r1
 1962              	.LVL238:
 1963              	.L182:
 287:main.c        ****         {
ARM GAS  C:\Users\ANDREW~1\AppData\Local\Temp\ccwQPnwd.s 			page 55


 1964              		.loc 1 287 0
 1965 0062 FFF7FEFF 		bl	Button_S4_Right_State_Read
 1966              	.LVL239:
 1967 0066 48B9     		cbnz	r0, .L186
 289:main.c        ****             BuzzerSound(0.2);
 1968              		.loc 1 289 0
 1969 0068 FFF7FEFF 		bl	SingleButtonWait
 1970              	.LVL240:
 290:main.c        ****             mode = 2;
 1971              		.loc 1 290 0
 1972 006c 14A1     		adr	r1, .L195
 1973 006e D1E90001 		ldrd	r0, [r1]
 1974 0072 FFF7FEFF 		bl	BuzzerSound
 1975              	.LVL241:
 291:main.c        ****         }
 1976              		.loc 1 291 0
 1977 0076 0222     		movs	r2, #2
 1978 0078 144B     		ldr	r3, .L195+12
 1979 007a DA65     		str	r2, [r3, #92]
 1980              	.L186:
 294:main.c        ****         {
 1981              		.loc 1 294 0
 1982 007c FFF7FEFF 		bl	Button_S5_Select_State_Read
 1983              	.LVL242:
 1984 0080 50B9     		cbnz	r0, .L187
 296:main.c        ****             BuzzerSound(0.2);
 1985              		.loc 1 296 0
 1986 0082 FFF7FEFF 		bl	SingleButtonWait
 1987              	.LVL243:
 297:main.c        ****             group_num ++;
 1988              		.loc 1 297 0
 1989 0086 0EA1     		adr	r1, .L195
 1990 0088 D1E90001 		ldrd	r0, [r1]
 1991 008c FFF7FEFF 		bl	BuzzerSound
 1992              	.LVL244:
 298:main.c        ****         }
 1993              		.loc 1 298 0
 1994 0090 0E4A     		ldr	r2, .L195+12
 1995 0092 136E     		ldr	r3, [r2, #96]
 1996 0094 0133     		adds	r3, r3, #1
 1997 0096 1366     		str	r3, [r2, #96]
 1998              	.L187:
 301:main.c        ****         {
 1999              		.loc 1 301 0
 2000 0098 FFF7FEFF 		bl	Button_S2_Left_State_Read
 2001              	.LVL245:
 2002 009c 50B9     		cbnz	r0, .L179
 303:main.c        ****             BuzzerSound(0.2);
 2003              		.loc 1 303 0
 2004 009e FFF7FEFF 		bl	SingleButtonWait
 2005              	.LVL246:
 304:main.c        ****             group_num --;
 2006              		.loc 1 304 0
 2007 00a2 07A1     		adr	r1, .L195
 2008 00a4 D1E90001 		ldrd	r0, [r1]
 2009 00a8 FFF7FEFF 		bl	BuzzerSound
 2010              	.LVL247:
ARM GAS  C:\Users\ANDREW~1\AppData\Local\Temp\ccwQPnwd.s 			page 56


 305:main.c        ****         }
 2011              		.loc 1 305 0
 2012 00ac 074A     		ldr	r2, .L195+12
 2013 00ae 136E     		ldr	r3, [r2, #96]
 2014 00b0 013B     		subs	r3, r3, #1
 2015 00b2 1366     		str	r3, [r2, #96]
 2016              	.LVL248:
 2017              	.L179:
 2018              	.LBE16:
 266:main.c        ****        
 2019              		.loc 1 266 0
 2020 00b4 054B     		ldr	r3, .L195+12
 2021 00b6 DB6D     		ldr	r3, [r3, #92]
 2022 00b8 012B     		cmp	r3, #1
 2023 00ba A5D0     		beq	.L189
 308:main.c        **** 
 2024              		.loc 1 308 0
 2025 00bc F8BD     		pop	{r3, r4, r5, r6, r7, pc}
 2026              	.LVL249:
 2027              	.L196:
 2028 00be 00BF     		.align	3
 2029              	.L195:
 2030 00c0 9A999999 		.word	-1717986918
 2031 00c4 9999C93F 		.word	1070176665
 2032 00c8 0000F03F 		.word	1072693248
 2033 00cc 00000000 		.word	.LANCHOR0
 2034 00d0 0000F83F 		.word	1073217536
 2035 00d4 000010C0 		.word	-1072693248
 2036              		.cfi_endproc
 2037              	.LFE66:
 2038              		.size	mode_1, .-mode_1
 2039              		.section	.text.mode_2,"ax",%progbits
 2040              		.align	2
 2041              		.global	mode_2
 2042              		.thumb
 2043              		.thumb_func
 2044              		.type	mode_2, %function
 2045              	mode_2:
 2046              	.LFB67:
 312:main.c        ****     while (mode == 2)
 2047              		.loc 1 312 0
 2048              		.cfi_startproc
 2049              		@ args = 0, pretend = 0, frame = 0
 2050              		@ frame_needed = 0, uses_anonymous_args = 0
 2051 0000 08B5     		push	{r3, lr}
 2052              		.cfi_def_cfa_offset 8
 2053              		.cfi_offset 3, -8
 2054              		.cfi_offset 14, -4
 313:main.c        ****     {
 2055              		.loc 1 313 0
 2056 0002 39E0     		b	.L203
 2057              	.L204:
 315:main.c        ****         
 2058              		.loc 1 315 0
 2059 0004 FFF7FEFF 		bl	runtime
 2060              	.LVL250:
 318:main.c        ****         if (cm_or_inch =='i') display_num(-2);
ARM GAS  C:\Users\ANDREW~1\AppData\Local\Temp\ccwQPnwd.s 			page 57


 2061              		.loc 1 318 0
 2062 0008 234B     		ldr	r3, .L206+8
 2063 000a 1B78     		ldrb	r3, [r3]	@ zero_extendqisi2
 2064 000c 632B     		cmp	r3, #99
 2065 000e 03D1     		bne	.L199
 318:main.c        ****         if (cm_or_inch =='i') display_num(-2);
 2066              		.loc 1 318 0 is_stmt 0 discriminator 1
 2067 0010 0020     		movs	r0, #0
 2068 0012 2249     		ldr	r1, .L206+12
 2069 0014 FFF7FEFF 		bl	display_num
 2070              	.LVL251:
 2071              	.L199:
 319:main.c        ****         
 2072              		.loc 1 319 0 is_stmt 1
 2073 0018 1F4B     		ldr	r3, .L206+8
 2074 001a 1B78     		ldrb	r3, [r3]	@ zero_extendqisi2
 2075 001c 692B     		cmp	r3, #105
 2076 001e 04D1     		bne	.L200
 319:main.c        ****         
 2077              		.loc 1 319 0 is_stmt 0 discriminator 1
 2078 0020 0020     		movs	r0, #0
 2079 0022 4FF04041 		mov	r1, #-1073741824
 2080 0026 FFF7FEFF 		bl	display_num
 2081              	.LVL252:
 2082              	.L200:
 322:main.c        ****         {
 2083              		.loc 1 322 0 is_stmt 1
 2084 002a FFF7FEFF 		bl	Button_S4_Right_State_Read
 2085              	.LVL253:
 2086 002e 48B9     		cbnz	r0, .L201
 324:main.c        ****             BuzzerSound(0.2);
 2087              		.loc 1 324 0
 2088 0030 FFF7FEFF 		bl	SingleButtonWait
 2089              	.LVL254:
 325:main.c        ****             mode = 0;
 2090              		.loc 1 325 0
 2091 0034 16A1     		adr	r1, .L206
 2092 0036 D1E90001 		ldrd	r0, [r1]
 2093 003a FFF7FEFF 		bl	BuzzerSound
 2094              	.LVL255:
 326:main.c        ****         }
 2095              		.loc 1 326 0
 2096 003e 0022     		movs	r2, #0
 2097 0040 174B     		ldr	r3, .L206+16
 2098 0042 DA65     		str	r2, [r3, #92]
 2099              	.L201:
 329:main.c        ****         {
 2100              		.loc 1 329 0
 2101 0044 FFF7FEFF 		bl	Button_S5_Select_State_Read
 2102              	.LVL256:
 2103 0048 48B9     		cbnz	r0, .L202
 331:main.c        ****             BuzzerSound(0.2);
 2104              		.loc 1 331 0
 2105 004a FFF7FEFF 		bl	SingleButtonWait
 2106              	.LVL257:
 332:main.c        ****             MetricLedOn();
 2107              		.loc 1 332 0
ARM GAS  C:\Users\ANDREW~1\AppData\Local\Temp\ccwQPnwd.s 			page 58


 2108 004e 10A1     		adr	r1, .L206
 2109 0050 D1E90001 		ldrd	r0, [r1]
 2110 0054 FFF7FEFF 		bl	BuzzerSound
 2111              	.LVL258:
 335:main.c        ****         }
 2112              		.loc 1 335 0
 2113 0058 6322     		movs	r2, #99
 2114 005a 0F4B     		ldr	r3, .L206+8
 2115 005c 1A70     		strb	r2, [r3]
 2116              	.L202:
 338:main.c        ****         {
 2117              		.loc 1 338 0
 2118 005e FFF7FEFF 		bl	Button_S2_Left_State_Read
 2119              	.LVL259:
 2120 0062 48B9     		cbnz	r0, .L203
 340:main.c        ****             BuzzerSound(0.2);
 2121              		.loc 1 340 0
 2122 0064 FFF7FEFF 		bl	SingleButtonWait
 2123              	.LVL260:
 341:main.c        ****             ImperialLedOn();
 2124              		.loc 1 341 0
 2125 0068 09A1     		adr	r1, .L206
 2126 006a D1E90001 		ldrd	r0, [r1]
 2127 006e FFF7FEFF 		bl	BuzzerSound
 2128              	.LVL261:
 344:main.c        ****             
 2129              		.loc 1 344 0
 2130 0072 6922     		movs	r2, #105
 2131 0074 084B     		ldr	r3, .L206+8
 2132 0076 1A70     		strb	r2, [r3]
 2133              	.L203:
 313:main.c        ****     {
 2134              		.loc 1 313 0
 2135 0078 094B     		ldr	r3, .L206+16
 2136 007a DB6D     		ldr	r3, [r3, #92]
 2137 007c 022B     		cmp	r3, #2
 2138 007e C1D0     		beq	.L204
 350:main.c        **** 
 2139              		.loc 1 350 0
 2140 0080 0421     		movs	r1, #4
 2141 0082 054B     		ldr	r3, .L206+8
 2142 0084 1878     		ldrb	r0, [r3]	@ zero_extendqisi2
 2143 0086 FFF7FEFF 		bl	EEPROM_WriteByte
 2144              	.LVL262:
 2145 008a 08BD     		pop	{r3, pc}
 2146              	.L207:
 2147 008c AFF30080 		.align	3
 2148              	.L206:
 2149 0090 9A999999 		.word	-1717986918
 2150 0094 9999C93F 		.word	1070176665
 2151 0098 00000000 		.word	cm_or_inch
 2152 009c 0000F0BF 		.word	-1074790400
 2153 00a0 00000000 		.word	.LANCHOR0
 2154              		.cfi_endproc
 2155              	.LFE67:
 2156              		.size	mode_2, .-mode_2
 2157              		.section	.text.main,"ax",%progbits
ARM GAS  C:\Users\ANDREW~1\AppData\Local\Temp\ccwQPnwd.s 			page 59


 2158              		.align	2
 2159              		.global	main
 2160              		.thumb
 2161              		.thumb_func
 2162              		.type	main, %function
 2163              	main:
 2164              	.LFB64:
  67:main.c        ****     // Enable interrupts
 2165              		.loc 1 67 0
 2166              		.cfi_startproc
 2167              		@ args = 0, pretend = 0, frame = 0
 2168              		@ frame_needed = 0, uses_anonymous_args = 0
 2169 0000 38B5     		push	{r3, r4, r5, lr}
 2170              		.cfi_def_cfa_offset 16
 2171              		.cfi_offset 3, -16
 2172              		.cfi_offset 4, -12
 2173              		.cfi_offset 5, -8
 2174              		.cfi_offset 14, -4
  69:main.c        ****     
 2175              		.loc 1 69 0
 2176              		.syntax unified
 2177              	@ 69 "main.c" 1
 2178 0002 62B6     		CPSIE   i
 2179              	@ 0 "" 2
  72:main.c        ****     isr_7Seg_StartEx(seg7_ISR);  
 2180              		.loc 1 72 0
 2181              		.thumb
 2182              		.syntax unified
 2183 0004 FFF7FEFF 		bl	isr_7Seg_ClearPending
 2184              	.LVL263:
  73:main.c        ****     
 2185              		.loc 1 73 0
 2186 0008 5948     		ldr	r0, .L221
 2187 000a FFF7FEFF 		bl	isr_7Seg_StartEx
 2188              	.LVL264:
  76:main.c        ****     Timer_1_SetInterruptMode(3);
 2189              		.loc 1 76 0
 2190 000e FFF7FEFF 		bl	isr_6_ClearPending
 2191              	.LVL265:
  77:main.c        ****     isr_6_StartEx(Receive_Ultra);  
 2192              		.loc 1 77 0
 2193 0012 0320     		movs	r0, #3
 2194 0014 FFF7FEFF 		bl	Timer_1_SetInterruptMode
 2195              	.LVL266:
  78:main.c        ****     
 2196              		.loc 1 78 0
 2197 0018 5648     		ldr	r0, .L221+4
 2198 001a FFF7FEFF 		bl	isr_6_StartEx
 2199              	.LVL267:
  81:main.c        ****     Opamp_1_Start();
 2200              		.loc 1 81 0
 2201 001e FFF7FEFF 		bl	PGA_1_Start
 2202              	.LVL268:
  82:main.c        ****     Comp_1_Start();
 2203              		.loc 1 82 0
 2204 0022 FFF7FEFF 		bl	Opamp_1_Start
 2205              	.LVL269:
ARM GAS  C:\Users\ANDREW~1\AppData\Local\Temp\ccwQPnwd.s 			page 60


  83:main.c        ****     VDAC8_1_Start();
 2206              		.loc 1 83 0
 2207 0026 FFF7FEFF 		bl	Comp_1_Start
 2208              	.LVL270:
  84:main.c        ****     Count7_1_Start(); 
 2209              		.loc 1 84 0
 2210 002a FFF7FEFF 		bl	VDAC8_1_Start
 2211              	.LVL271:
  85:main.c        ****     
 2212              		.loc 1 85 0
 2213 002e FFF7FEFF 		bl	Count7_1_Start
 2214              	.LVL272:
  88:main.c        ****     Timer_2_Start();
 2215              		.loc 1 88 0
 2216 0032 0320     		movs	r0, #3
 2217 0034 FFF7FEFF 		bl	Timer_2_SetInterruptMode
 2218              	.LVL273:
  89:main.c        ****     
 2219              		.loc 1 89 0
 2220 0038 FFF7FEFF 		bl	Timer_2_Start
 2221              	.LVL274:
  92:main.c        ****     
 2222              		.loc 1 92 0
 2223 003c FFF7FEFF 		bl	EEPROM_Start
 2224              	.LVL275:
  95:main.c        ****     UART_1_PutString("Start UART");
 2225              		.loc 1 95 0
 2226 0040 FFF7FEFF 		bl	UART_1_Start
 2227              	.LVL276:
  96:main.c        ****     CyDelay(5);
 2228              		.loc 1 96 0
 2229 0044 4C48     		ldr	r0, .L221+8
 2230 0046 FFF7FEFF 		bl	UART_1_PutString
 2231              	.LVL277:
  97:main.c        ****     UART_1_WriteTxData(0x20);   
 2232              		.loc 1 97 0
 2233 004a 0520     		movs	r0, #5
 2234 004c FFF7FEFF 		bl	CyDelay
 2235              	.LVL278:
  98:main.c        ****     CyDelay(5);
 2236              		.loc 1 98 0
 2237 0050 2020     		movs	r0, #32
 2238 0052 FFF7FEFF 		bl	UART_1_WriteTxData
 2239              	.LVL279:
  99:main.c        ****     
 2240              		.loc 1 99 0
 2241 0056 0520     		movs	r0, #5
 2242 0058 FFF7FEFF 		bl	CyDelay
 2243              	.LVL280:
 101:main.c        ****     while((current_second()-setup_previous_time)<=4)
 2244              		.loc 1 101 0
 2245 005c FFF7FEFF 		bl	current_second
 2246              	.LVL281:
 2247 0060 0446     		mov	r4, r0
 2248 0062 0D46     		mov	r5, r1
 2249              	.LVL282:
 102:main.c        ****     {
ARM GAS  C:\Users\ANDREW~1\AppData\Local\Temp\ccwQPnwd.s 			page 61


 2250              		.loc 1 102 0
 2251 0064 38E0     		b	.L209
 2252              	.L214:
 104:main.c        ****         if((int)(current_second()-setup_previous_time) ==1) display_num(-6);
 2253              		.loc 1 104 0
 2254 0066 FFF7FEFF 		bl	current_second
 2255              	.LVL283:
 2256 006a 2246     		mov	r2, r4
 2257 006c 2B46     		mov	r3, r5
 2258 006e FFF7FEFF 		bl	__aeabi_dsub
 2259              	.LVL284:
 2260 0072 FFF7FEFF 		bl	__aeabi_d2iz
 2261              	.LVL285:
 2262 0076 18B9     		cbnz	r0, .L210
 104:main.c        ****         if((int)(current_second()-setup_previous_time) ==1) display_num(-6);
 2263              		.loc 1 104 0 is_stmt 0 discriminator 1
 2264 0078 0020     		movs	r0, #0
 2265 007a 4049     		ldr	r1, .L221+12
 2266 007c FFF7FEFF 		bl	display_num
 2267              	.LVL286:
 2268              	.L210:
 105:main.c        ****         if((int)(current_second()-setup_previous_time) ==2) display_num(-7);
 2269              		.loc 1 105 0 is_stmt 1
 2270 0080 FFF7FEFF 		bl	current_second
 2271              	.LVL287:
 2272 0084 2246     		mov	r2, r4
 2273 0086 2B46     		mov	r3, r5
 2274 0088 FFF7FEFF 		bl	__aeabi_dsub
 2275              	.LVL288:
 2276 008c FFF7FEFF 		bl	__aeabi_d2iz
 2277              	.LVL289:
 2278 0090 0128     		cmp	r0, #1
 2279 0092 03D1     		bne	.L211
 105:main.c        ****         if((int)(current_second()-setup_previous_time) ==2) display_num(-7);
 2280              		.loc 1 105 0 is_stmt 0 discriminator 1
 2281 0094 0020     		movs	r0, #0
 2282 0096 3A49     		ldr	r1, .L221+16
 2283 0098 FFF7FEFF 		bl	display_num
 2284              	.LVL290:
 2285              	.L211:
 106:main.c        ****         if((int)(current_second()-setup_previous_time) ==3) display_num(-8);
 2286              		.loc 1 106 0 is_stmt 1
 2287 009c FFF7FEFF 		bl	current_second
 2288              	.LVL291:
 2289 00a0 2246     		mov	r2, r4
 2290 00a2 2B46     		mov	r3, r5
 2291 00a4 FFF7FEFF 		bl	__aeabi_dsub
 2292              	.LVL292:
 2293 00a8 FFF7FEFF 		bl	__aeabi_d2iz
 2294              	.LVL293:
 2295 00ac 0228     		cmp	r0, #2
 2296 00ae 03D1     		bne	.L212
 106:main.c        ****         if((int)(current_second()-setup_previous_time) ==3) display_num(-8);
 2297              		.loc 1 106 0 is_stmt 0 discriminator 1
 2298 00b0 0020     		movs	r0, #0
 2299 00b2 3449     		ldr	r1, .L221+20
 2300 00b4 FFF7FEFF 		bl	display_num
ARM GAS  C:\Users\ANDREW~1\AppData\Local\Temp\ccwQPnwd.s 			page 62


 2301              	.LVL294:
 2302              	.L212:
 107:main.c        ****         runtime();
 2303              		.loc 1 107 0 is_stmt 1
 2304 00b8 FFF7FEFF 		bl	current_second
 2305              	.LVL295:
 2306 00bc 2246     		mov	r2, r4
 2307 00be 2B46     		mov	r3, r5
 2308 00c0 FFF7FEFF 		bl	__aeabi_dsub
 2309              	.LVL296:
 2310 00c4 FFF7FEFF 		bl	__aeabi_d2iz
 2311              	.LVL297:
 2312 00c8 0328     		cmp	r0, #3
 2313 00ca 03D1     		bne	.L213
 107:main.c        ****         runtime();
 2314              		.loc 1 107 0 is_stmt 0 discriminator 1
 2315 00cc 0020     		movs	r0, #0
 2316 00ce 2E49     		ldr	r1, .L221+24
 2317 00d0 FFF7FEFF 		bl	display_num
 2318              	.LVL298:
 2319              	.L213:
 108:main.c        ****     }
 2320              		.loc 1 108 0 is_stmt 1
 2321 00d4 FFF7FEFF 		bl	runtime
 2322              	.LVL299:
 2323              	.L209:
 102:main.c        ****     {
 2324              		.loc 1 102 0
 2325 00d8 FFF7FEFF 		bl	current_second
 2326              	.LVL300:
 2327 00dc 2246     		mov	r2, r4
 2328 00de 2B46     		mov	r3, r5
 2329 00e0 FFF7FEFF 		bl	__aeabi_dsub
 2330              	.LVL301:
 2331 00e4 0022     		movs	r2, #0
 2332 00e6 294B     		ldr	r3, .L221+28
 2333 00e8 FFF7FEFF 		bl	__aeabi_dcmple
 2334              	.LVL302:
 2335 00ec 0028     		cmp	r0, #0
 2336 00ee BAD1     		bne	.L214
 131:main.c        ****     cm_or_inch = EEPROM_ReadByte(sizeof(int));
 2337              		.loc 1 131 0
 2338 00f0 FFF7FEFF 		bl	EEPROM_ReadByte
 2339              	.LVL303:
 2340 00f4 264B     		ldr	r3, .L221+32
 2341 00f6 1866     		str	r0, [r3, #96]
 132:main.c        ****     
 2342              		.loc 1 132 0
 2343 00f8 0420     		movs	r0, #4
 2344 00fa FFF7FEFF 		bl	EEPROM_ReadByte
 2345              	.LVL304:
 2346 00fe 254B     		ldr	r3, .L221+36
 2347 0100 1870     		strb	r0, [r3]
 135:main.c        ****     for(;;)
 2348              		.loc 1 135 0
 2349 0102 FFF7FEFF 		bl	current_second
 2350              	.LVL305:
ARM GAS  C:\Users\ANDREW~1\AppData\Local\Temp\ccwQPnwd.s 			page 63


 2351              	.L219:
 143:main.c        ****         {
 2352              		.loc 1 143 0
 2353 0106 224B     		ldr	r3, .L221+32
 2354 0108 DB6D     		ldr	r3, [r3, #92]
 2355 010a 3BB9     		cbnz	r3, .L215
 145:main.c        ****             CyDelay(5);
 2356              		.loc 1 145 0
 2357 010c 2248     		ldr	r0, .L221+40
 2358 010e FFF7FEFF 		bl	UART_1_PutString
 2359              	.LVL306:
 146:main.c        ****             
 2360              		.loc 1 146 0
 2361 0112 0520     		movs	r0, #5
 2362 0114 FFF7FEFF 		bl	CyDelay
 2363              	.LVL307:
 148:main.c        ****         
 2364              		.loc 1 148 0
 2365 0118 FFF7FEFF 		bl	mode_0
 2366              	.LVL308:
 2367              	.L215:
 151:main.c        ****         {
 2368              		.loc 1 151 0
 2369 011c 1C4B     		ldr	r3, .L221+32
 2370 011e DB6D     		ldr	r3, [r3, #92]
 2371 0120 012B     		cmp	r3, #1
 2372 0122 07D1     		bne	.L216
 153:main.c        ****             CyDelay(5);
 2373              		.loc 1 153 0
 2374 0124 1D48     		ldr	r0, .L221+44
 2375 0126 FFF7FEFF 		bl	UART_1_PutString
 2376              	.LVL309:
 154:main.c        ****             
 2377              		.loc 1 154 0
 2378 012a 0520     		movs	r0, #5
 2379 012c FFF7FEFF 		bl	CyDelay
 2380              	.LVL310:
 156:main.c        ****         }
 2381              		.loc 1 156 0
 2382 0130 FFF7FEFF 		bl	mode_1
 2383              	.LVL311:
 2384              	.L216:
 158:main.c        ****         {
 2385              		.loc 1 158 0
 2386 0134 164B     		ldr	r3, .L221+32
 2387 0136 DB6D     		ldr	r3, [r3, #92]
 2388 0138 022B     		cmp	r3, #2
 2389 013a 07D1     		bne	.L217
 160:main.c        ****            CyDelay(5);
 2390              		.loc 1 160 0
 2391 013c 1848     		ldr	r0, .L221+48
 2392 013e FFF7FEFF 		bl	UART_1_PutString
 2393              	.LVL312:
 161:main.c        ****         
 2394              		.loc 1 161 0
 2395 0142 0520     		movs	r0, #5
 2396 0144 FFF7FEFF 		bl	CyDelay
ARM GAS  C:\Users\ANDREW~1\AppData\Local\Temp\ccwQPnwd.s 			page 64


 2397              	.LVL313:
 165:main.c        ****         }
 2398              		.loc 1 165 0
 2399 0148 FFF7FEFF 		bl	mode_2
 2400              	.LVL314:
 2401              	.L217:
 167:main.c        ****         {
 2402              		.loc 1 167 0
 2403 014c 104B     		ldr	r3, .L221+32
 2404 014e DB6D     		ldr	r3, [r3, #92]
 2405 0150 032B     		cmp	r3, #3
 2406 0152 07D1     		bne	.L218
 170:main.c        ****             CyDelay(5);
 2407              		.loc 1 170 0
 2408 0154 1348     		ldr	r0, .L221+52
 2409 0156 FFF7FEFF 		bl	UART_1_PutString
 2410              	.LVL315:
 171:main.c        ****             
 2411              		.loc 1 171 0
 2412 015a 0520     		movs	r0, #5
 2413 015c FFF7FEFF 		bl	CyDelay
 2414              	.LVL316:
 173:main.c        ****         }
 2415              		.loc 1 173 0
 2416 0160 FFF7FEFF 		bl	mode_3
 2417              	.LVL317:
 2418              	.L218:
 175:main.c        ****         //mode_0();
 2419              		.loc 1 175 0
 2420 0164 0520     		movs	r0, #5
 2421 0166 FFF7FEFF 		bl	CyDelay
 2422              	.LVL318:
 195:main.c        ****         
 2423              		.loc 1 195 0
 2424 016a FFF7FEFF 		bl	runtime
 2425              	.LVL319:
 198:main.c        ****     
 2426              		.loc 1 198 0
 2427 016e CAE7     		b	.L219
 2428              	.L222:
 2429              		.align	2
 2430              	.L221:
 2431 0170 00000000 		.word	seg7_ISR
 2432 0174 00000000 		.word	Receive_Ultra
 2433 0178 10000000 		.word	.LC1
 2434 017c 000014C0 		.word	-1072431104
 2435 0180 000018C0 		.word	-1072168960
 2436 0184 00001CC0 		.word	-1071906816
 2437 0188 000020C0 		.word	-1071644672
 2438 018c 00001040 		.word	1074790400
 2439 0190 00000000 		.word	.LANCHOR0
 2440 0194 00000000 		.word	cm_or_inch
 2441 0198 1C000000 		.word	.LC2
 2442 019c 24000000 		.word	.LC3
 2443 01a0 2C000000 		.word	.LC4
 2444 01a4 34000000 		.word	.LC5
 2445              		.cfi_endproc
ARM GAS  C:\Users\ANDREW~1\AppData\Local\Temp\ccwQPnwd.s 			page 65


 2446              	.LFE64:
 2447              		.size	main, .-main
 2448              		.section	.text.DoubleButtonWait,"ax",%progbits
 2449              		.align	2
 2450              		.global	DoubleButtonWait
 2451              		.thumb
 2452              		.thumb_func
 2453              		.type	DoubleButtonWait, %function
 2454              	DoubleButtonWait:
 2455              	.LFB72:
 428:main.c        ****     while (Button_S5_Select_State_Read() == 0 && Button_S2_Left_State_Read() == 0)
 2456              		.loc 1 428 0
 2457              		.cfi_startproc
 2458              		@ args = 0, pretend = 0, frame = 0
 2459              		@ frame_needed = 0, uses_anonymous_args = 0
 2460 0000 08B5     		push	{r3, lr}
 2461              		.cfi_def_cfa_offset 8
 2462              		.cfi_offset 3, -8
 2463              		.cfi_offset 14, -4
 429:main.c        ****     {
 2464              		.loc 1 429 0
 2465 0002 01E0     		b	.L224
 2466              	.L226:
 431:main.c        ****     }
 2467              		.loc 1 431 0
 2468 0004 FFF7FEFF 		bl	runtime
 2469              	.LVL320:
 2470              	.L224:
 429:main.c        ****     {
 2471              		.loc 1 429 0
 2472 0008 FFF7FEFF 		bl	Button_S5_Select_State_Read
 2473              	.LVL321:
 2474 000c 18B9     		cbnz	r0, .L223
 429:main.c        ****     {
 2475              		.loc 1 429 0 is_stmt 0 discriminator 1
 2476 000e FFF7FEFF 		bl	Button_S2_Left_State_Read
 2477              	.LVL322:
 2478 0012 0028     		cmp	r0, #0
 2479 0014 F6D0     		beq	.L226
 2480              	.L223:
 2481 0016 08BD     		pop	{r3, pc}
 2482              		.cfi_endproc
 2483              	.LFE72:
 2484              		.size	DoubleButtonWait, .-DoubleButtonWait
 2485              		.comm	segmentPattern_array,28,4
 2486              		.global	charLookup
 2487              		.global	count
 2488              		.global	dp
 2489              		.global	D
 2490              		.global	old_dis_val
 2491              		.global	run_7_Seg
 2492              		.comm	InterruptCnt,1,1
 2493              		.global	waiting_ultra
 2494              		.comm	value_text,16,4
 2495              		.global	distance
 2496              		.comm	cm_or_inch,1,1
 2497              		.global	group_num
ARM GAS  C:\Users\ANDREW~1\AppData\Local\Temp\ccwQPnwd.s 			page 66


 2498              		.global	mode
 2499              		.global	seg_num
 2500              		.global	buzz_duration
 2501              		.global	previous_buzz
 2502              		.global	time_passed_step
 2503              		.global	counter
 2504              		.section	.rodata
 2505              		.align	2
 2506              		.set	.LANCHOR1,. + 0
 2507              		.type	charLookup, %object
 2508              		.size	charLookup, 152
 2509              	charLookup:
 2510 0000 31313131 		.ascii	"1111110\000"
 2510      31313000 
 2511 0008 30313130 		.ascii	"0110000\000"
 2511      30303000 
 2512 0010 31313031 		.ascii	"1101101\000"
 2512      31303100 
 2513 0018 31313131 		.ascii	"1111001\000"
 2513      30303100 
 2514 0020 30313130 		.ascii	"0110011\000"
 2514      30313100 
 2515 0028 31303131 		.ascii	"1011011\000"
 2515      30313100 
 2516 0030 31303131 		.ascii	"1011111\000"
 2516      31313100 
 2517 0038 31313130 		.ascii	"1110000\000"
 2517      30303000 
 2518 0040 31313131 		.ascii	"1111111\000"
 2518      31313100 
 2519 0048 31313131 		.ascii	"1111011\000"
 2519      30313100 
 2520 0050 30303030 		.ascii	"0000000\000"
 2520      30303000 
 2521 0058 30303031 		.ascii	"0001101\000"
 2521      31303100 
 2522 0060 30303130 		.ascii	"0010101\000"
 2522      31303100 
 2523 0068 30303130 		.ascii	"0010000\000"
 2523      30303000 
 2524 0070 30303130 		.ascii	"0010111\000"
 2524      31313100 
 2525 0078 31303031 		.ascii	"1001110\000"
 2525      31313000 
 2526 0080 31303031 		.ascii	"1001111\000"
 2526      31313100 
 2527 0088 30303031 		.ascii	"0001111\000"
 2527      31313100 
 2528 0090 31313130 		.ascii	"1110110\000"
 2528      31313000 
 2529              		.section	.rodata.str1.4,"aMS",%progbits,1
 2530              		.align	2
 2531              	.LC0:
 2532 0000 456E7465 		.ascii	"Enter Mode 1\012\000"
 2532      72204D6F 
 2532      64652031 
 2532      0A00
ARM GAS  C:\Users\ANDREW~1\AppData\Local\Temp\ccwQPnwd.s 			page 67


 2533 000e 0000     		.space	2
 2534              	.LC1:
 2535 0010 53746172 		.ascii	"Start UART\000"
 2535      74205541 
 2535      525400
 2536 001b 00       		.space	1
 2537              	.LC2:
 2538 001c 4D6F6465 		.ascii	"Mode 0\012\000"
 2538      20300A00 
 2539              	.LC3:
 2540 0024 4D6F6465 		.ascii	"Mode 1\012\000"
 2540      20310A00 
 2541              	.LC4:
 2542 002c 4D6F6465 		.ascii	"Mode 2\012\000"
 2542      20320A00 
 2543              	.LC5:
 2544 0034 4D6F6465 		.ascii	"Mode 3\012\000"
 2544      20330A00 
 2545              		.bss
 2546              		.align	3
 2547              		.set	.LANCHOR0,. + 0
 2548              		.type	run_7_Seg, %object
 2549              		.size	run_7_Seg, 4
 2550              	run_7_Seg:
 2551 0000 00000000 		.space	4
 2552              		.type	time_passed_step, %object
 2553              		.size	time_passed_step, 4
 2554              	time_passed_step:
 2555 0004 00000000 		.space	4
 2556              		.type	waiting_ultra, %object
 2557              		.size	waiting_ultra, 4
 2558              	waiting_ultra:
 2559 0008 00000000 		.space	4
 2560 000c 00000000 		.space	4
 2561              		.type	previous_buzz, %object
 2562              		.size	previous_buzz, 8
 2563              	previous_buzz:
 2564 0010 00000000 		.space	8
 2564      00000000 
 2565              		.type	buzz_duration, %object
 2566              		.size	buzz_duration, 8
 2567              	buzz_duration:
 2568 0018 00000000 		.space	8
 2568      00000000 
 2569              		.type	distance, %object
 2570              		.size	distance, 8
 2571              	distance:
 2572 0020 00000000 		.space	8
 2572      00000000 
 2573              		.type	seg_num, %object
 2574              		.size	seg_num, 8
 2575              	seg_num:
 2576 0028 00000000 		.space	8
 2576      00000000 
 2577              		.type	dp, %object
 2578              		.size	dp, 16
 2579              	dp:
ARM GAS  C:\Users\ANDREW~1\AppData\Local\Temp\ccwQPnwd.s 			page 68


 2580 0030 00000000 		.space	16
 2580      00000000 
 2580      00000000 
 2580      00000000 
 2581              		.type	old_dis_val, %object
 2582              		.size	old_dis_val, 8
 2583              	old_dis_val:
 2584 0040 00000000 		.space	8
 2584      00000000 
 2585              		.type	D, %object
 2586              		.size	D, 16
 2587              	D:
 2588 0048 00000000 		.space	16
 2588      00000000 
 2588      00000000 
 2588      00000000 
 2589              		.type	count, %object
 2590              		.size	count, 4
 2591              	count:
 2592 0058 00000000 		.space	4
 2593              		.type	mode, %object
 2594              		.size	mode, 4
 2595              	mode:
 2596 005c 00000000 		.space	4
 2597              		.type	group_num, %object
 2598              		.size	group_num, 4
 2599              	group_num:
 2600 0060 00000000 		.space	4
 2601 0064 00000000 		.space	4
 2602              		.type	counter, %object
 2603              		.size	counter, 8
 2604              	counter:
 2605 0068 00000000 		.space	8
 2605      00000000 
 2606              		.text
 2607              	.Letext0:
 2608              		.file 2 "d:\\monash_apps\\psoc creator\\4.4\\psoc creator\\import\\gnu\\arm\\5.4.1\\arm-none-eabi\
 2609              		.file 3 "d:\\monash_apps\\psoc creator\\4.4\\psoc creator\\import\\gnu\\arm\\5.4.1\\arm-none-eabi\
 2610              		.file 4 "Generated_Source\\PSoC5/cytypes.h"
 2611              		.file 5 "Generated_Source\\PSoC5/core_cm3.h"
 2612              		.file 6 "Generated_Source\\PSoC5/Timer_1.h"
 2613              		.file 7 "Generated_Source\\PSoC5/Timer_2.h"
 2614              		.file 8 "Generated_Source\\PSoC5/UART_1.h"
 2615              		.file 9 "Generated_Source\\PSoC5/CyLib.h"
 2616              		.file 10 "Generated_Source\\PSoC5/Buzzer.h"
 2617              		.file 11 "Generated_Source\\PSoC5/isr_6.h"
 2618              		.file 12 "Generated_Source\\PSoC5/Control_Reg_1.h"
 2619              		.file 13 "d:\\monash_apps\\psoc creator\\4.4\\psoc creator\\import\\gnu\\arm\\5.4.1\\arm-none-eabi
 2620              		.file 14 "Generated_Source\\PSoC5/Dis_D1.h"
 2621              		.file 15 "Generated_Source\\PSoC5/Dis_D2.h"
 2622              		.file 16 "Generated_Source\\PSoC5/Dis_D3.h"
 2623              		.file 17 "Generated_Source\\PSoC5/Dis_D4.h"
 2624              		.file 18 "Generated_Source\\PSoC5/Dis_A.h"
 2625              		.file 19 "Generated_Source\\PSoC5/Dis_B.h"
 2626              		.file 20 "Generated_Source\\PSoC5/Dis_C.h"
 2627              		.file 21 "Generated_Source\\PSoC5/Dis_D.h"
 2628              		.file 22 "Generated_Source\\PSoC5/Dis_E.h"
ARM GAS  C:\Users\ANDREW~1\AppData\Local\Temp\ccwQPnwd.s 			page 69


 2629              		.file 23 "Generated_Source\\PSoC5/Dis_F.h"
 2630              		.file 24 "Generated_Source\\PSoC5/Dis_G.h"
 2631              		.file 25 "Generated_Source\\PSoC5/Dis_DP.h"
 2632              		.file 26 "Generated_Source\\PSoC5/LED1_Red.h"
 2633              		.file 27 "Generated_Source\\PSoC5/LED2_Yellow.h"
 2634              		.file 28 "Generated_Source\\PSoC5/LED3_Green.h"
 2635              		.file 29 "Generated_Source\\PSoC5/Button_S5_Select_State.h"
 2636              		.file 30 "Generated_Source\\PSoC5/Button_S2_Left_State.h"
 2637              		.file 31 "Generated_Source\\PSoC5/Button_S4_Right_State.h"
 2638              		.file 32 "Generated_Source\\PSoC5/EEPROM.h"
 2639              		.file 33 "Generated_Source\\PSoC5/isr_7Seg.h"
 2640              		.file 34 "Generated_Source\\PSoC5/PGA_1.h"
 2641              		.file 35 "Generated_Source\\PSoC5/Opamp_1.h"
 2642              		.file 36 "Generated_Source\\PSoC5/Comp_1.h"
 2643              		.file 37 "Generated_Source\\PSoC5/VDAC8_1.h"
 2644              		.file 38 "Generated_Source\\PSoC5/Count7_1.h"
 2645              		.section	.debug_info,"",%progbits
 2646              	.Ldebug_info0:
 2647 0000 82130000 		.4byte	0x1382
 2648 0004 0400     		.2byte	0x4
 2649 0006 00000000 		.4byte	.Ldebug_abbrev0
 2650 000a 04       		.byte	0x4
 2651 000b 01       		.uleb128 0x1
 2652 000c A0010000 		.4byte	.LASF128
 2653 0010 0C       		.byte	0xc
 2654 0011 32000000 		.4byte	.LASF129
 2655 0015 0F050000 		.4byte	.LASF130
 2656 0019 30000000 		.4byte	.Ldebug_ranges0+0x30
 2657 001d 00000000 		.4byte	0
 2658 0021 00000000 		.4byte	.Ldebug_line0
 2659 0025 02       		.uleb128 0x2
 2660 0026 08       		.byte	0x8
 2661 0027 04       		.byte	0x4
 2662 0028 52070000 		.4byte	.LASF0
 2663 002c 02       		.uleb128 0x2
 2664 002d 01       		.byte	0x1
 2665 002e 06       		.byte	0x6
 2666 002f E0060000 		.4byte	.LASF1
 2667 0033 02       		.uleb128 0x2
 2668 0034 01       		.byte	0x1
 2669 0035 08       		.byte	0x8
 2670 0036 0A060000 		.4byte	.LASF2
 2671 003a 02       		.uleb128 0x2
 2672 003b 02       		.byte	0x2
 2673 003c 05       		.byte	0x5
 2674 003d BC040000 		.4byte	.LASF3
 2675 0041 02       		.uleb128 0x2
 2676 0042 02       		.byte	0x2
 2677 0043 07       		.byte	0x7
 2678 0044 0A070000 		.4byte	.LASF4
 2679 0048 03       		.uleb128 0x3
 2680 0049 9E000000 		.4byte	.LASF10
 2681 004d 02       		.byte	0x2
 2682 004e 3F       		.byte	0x3f
 2683 004f 53000000 		.4byte	0x53
 2684 0053 02       		.uleb128 0x2
 2685 0054 04       		.byte	0x4
ARM GAS  C:\Users\ANDREW~1\AppData\Local\Temp\ccwQPnwd.s 			page 70


 2686 0055 05       		.byte	0x5
 2687 0056 C6040000 		.4byte	.LASF5
 2688 005a 02       		.uleb128 0x2
 2689 005b 04       		.byte	0x4
 2690 005c 07       		.byte	0x7
 2691 005d C5050000 		.4byte	.LASF6
 2692 0061 02       		.uleb128 0x2
 2693 0062 08       		.byte	0x8
 2694 0063 05       		.byte	0x5
 2695 0064 B0030000 		.4byte	.LASF7
 2696 0068 02       		.uleb128 0x2
 2697 0069 08       		.byte	0x8
 2698 006a 07       		.byte	0x7
 2699 006b 39010000 		.4byte	.LASF8
 2700 006f 04       		.uleb128 0x4
 2701 0070 04       		.byte	0x4
 2702 0071 05       		.byte	0x5
 2703 0072 696E7400 		.ascii	"int\000"
 2704 0076 02       		.uleb128 0x2
 2705 0077 04       		.byte	0x4
 2706 0078 07       		.byte	0x7
 2707 0079 6D000000 		.4byte	.LASF9
 2708 007d 03       		.uleb128 0x3
 2709 007e E3050000 		.4byte	.LASF11
 2710 0082 03       		.byte	0x3
 2711 0083 2C       		.byte	0x2c
 2712 0084 48000000 		.4byte	0x48
 2713 0088 05       		.uleb128 0x5
 2714 0089 4C070000 		.4byte	.LASF12
 2715 008d 04       		.byte	0x4
 2716 008e E801     		.2byte	0x1e8
 2717 0090 33000000 		.4byte	0x33
 2718 0094 02       		.uleb128 0x2
 2719 0095 04       		.byte	0x4
 2720 0096 04       		.byte	0x4
 2721 0097 07010000 		.4byte	.LASF13
 2722 009b 02       		.uleb128 0x2
 2723 009c 01       		.byte	0x1
 2724 009d 08       		.byte	0x8
 2725 009e DD020000 		.4byte	.LASF14
 2726 00a2 02       		.uleb128 0x2
 2727 00a3 08       		.byte	0x8
 2728 00a4 04       		.byte	0x4
 2729 00a5 4E040000 		.4byte	.LASF15
 2730 00a9 02       		.uleb128 0x2
 2731 00aa 04       		.byte	0x4
 2732 00ab 07       		.byte	0x7
 2733 00ac BC050000 		.4byte	.LASF16
 2734 00b0 06       		.uleb128 0x6
 2735 00b1 04       		.byte	0x4
 2736 00b2 B6000000 		.4byte	0xb6
 2737 00b6 07       		.uleb128 0x7
 2738 00b7 9B000000 		.4byte	0x9b
 2739 00bb 06       		.uleb128 0x6
 2740 00bc 04       		.byte	0x4
 2741 00bd C1000000 		.4byte	0xc1
 2742 00c1 08       		.uleb128 0x8
ARM GAS  C:\Users\ANDREW~1\AppData\Local\Temp\ccwQPnwd.s 			page 71


 2743 00c2 09       		.uleb128 0x9
 2744 00c3 58030000 		.4byte	.LASF34
 2745 00c7 01       		.byte	0x1
 2746 00c8 8502     		.2byte	0x285
 2747 00ca 6F000000 		.4byte	0x6f
 2748 00ce 00000000 		.4byte	.LFB82
 2749 00d2 08000000 		.4byte	.LFE82-.LFB82
 2750 00d6 01       		.uleb128 0x1
 2751 00d7 9C       		.byte	0x9c
 2752 00d8 F7000000 		.4byte	0xf7
 2753 00dc 0A       		.uleb128 0xa
 2754 00dd 6100     		.ascii	"a\000"
 2755 00df 01       		.byte	0x1
 2756 00e0 8502     		.2byte	0x285
 2757 00e2 BB000000 		.4byte	0xbb
 2758 00e6 00000000 		.4byte	.LLST0
 2759 00ea 0B       		.uleb128 0xb
 2760 00eb 6200     		.ascii	"b\000"
 2761 00ed 01       		.byte	0x1
 2762 00ee 8502     		.2byte	0x285
 2763 00f0 BB000000 		.4byte	0xbb
 2764 00f4 01       		.uleb128 0x1
 2765 00f5 51       		.byte	0x51
 2766 00f6 00       		.byte	0
 2767 00f7 0C       		.uleb128 0xc
 2768 00f8 95070000 		.4byte	.LASF17
 2769 00fc 01       		.byte	0x1
 2770 00fd A302     		.2byte	0x2a3
 2771 00ff 00000000 		.4byte	.LFB84
 2772 0103 0C000000 		.4byte	.LFE84-.LFB84
 2773 0107 01       		.uleb128 0x1
 2774 0108 9C       		.byte	0x9c
 2775 0109 0D       		.uleb128 0xd
 2776 010a F4000000 		.4byte	.LASF20
 2777 010e 01       		.byte	0x1
 2778 010f 7B02     		.2byte	0x27b
 2779 0111 00000000 		.4byte	.LFB81
 2780 0115 20000000 		.4byte	.LFE81-.LFB81
 2781 0119 01       		.uleb128 0x1
 2782 011a 9C       		.byte	0x9c
 2783 011b 3B010000 		.4byte	0x13b
 2784 011f 0E       		.uleb128 0xe
 2785 0120 06000000 		.4byte	.LVL2
 2786 0124 77110000 		.4byte	0x1177
 2787 0128 0E       		.uleb128 0xe
 2788 0129 0A000000 		.4byte	.LVL3
 2789 012d 82110000 		.4byte	0x1182
 2790 0131 0E       		.uleb128 0xe
 2791 0132 10000000 		.4byte	.LVL4
 2792 0136 8D110000 		.4byte	0x118d
 2793 013a 00       		.byte	0
 2794 013b 0C       		.uleb128 0xc
 2795 013c E2020000 		.4byte	.LASF18
 2796 0140 01       		.byte	0x1
 2797 0141 9501     		.2byte	0x195
 2798 0143 00000000 		.4byte	.LFB69
 2799 0147 02000000 		.4byte	.LFE69-.LFB69
ARM GAS  C:\Users\ANDREW~1\AppData\Local\Temp\ccwQPnwd.s 			page 72


 2800 014b 01       		.uleb128 0x1
 2801 014c 9C       		.byte	0x9c
 2802 014d 0C       		.uleb128 0xc
 2803 014e A5020000 		.4byte	.LASF19
 2804 0152 01       		.byte	0x1
 2805 0153 9C01     		.2byte	0x19c
 2806 0155 00000000 		.4byte	.LFB70
 2807 0159 02000000 		.4byte	.LFE70-.LFB70
 2808 015d 01       		.uleb128 0x1
 2809 015e 9C       		.byte	0x9c
 2810 015f 0F       		.uleb128 0xf
 2811 0160 4D000000 		.4byte	.LASF21
 2812 0164 01       		.byte	0x1
 2813 0165 C801     		.2byte	0x1c8
 2814 0167 25000000 		.4byte	0x25
 2815 016b 00000000 		.4byte	.LFB74
 2816 016f 20000000 		.4byte	.LFE74-.LFB74
 2817 0173 01       		.uleb128 0x1
 2818 0174 9C       		.byte	0x9c
 2819 0175 9C010000 		.4byte	0x19c
 2820 0179 10       		.uleb128 0x10
 2821 017a 7C010000 		.4byte	.LASF23
 2822 017e 01       		.byte	0x1
 2823 017f CA01     		.2byte	0x1ca
 2824 0181 25000000 		.4byte	0x25
 2825 0185 21000000 		.4byte	.LLST1
 2826 0189 0E       		.uleb128 0xe
 2827 018a 06000000 		.4byte	.LVL5
 2828 018e 98110000 		.4byte	0x1198
 2829 0192 0E       		.uleb128 0xe
 2830 0193 0C000000 		.4byte	.LVL6
 2831 0197 A3110000 		.4byte	0x11a3
 2832 019b 00       		.byte	0
 2833 019c 0D       		.uleb128 0xd
 2834 019d DC040000 		.4byte	.LASF22
 2835 01a1 01       		.byte	0x1
 2836 01a2 0302     		.2byte	0x203
 2837 01a4 00000000 		.4byte	.LFB75
 2838 01a8 68000000 		.4byte	.LFE75-.LFB75
 2839 01ac 01       		.uleb128 0x1
 2840 01ad 9C       		.byte	0x9c
 2841 01ae 2F020000 		.4byte	0x22f
 2842 01b2 0A       		.uleb128 0xa
 2843 01b3 6E756D00 		.ascii	"num\000"
 2844 01b7 01       		.byte	0x1
 2845 01b8 0302     		.2byte	0x203
 2846 01ba 6F000000 		.4byte	0x6f
 2847 01be 49000000 		.4byte	.LLST2
 2848 01c2 10       		.uleb128 0x10
 2849 01c3 DD000000 		.4byte	.LASF24
 2850 01c7 01       		.byte	0x1
 2851 01c8 0502     		.2byte	0x205
 2852 01ca 6F000000 		.4byte	0x6f
 2853 01ce 67000000 		.4byte	.LLST3
 2854 01d2 10       		.uleb128 0x10
 2855 01d3 FD040000 		.4byte	.LASF25
 2856 01d7 01       		.byte	0x1
ARM GAS  C:\Users\ANDREW~1\AppData\Local\Temp\ccwQPnwd.s 			page 73


 2857 01d8 0602     		.2byte	0x206
 2858 01da 6F000000 		.4byte	0x6f
 2859 01de 86000000 		.4byte	.LLST4
 2860 01e2 11       		.uleb128 0x11
 2861 01e3 1A000000 		.4byte	.LBB2
 2862 01e7 2A000000 		.4byte	.LBE2-.LBB2
 2863 01eb FE010000 		.4byte	0x1fe
 2864 01ef 12       		.uleb128 0x12
 2865 01f0 6900     		.ascii	"i\000"
 2866 01f2 01       		.byte	0x1
 2867 01f3 0E02     		.2byte	0x20e
 2868 01f5 6F000000 		.4byte	0x6f
 2869 01f9 AF000000 		.4byte	.LLST5
 2870 01fd 00       		.byte	0
 2871 01fe 13       		.uleb128 0x13
 2872 01ff 44000000 		.4byte	.LBB3
 2873 0203 18000000 		.4byte	.LBE3-.LBB3
 2874 0207 12       		.uleb128 0x12
 2875 0208 6900     		.ascii	"i\000"
 2876 020a 01       		.byte	0x1
 2877 020b 1302     		.2byte	0x213
 2878 020d 6F000000 		.4byte	0x6f
 2879 0211 C2000000 		.4byte	.LLST6
 2880 0215 0E       		.uleb128 0xe
 2881 0216 50000000 		.4byte	.LVL20
 2882 021a AE110000 		.4byte	0x11ae
 2883 021e 14       		.uleb128 0x14
 2884 021f 56000000 		.4byte	.LVL21
 2885 0223 B9110000 		.4byte	0x11b9
 2886 0227 15       		.uleb128 0x15
 2887 0228 01       		.uleb128 0x1
 2888 0229 50       		.byte	0x50
 2889 022a 01       		.uleb128 0x1
 2890 022b 35       		.byte	0x35
 2891 022c 00       		.byte	0
 2892 022d 00       		.byte	0
 2893 022e 00       		.byte	0
 2894 022f 0D       		.uleb128 0xd
 2895 0230 68040000 		.4byte	.LASF26
 2896 0234 01       		.byte	0x1
 2897 0235 1C02     		.2byte	0x21c
 2898 0237 00000000 		.4byte	.LFB76
 2899 023b 1C000000 		.4byte	.LFE76-.LFB76
 2900 023f 01       		.uleb128 0x1
 2901 0240 9C       		.byte	0x9c
 2902 0241 5F020000 		.4byte	0x25f
 2903 0245 16       		.uleb128 0x16
 2904 0246 13010000 		.4byte	.LASF27
 2905 024a 01       		.byte	0x1
 2906 024b 1C02     		.2byte	0x21c
 2907 024d 25000000 		.4byte	0x25
 2908 0251 D5000000 		.4byte	.LLST7
 2909 0255 0E       		.uleb128 0xe
 2910 0256 0A000000 		.4byte	.LVL25
 2911 025a 5F010000 		.4byte	0x15f
 2912 025e 00       		.byte	0
 2913 025f 17       		.uleb128 0x17
ARM GAS  C:\Users\ANDREW~1\AppData\Local\Temp\ccwQPnwd.s 			page 74


 2914 0260 46020000 		.4byte	.LASF28
 2915 0264 01       		.byte	0x1
 2916 0265 2102     		.2byte	0x221
 2917 0267 00000000 		.4byte	.LFB77
 2918 026b 34000000 		.4byte	.LFE77-.LFB77
 2919 026f 01       		.uleb128 0x1
 2920 0270 9C       		.byte	0x9c
 2921 0271 C1020000 		.4byte	0x2c1
 2922 0275 16       		.uleb128 0x16
 2923 0276 13010000 		.4byte	.LASF27
 2924 027a 01       		.byte	0x1
 2925 027b 2102     		.2byte	0x221
 2926 027d 25000000 		.4byte	0x25
 2927 0281 FD000000 		.4byte	.LLST8
 2928 0285 10       		.uleb128 0x10
 2929 0286 86070000 		.4byte	.LASF29
 2930 028a 01       		.byte	0x1
 2931 028b 2302     		.2byte	0x223
 2932 028d 25000000 		.4byte	0x25
 2933 0291 25010000 		.4byte	.LLST9
 2934 0295 0E       		.uleb128 0xe
 2935 0296 0A000000 		.4byte	.LVL27
 2936 029a 5F010000 		.4byte	0x15f
 2937 029e 18       		.uleb128 0x18
 2938 029f 24000000 		.4byte	.LVL30
 2939 02a3 C4110000 		.4byte	0x11c4
 2940 02a7 B1020000 		.4byte	0x2b1
 2941 02ab 15       		.uleb128 0x15
 2942 02ac 01       		.uleb128 0x1
 2943 02ad 50       		.byte	0x50
 2944 02ae 01       		.uleb128 0x1
 2945 02af 30       		.byte	0x30
 2946 02b0 00       		.byte	0
 2947 02b1 14       		.uleb128 0x14
 2948 02b2 2C000000 		.4byte	.LVL31
 2949 02b6 C4110000 		.4byte	0x11c4
 2950 02ba 15       		.uleb128 0x15
 2951 02bb 01       		.uleb128 0x1
 2952 02bc 50       		.byte	0x50
 2953 02bd 01       		.uleb128 0x1
 2954 02be 31       		.byte	0x31
 2955 02bf 00       		.byte	0
 2956 02c0 00       		.byte	0
 2957 02c1 0F       		.uleb128 0xf
 2958 02c2 62060000 		.4byte	.LASF30
 2959 02c6 01       		.byte	0x1
 2960 02c7 5202     		.2byte	0x252
 2961 02c9 25000000 		.4byte	0x25
 2962 02cd 00000000 		.4byte	.LFB79
 2963 02d1 78000000 		.4byte	.LFE79-.LFB79
 2964 02d5 01       		.uleb128 0x1
 2965 02d6 9C       		.byte	0x9c
 2966 02d7 88030000 		.4byte	0x388
 2967 02db 19       		.uleb128 0x19
 2968 02dc 80040000 		.4byte	.LASF31
 2969 02e0 01       		.byte	0x1
 2970 02e1 6102     		.2byte	0x261
ARM GAS  C:\Users\ANDREW~1\AppData\Local\Temp\ccwQPnwd.s 			page 75


 2971 02e3 25000000 		.4byte	0x25
 2972 02e7 19       		.uleb128 0x19
 2973 02e8 1E030000 		.4byte	.LASF32
 2974 02ec 01       		.byte	0x1
 2975 02ed 6202     		.2byte	0x262
 2976 02ef 25000000 		.4byte	0x25
 2977 02f3 10       		.uleb128 0x10
 2978 02f4 81010000 		.4byte	.LASF33
 2979 02f8 01       		.byte	0x1
 2980 02f9 6A02     		.2byte	0x26a
 2981 02fb 25000000 		.4byte	0x25
 2982 02ff 3D010000 		.4byte	.LLST10
 2983 0303 0E       		.uleb128 0xe
 2984 0304 06000000 		.4byte	.LVL32
 2985 0308 CF110000 		.4byte	0x11cf
 2986 030c 18       		.uleb128 0x18
 2987 030d 0C000000 		.4byte	.LVL33
 2988 0311 DA110000 		.4byte	0x11da
 2989 0315 23030000 		.4byte	0x323
 2990 0319 15       		.uleb128 0x15
 2991 031a 01       		.uleb128 0x1
 2992 031b 50       		.byte	0x50
 2993 031c 05       		.uleb128 0x5
 2994 031d 03       		.byte	0x3
 2995 031e 00000000 		.4byte	Receive_Ultra
 2996 0322 00       		.byte	0
 2997 0323 18       		.uleb128 0x18
 2998 0324 12000000 		.4byte	.LVL34
 2999 0328 E5110000 		.4byte	0x11e5
 3000 032c 36030000 		.4byte	0x336
 3001 0330 15       		.uleb128 0x15
 3002 0331 01       		.uleb128 0x1
 3003 0332 50       		.byte	0x50
 3004 0333 01       		.uleb128 0x1
 3005 0334 31       		.byte	0x31
 3006 0335 00       		.byte	0
 3007 0336 18       		.uleb128 0x18
 3008 0337 18000000 		.4byte	.LVL35
 3009 033b F0110000 		.4byte	0x11f0
 3010 033f 4A030000 		.4byte	0x34a
 3011 0343 15       		.uleb128 0x15
 3012 0344 01       		.uleb128 0x1
 3013 0345 50       		.byte	0x50
 3014 0346 02       		.uleb128 0x2
 3015 0347 08       		.byte	0x8
 3016 0348 96       		.byte	0x96
 3017 0349 00       		.byte	0
 3018 034a 18       		.uleb128 0x18
 3019 034b 1E000000 		.4byte	.LVL36
 3020 034f E5110000 		.4byte	0x11e5
 3021 0353 5D030000 		.4byte	0x35d
 3022 0357 15       		.uleb128 0x15
 3023 0358 01       		.uleb128 0x1
 3024 0359 50       		.byte	0x50
 3025 035a 01       		.uleb128 0x1
 3026 035b 30       		.byte	0x30
 3027 035c 00       		.byte	0
ARM GAS  C:\Users\ANDREW~1\AppData\Local\Temp\ccwQPnwd.s 			page 76


 3028 035d 0E       		.uleb128 0xe
 3029 035e 22000000 		.4byte	.LVL37
 3030 0362 FB110000 		.4byte	0x11fb
 3031 0366 0E       		.uleb128 0xe
 3032 0367 2C000000 		.4byte	.LVL38
 3033 036b 5F010000 		.4byte	0x15f
 3034 036f 0E       		.uleb128 0xe
 3035 0370 30000000 		.4byte	.LVL39
 3036 0374 5F010000 		.4byte	0x15f
 3037 0378 14       		.uleb128 0x14
 3038 0379 36000000 		.4byte	.LVL40
 3039 037d B9110000 		.4byte	0x11b9
 3040 0381 15       		.uleb128 0x15
 3041 0382 01       		.uleb128 0x1
 3042 0383 50       		.byte	0x50
 3043 0384 01       		.uleb128 0x1
 3044 0385 3A       		.byte	0x3a
 3045 0386 00       		.byte	0
 3046 0387 00       		.byte	0
 3047 0388 1A       		.uleb128 0x1a
 3048 0389 B5060000 		.4byte	.LASF50
 3049 038d 01       		.byte	0x1
 3050 038e 6F02     		.2byte	0x26f
 3051 0390 00000000 		.4byte	.LFB80
 3052 0394 24000000 		.4byte	.LFE80-.LFB80
 3053 0398 01       		.uleb128 0x1
 3054 0399 9C       		.byte	0x9c
 3055 039a E2030000 		.4byte	0x3e2
 3056 039e 18       		.uleb128 0x18
 3057 039f 08000000 		.4byte	.LVL45
 3058 03a3 E5110000 		.4byte	0x11e5
 3059 03a7 B1030000 		.4byte	0x3b1
 3060 03ab 15       		.uleb128 0x15
 3061 03ac 01       		.uleb128 0x1
 3062 03ad 50       		.byte	0x50
 3063 03ae 01       		.uleb128 0x1
 3064 03af 31       		.byte	0x31
 3065 03b0 00       		.byte	0
 3066 03b1 18       		.uleb128 0x18
 3067 03b2 0E000000 		.4byte	.LVL46
 3068 03b6 F0110000 		.4byte	0x11f0
 3069 03ba C5030000 		.4byte	0x3c5
 3070 03be 15       		.uleb128 0x15
 3071 03bf 01       		.uleb128 0x1
 3072 03c0 50       		.byte	0x50
 3073 03c1 02       		.uleb128 0x2
 3074 03c2 08       		.byte	0x8
 3075 03c3 96       		.byte	0x96
 3076 03c4 00       		.byte	0
 3077 03c5 18       		.uleb128 0x18
 3078 03c6 14000000 		.4byte	.LVL47
 3079 03ca E5110000 		.4byte	0x11e5
 3080 03ce D8030000 		.4byte	0x3d8
 3081 03d2 15       		.uleb128 0x15
 3082 03d3 01       		.uleb128 0x1
 3083 03d4 50       		.byte	0x50
 3084 03d5 01       		.uleb128 0x1
ARM GAS  C:\Users\ANDREW~1\AppData\Local\Temp\ccwQPnwd.s 			page 77


 3085 03d6 30       		.byte	0x30
 3086 03d7 00       		.byte	0
 3087 03d8 0E       		.uleb128 0xe
 3088 03d9 18000000 		.4byte	.LVL48
 3089 03dd FB110000 		.4byte	0x11fb
 3090 03e1 00       		.byte	0
 3091 03e2 1B       		.uleb128 0x1b
 3092 03e3 7A030000 		.4byte	.LASF35
 3093 03e7 01       		.byte	0x1
 3094 03e8 8B02     		.2byte	0x28b
 3095 03ea 94000000 		.4byte	0x94
 3096 03ee 00000000 		.4byte	.LFB83
 3097 03f2 C8000000 		.4byte	.LFE83-.LFB83
 3098 03f6 01       		.uleb128 0x1
 3099 03f7 9C       		.byte	0x9c
 3100 03f8 51040000 		.4byte	0x451
 3101 03fc 0A       		.uleb128 0xa
 3102 03fd 61727200 		.ascii	"arr\000"
 3103 0401 01       		.byte	0x1
 3104 0402 8B02     		.2byte	0x28b
 3105 0404 51040000 		.4byte	0x451
 3106 0408 55010000 		.4byte	.LLST11
 3107 040c 16       		.uleb128 0x16
 3108 040d 08040000 		.4byte	.LASF36
 3109 0411 01       		.byte	0x1
 3110 0412 8B02     		.2byte	0x28b
 3111 0414 6F000000 		.4byte	0x6f
 3112 0418 81010000 		.4byte	.LLST12
 3113 041c 10       		.uleb128 0x10
 3114 041d B2000000 		.4byte	.LASF37
 3115 0421 01       		.byte	0x1
 3116 0422 8D02     		.2byte	0x28d
 3117 0424 25000000 		.4byte	0x25
 3118 0428 D3010000 		.4byte	.LLST13
 3119 042c 14       		.uleb128 0x14
 3120 042d 0E000000 		.4byte	.LVL50
 3121 0431 06120000 		.4byte	0x1206
 3122 0435 15       		.uleb128 0x15
 3123 0436 01       		.uleb128 0x1
 3124 0437 50       		.byte	0x50
 3125 0438 02       		.uleb128 0x2
 3126 0439 75       		.byte	0x75
 3127 043a 00       		.sleb128 0
 3128 043b 15       		.uleb128 0x15
 3129 043c 01       		.uleb128 0x1
 3130 043d 51       		.byte	0x51
 3131 043e 02       		.uleb128 0x2
 3132 043f 74       		.byte	0x74
 3133 0440 00       		.sleb128 0
 3134 0441 15       		.uleb128 0x15
 3135 0442 01       		.uleb128 0x1
 3136 0443 52       		.byte	0x52
 3137 0444 01       		.uleb128 0x1
 3138 0445 34       		.byte	0x34
 3139 0446 15       		.uleb128 0x15
 3140 0447 01       		.uleb128 0x1
 3141 0448 53       		.byte	0x53
ARM GAS  C:\Users\ANDREW~1\AppData\Local\Temp\ccwQPnwd.s 			page 78


 3142 0449 05       		.uleb128 0x5
 3143 044a 03       		.byte	0x3
 3144 044b 00000000 		.4byte	compare_qsort
 3145 044f 00       		.byte	0
 3146 0450 00       		.byte	0
 3147 0451 06       		.uleb128 0x6
 3148 0452 04       		.byte	0x4
 3149 0453 94000000 		.4byte	0x94
 3150 0457 0F       		.uleb128 0xf
 3151 0458 AB060000 		.4byte	.LASF38
 3152 045c 01       		.byte	0x1
 3153 045d 3002     		.2byte	0x230
 3154 045f 25000000 		.4byte	0x25
 3155 0463 00000000 		.4byte	.LFB78
 3156 0467 70000000 		.4byte	.LFE78-.LFB78
 3157 046b 01       		.uleb128 0x1
 3158 046c 9C       		.byte	0x9c
 3159 046d 52050000 		.4byte	0x552
 3160 0471 1C       		.uleb128 0x1c
 3161 0472 02010000 		.4byte	.LASF39
 3162 0476 01       		.byte	0x1
 3163 0477 3402     		.2byte	0x234
 3164 0479 52050000 		.4byte	0x552
 3165 047d 02       		.uleb128 0x2
 3166 047e 91       		.byte	0x91
 3167 047f 48       		.sleb128 -56
 3168 0480 1C       		.uleb128 0x1c
 3169 0481 F0040000 		.4byte	.LASF40
 3170 0485 01       		.byte	0x1
 3171 0486 3502     		.2byte	0x235
 3172 0488 62050000 		.4byte	0x562
 3173 048c 03       		.uleb128 0x3
 3174 048d 91       		.byte	0x91
 3175 048e F87E     		.sleb128 -136
 3176 0490 1C       		.uleb128 0x1c
 3177 0491 FF060000 		.4byte	.LASF41
 3178 0495 01       		.byte	0x1
 3179 0496 3602     		.2byte	0x236
 3180 0498 25000000 		.4byte	0x25
 3181 049c 06       		.uleb128 0x6
 3182 049d 50       		.byte	0x50
 3183 049e 93       		.byte	0x93
 3184 049f 04       		.uleb128 0x4
 3185 04a0 51       		.byte	0x51
 3186 04a1 93       		.byte	0x93
 3187 04a2 04       		.uleb128 0x4
 3188 04a3 11       		.uleb128 0x11
 3189 04a4 18000000 		.4byte	.LBB4
 3190 04a8 42000000 		.4byte	.LBE4-.LBB4
 3191 04ac FE040000 		.4byte	0x4fe
 3192 04b0 12       		.uleb128 0x12
 3193 04b1 7800     		.ascii	"x\000"
 3194 04b3 01       		.byte	0x1
 3195 04b4 3A02     		.2byte	0x23a
 3196 04b6 6F000000 		.4byte	0x6f
 3197 04ba FB010000 		.4byte	.LLST14
 3198 04be 1D       		.uleb128 0x1d
ARM GAS  C:\Users\ANDREW~1\AppData\Local\Temp\ccwQPnwd.s 			page 79


 3199 04bf 00000000 		.4byte	.Ldebug_ranges0+0
 3200 04c3 E8040000 		.4byte	0x4e8
 3201 04c7 12       		.uleb128 0x12
 3202 04c8 6900     		.ascii	"i\000"
 3203 04ca 01       		.byte	0x1
 3204 04cb 4002     		.2byte	0x240
 3205 04cd 6F000000 		.4byte	0x6f
 3206 04d1 1A020000 		.4byte	.LLST15
 3207 04d5 0E       		.uleb128 0xe
 3208 04d6 26000000 		.4byte	.LVL73
 3209 04da 5F020000 		.4byte	0x25f
 3210 04de 0E       		.uleb128 0xe
 3211 04df 2A000000 		.4byte	.LVL74
 3212 04e3 C1020000 		.4byte	0x2c1
 3213 04e7 00       		.byte	0
 3214 04e8 14       		.uleb128 0x14
 3215 04e9 4A000000 		.4byte	.LVL79
 3216 04ed E2030000 		.4byte	0x3e2
 3217 04f1 15       		.uleb128 0x15
 3218 04f2 01       		.uleb128 0x1
 3219 04f3 50       		.byte	0x50
 3220 04f4 02       		.uleb128 0x2
 3221 04f5 91       		.byte	0x91
 3222 04f6 48       		.sleb128 -56
 3223 04f7 15       		.uleb128 0x15
 3224 04f8 01       		.uleb128 0x1
 3225 04f9 51       		.byte	0x51
 3226 04fa 01       		.uleb128 0x1
 3227 04fb 3A       		.byte	0x3a
 3228 04fc 00       		.byte	0
 3229 04fd 00       		.byte	0
 3230 04fe 18       		.uleb128 0x18
 3231 04ff 0E000000 		.4byte	.LVL70
 3232 0503 11120000 		.4byte	0x1211
 3233 0507 1D050000 		.4byte	0x51d
 3234 050b 15       		.uleb128 0x15
 3235 050c 01       		.uleb128 0x1
 3236 050d 50       		.byte	0x50
 3237 050e 02       		.uleb128 0x2
 3238 050f 91       		.byte	0x91
 3239 0510 48       		.sleb128 -56
 3240 0511 15       		.uleb128 0x15
 3241 0512 01       		.uleb128 0x1
 3242 0513 51       		.byte	0x51
 3243 0514 01       		.uleb128 0x1
 3244 0515 30       		.byte	0x30
 3245 0516 15       		.uleb128 0x15
 3246 0517 01       		.uleb128 0x1
 3247 0518 52       		.byte	0x52
 3248 0519 02       		.uleb128 0x2
 3249 051a 08       		.byte	0x8
 3250 051b 28       		.byte	0x28
 3251 051c 00       		.byte	0
 3252 051d 18       		.uleb128 0x18
 3253 051e 18000000 		.4byte	.LVL71
 3254 0522 11120000 		.4byte	0x1211
 3255 0526 3C050000 		.4byte	0x53c
ARM GAS  C:\Users\ANDREW~1\AppData\Local\Temp\ccwQPnwd.s 			page 80


 3256 052a 15       		.uleb128 0x15
 3257 052b 01       		.uleb128 0x1
 3258 052c 50       		.byte	0x50
 3259 052d 02       		.uleb128 0x2
 3260 052e 7D       		.byte	0x7d
 3261 052f 00       		.sleb128 0
 3262 0530 15       		.uleb128 0x15
 3263 0531 01       		.uleb128 0x1
 3264 0532 51       		.byte	0x51
 3265 0533 01       		.uleb128 0x1
 3266 0534 30       		.byte	0x30
 3267 0535 15       		.uleb128 0x15
 3268 0536 01       		.uleb128 0x1
 3269 0537 52       		.byte	0x52
 3270 0538 02       		.uleb128 0x2
 3271 0539 08       		.byte	0x8
 3272 053a 50       		.byte	0x50
 3273 053b 00       		.byte	0
 3274 053c 14       		.uleb128 0x14
 3275 053d 62000000 		.4byte	.LVL81
 3276 0541 E2030000 		.4byte	0x3e2
 3277 0545 15       		.uleb128 0x15
 3278 0546 01       		.uleb128 0x1
 3279 0547 50       		.byte	0x50
 3280 0548 02       		.uleb128 0x2
 3281 0549 7D       		.byte	0x7d
 3282 054a 00       		.sleb128 0
 3283 054b 15       		.uleb128 0x15
 3284 054c 01       		.uleb128 0x1
 3285 054d 51       		.byte	0x51
 3286 054e 01       		.uleb128 0x1
 3287 054f 44       		.byte	0x44
 3288 0550 00       		.byte	0
 3289 0551 00       		.byte	0
 3290 0552 1E       		.uleb128 0x1e
 3291 0553 94000000 		.4byte	0x94
 3292 0557 62050000 		.4byte	0x562
 3293 055b 1F       		.uleb128 0x1f
 3294 055c A9000000 		.4byte	0xa9
 3295 0560 09       		.byte	0x9
 3296 0561 00       		.byte	0
 3297 0562 1E       		.uleb128 0x1e
 3298 0563 94000000 		.4byte	0x94
 3299 0567 72050000 		.4byte	0x572
 3300 056b 1F       		.uleb128 0x1f
 3301 056c A9000000 		.4byte	0xa9
 3302 0570 13       		.byte	0x13
 3303 0571 00       		.byte	0
 3304 0572 0D       		.uleb128 0xd
 3305 0573 39000000 		.4byte	.LASF42
 3306 0577 01       		.byte	0x1
 3307 0578 AE02     		.2byte	0x2ae
 3308 057a 00000000 		.4byte	.LFB85
 3309 057e 0C000000 		.4byte	.LFE85-.LFB85
 3310 0582 01       		.uleb128 0x1
 3311 0583 9C       		.byte	0x9c
 3312 0584 9C050000 		.4byte	0x59c
ARM GAS  C:\Users\ANDREW~1\AppData\Local\Temp\ccwQPnwd.s 			page 81


 3313 0588 20       		.uleb128 0x20
 3314 0589 81010000 		.4byte	.LASF33
 3315 058d 01       		.byte	0x1
 3316 058e AE02     		.2byte	0x2ae
 3317 0590 25000000 		.4byte	0x25
 3318 0594 06       		.uleb128 0x6
 3319 0595 50       		.byte	0x50
 3320 0596 93       		.byte	0x93
 3321 0597 04       		.uleb128 0x4
 3322 0598 51       		.byte	0x51
 3323 0599 93       		.byte	0x93
 3324 059a 04       		.uleb128 0x4
 3325 059b 00       		.byte	0
 3326 059c 21       		.uleb128 0x21
 3327 059d 0D040000 		.4byte	.LASF43
 3328 05a1 01       		.byte	0x1
 3329 05a2 3003     		.2byte	0x330
 3330 05a4 6F000000 		.4byte	0x6f
 3331 05a8 00000000 		.4byte	.LFB87
 3332 05ac 1C000000 		.4byte	.LFE87-.LFB87
 3333 05b0 01       		.uleb128 0x1
 3334 05b1 9C       		.byte	0x9c
 3335 05b2 FF050000 		.4byte	0x5ff
 3336 05b6 18       		.uleb128 0x18
 3337 05b7 08000000 		.4byte	.LVL85
 3338 05bb 1A120000 		.4byte	0x121a
 3339 05bf C9050000 		.4byte	0x5c9
 3340 05c3 15       		.uleb128 0x15
 3341 05c4 01       		.uleb128 0x1
 3342 05c5 50       		.byte	0x50
 3343 05c6 01       		.uleb128 0x1
 3344 05c7 31       		.byte	0x31
 3345 05c8 00       		.byte	0
 3346 05c9 18       		.uleb128 0x18
 3347 05ca 0E000000 		.4byte	.LVL86
 3348 05ce 25120000 		.4byte	0x1225
 3349 05d2 DC050000 		.4byte	0x5dc
 3350 05d6 15       		.uleb128 0x15
 3351 05d7 01       		.uleb128 0x1
 3352 05d8 50       		.byte	0x50
 3353 05d9 01       		.uleb128 0x1
 3354 05da 31       		.byte	0x31
 3355 05db 00       		.byte	0
 3356 05dc 18       		.uleb128 0x18
 3357 05dd 14000000 		.4byte	.LVL87
 3358 05e1 30120000 		.4byte	0x1230
 3359 05e5 EF050000 		.4byte	0x5ef
 3360 05e9 15       		.uleb128 0x15
 3361 05ea 01       		.uleb128 0x1
 3362 05eb 50       		.byte	0x50
 3363 05ec 01       		.uleb128 0x1
 3364 05ed 31       		.byte	0x31
 3365 05ee 00       		.byte	0
 3366 05ef 14       		.uleb128 0x14
 3367 05f0 1A000000 		.4byte	.LVL88
 3368 05f4 3B120000 		.4byte	0x123b
 3369 05f8 15       		.uleb128 0x15
ARM GAS  C:\Users\ANDREW~1\AppData\Local\Temp\ccwQPnwd.s 			page 82


 3370 05f9 01       		.uleb128 0x1
 3371 05fa 50       		.byte	0x50
 3372 05fb 01       		.uleb128 0x1
 3373 05fc 31       		.byte	0x31
 3374 05fd 00       		.byte	0
 3375 05fe 00       		.byte	0
 3376 05ff 0D       		.uleb128 0xd
 3377 0600 19040000 		.4byte	.LASF44
 3378 0604 01       		.byte	0x1
 3379 0605 5403     		.2byte	0x354
 3380 0607 00000000 		.4byte	.LFB88
 3381 060b 88000000 		.4byte	.LFE88-.LFB88
 3382 060f 01       		.uleb128 0x1
 3383 0610 9C       		.byte	0x9c
 3384 0611 B2060000 		.4byte	0x6b2
 3385 0615 16       		.uleb128 0x16
 3386 0616 86050000 		.4byte	.LASF45
 3387 061a 01       		.byte	0x1
 3388 061b 5403     		.2byte	0x354
 3389 061d 6F000000 		.4byte	0x6f
 3390 0621 38020000 		.4byte	.LLST16
 3391 0625 0A       		.uleb128 0xa
 3392 0626 647000   		.ascii	"dp\000"
 3393 0629 01       		.byte	0x1
 3394 062a 5403     		.2byte	0x354
 3395 062c 6F000000 		.4byte	0x6f
 3396 0630 59020000 		.4byte	.LLST17
 3397 0634 10       		.uleb128 0x10
 3398 0635 23040000 		.4byte	.LASF46
 3399 0639 01       		.byte	0x1
 3400 063a 5603     		.2byte	0x356
 3401 063c B0000000 		.4byte	0xb0
 3402 0640 85020000 		.4byte	.LLST18
 3403 0644 11       		.uleb128 0x11
 3404 0645 0A000000 		.4byte	.LBB7
 3405 0649 14000000 		.4byte	.LBE7-.LBB7
 3406 064d 60060000 		.4byte	0x660
 3407 0651 12       		.uleb128 0x12
 3408 0652 6900     		.ascii	"i\000"
 3409 0654 01       		.byte	0x1
 3410 0655 5903     		.2byte	0x359
 3411 0657 6F000000 		.4byte	0x6f
 3412 065b AE020000 		.4byte	.LLST19
 3413 065f 00       		.byte	0
 3414 0660 0E       		.uleb128 0xe
 3415 0661 2C000000 		.4byte	.LVL94
 3416 0665 46120000 		.4byte	0x1246
 3417 0669 0E       		.uleb128 0xe
 3418 066a 38000000 		.4byte	.LVL95
 3419 066e 51120000 		.4byte	0x1251
 3420 0672 0E       		.uleb128 0xe
 3421 0673 44000000 		.4byte	.LVL96
 3422 0677 5C120000 		.4byte	0x125c
 3423 067b 0E       		.uleb128 0xe
 3424 067c 50000000 		.4byte	.LVL97
 3425 0680 67120000 		.4byte	0x1267
 3426 0684 0E       		.uleb128 0xe
ARM GAS  C:\Users\ANDREW~1\AppData\Local\Temp\ccwQPnwd.s 			page 83


 3427 0685 5C000000 		.4byte	.LVL98
 3428 0689 72120000 		.4byte	0x1272
 3429 068d 0E       		.uleb128 0xe
 3430 068e 68000000 		.4byte	.LVL99
 3431 0692 7D120000 		.4byte	0x127d
 3432 0696 0E       		.uleb128 0xe
 3433 0697 74000000 		.4byte	.LVL100
 3434 069b 88120000 		.4byte	0x1288
 3435 069f 14       		.uleb128 0x14
 3436 06a0 7E000000 		.4byte	.LVL101
 3437 06a4 93120000 		.4byte	0x1293
 3438 06a8 15       		.uleb128 0x15
 3439 06a9 01       		.uleb128 0x1
 3440 06aa 50       		.byte	0x50
 3441 06ab 04       		.uleb128 0x4
 3442 06ac 75       		.byte	0x75
 3443 06ad 00       		.sleb128 0
 3444 06ae 30       		.byte	0x30
 3445 06af 29       		.byte	0x29
 3446 06b0 00       		.byte	0
 3447 06b1 00       		.byte	0
 3448 06b2 17       		.uleb128 0x17
 3449 06b3 EB050000 		.4byte	.LASF47
 3450 06b7 01       		.byte	0x1
 3451 06b8 B202     		.2byte	0x2b2
 3452 06ba 00000000 		.4byte	.LFB86
 3453 06be 40030000 		.4byte	.LFE86-.LFB86
 3454 06c2 01       		.uleb128 0x1
 3455 06c3 9C       		.byte	0x9c
 3456 06c4 00080000 		.4byte	0x800
 3457 06c8 16       		.uleb128 0x16
 3458 06c9 81010000 		.4byte	.LASF33
 3459 06cd 01       		.byte	0x1
 3460 06ce B202     		.2byte	0x2b2
 3461 06d0 25000000 		.4byte	0x25
 3462 06d4 CD020000 		.4byte	.LLST20
 3463 06d8 11       		.uleb128 0x11
 3464 06d9 14000000 		.4byte	.LBB8
 3465 06dd 10000000 		.4byte	.LBE8-.LBB8
 3466 06e1 F4060000 		.4byte	0x6f4
 3467 06e5 12       		.uleb128 0x12
 3468 06e6 6900     		.ascii	"i\000"
 3469 06e8 01       		.byte	0x1
 3470 06e9 B602     		.2byte	0x2b6
 3471 06eb 6F000000 		.4byte	0x6f
 3472 06ef 65030000 		.4byte	.LLST21
 3473 06f3 00       		.byte	0
 3474 06f4 11       		.uleb128 0x11
 3475 06f5 4A000000 		.4byte	.LBB9
 3476 06f9 48010000 		.4byte	.LBE9-.LBB9
 3477 06fd 62070000 		.4byte	0x762
 3478 0701 10       		.uleb128 0x10
 3479 0702 B5040000 		.4byte	.LASF48
 3480 0706 01       		.byte	0x1
 3481 0707 BE02     		.2byte	0x2be
 3482 0709 6F000000 		.4byte	0x6f
 3483 070d 78030000 		.4byte	.LLST22
ARM GAS  C:\Users\ANDREW~1\AppData\Local\Temp\ccwQPnwd.s 			page 84


 3484 0711 1D       		.uleb128 0x1d
 3485 0712 18000000 		.4byte	.Ldebug_ranges0+0x18
 3486 0716 2B070000 		.4byte	0x72b
 3487 071a 10       		.uleb128 0x10
 3488 071b 61010000 		.4byte	.LASF49
 3489 071f 01       		.byte	0x1
 3490 0720 C702     		.2byte	0x2c7
 3491 0722 6F000000 		.4byte	0x6f
 3492 0726 C5030000 		.4byte	.LLST23
 3493 072a 00       		.byte	0
 3494 072b 11       		.uleb128 0x11
 3495 072c F4000000 		.4byte	.LBB12
 3496 0730 7A000000 		.4byte	.LBE12-.LBB12
 3497 0734 49070000 		.4byte	0x749
 3498 0738 10       		.uleb128 0x10
 3499 0739 61010000 		.4byte	.LASF49
 3500 073d 01       		.byte	0x1
 3501 073e D002     		.2byte	0x2d0
 3502 0740 6F000000 		.4byte	0x6f
 3503 0744 D8030000 		.4byte	.LLST24
 3504 0748 00       		.byte	0
 3505 0749 13       		.uleb128 0x13
 3506 074a 6E010000 		.4byte	.LBB13
 3507 074e 14000000 		.4byte	.LBE13-.LBB13
 3508 0752 12       		.uleb128 0x12
 3509 0753 6900     		.ascii	"i\000"
 3510 0755 01       		.byte	0x1
 3511 0756 DA02     		.2byte	0x2da
 3512 0758 6F000000 		.4byte	0x6f
 3513 075c EB030000 		.4byte	.LLST25
 3514 0760 00       		.byte	0
 3515 0761 00       		.byte	0
 3516 0762 18       		.uleb128 0x18
 3517 0763 A2020000 		.4byte	.LVL140
 3518 0767 1A120000 		.4byte	0x121a
 3519 076b 75070000 		.4byte	0x775
 3520 076f 15       		.uleb128 0x15
 3521 0770 01       		.uleb128 0x1
 3522 0771 50       		.byte	0x50
 3523 0772 01       		.uleb128 0x1
 3524 0773 31       		.byte	0x31
 3525 0774 00       		.byte	0
 3526 0775 18       		.uleb128 0x18
 3527 0776 A8020000 		.4byte	.LVL141
 3528 077a 25120000 		.4byte	0x1225
 3529 077e 88070000 		.4byte	0x788
 3530 0782 15       		.uleb128 0x15
 3531 0783 01       		.uleb128 0x1
 3532 0784 50       		.byte	0x50
 3533 0785 01       		.uleb128 0x1
 3534 0786 31       		.byte	0x31
 3535 0787 00       		.byte	0
 3536 0788 18       		.uleb128 0x18
 3537 0789 AE020000 		.4byte	.LVL142
 3538 078d 30120000 		.4byte	0x1230
 3539 0791 9B070000 		.4byte	0x79b
 3540 0795 15       		.uleb128 0x15
ARM GAS  C:\Users\ANDREW~1\AppData\Local\Temp\ccwQPnwd.s 			page 85


 3541 0796 01       		.uleb128 0x1
 3542 0797 50       		.byte	0x50
 3543 0798 01       		.uleb128 0x1
 3544 0799 31       		.byte	0x31
 3545 079a 00       		.byte	0
 3546 079b 18       		.uleb128 0x18
 3547 079c B4020000 		.4byte	.LVL143
 3548 07a0 3B120000 		.4byte	0x123b
 3549 07a4 AE070000 		.4byte	0x7ae
 3550 07a8 15       		.uleb128 0x15
 3551 07a9 01       		.uleb128 0x1
 3552 07aa 50       		.byte	0x50
 3553 07ab 01       		.uleb128 0x1
 3554 07ac 31       		.byte	0x31
 3555 07ad 00       		.byte	0
 3556 07ae 0E       		.uleb128 0xe
 3557 07af CA020000 		.4byte	.LVL144
 3558 07b3 FF050000 		.4byte	0x5ff
 3559 07b7 18       		.uleb128 0x18
 3560 07b8 D4020000 		.4byte	.LVL145
 3561 07bc 1A120000 		.4byte	0x121a
 3562 07c0 CA070000 		.4byte	0x7ca
 3563 07c4 15       		.uleb128 0x15
 3564 07c5 01       		.uleb128 0x1
 3565 07c6 50       		.byte	0x50
 3566 07c7 01       		.uleb128 0x1
 3567 07c8 30       		.byte	0x30
 3568 07c9 00       		.byte	0
 3569 07ca 18       		.uleb128 0x18
 3570 07cb 1A030000 		.4byte	.LVL146
 3571 07cf 25120000 		.4byte	0x1225
 3572 07d3 DD070000 		.4byte	0x7dd
 3573 07d7 15       		.uleb128 0x15
 3574 07d8 01       		.uleb128 0x1
 3575 07d9 50       		.byte	0x50
 3576 07da 01       		.uleb128 0x1
 3577 07db 30       		.byte	0x30
 3578 07dc 00       		.byte	0
 3579 07dd 18       		.uleb128 0x18
 3580 07de 26030000 		.4byte	.LVL147
 3581 07e2 30120000 		.4byte	0x1230
 3582 07e6 F0070000 		.4byte	0x7f0
 3583 07ea 15       		.uleb128 0x15
 3584 07eb 01       		.uleb128 0x1
 3585 07ec 50       		.byte	0x50
 3586 07ed 01       		.uleb128 0x1
 3587 07ee 30       		.byte	0x30
 3588 07ef 00       		.byte	0
 3589 07f0 14       		.uleb128 0x14
 3590 07f1 32030000 		.4byte	.LVL148
 3591 07f5 3B120000 		.4byte	0x123b
 3592 07f9 15       		.uleb128 0x15
 3593 07fa 01       		.uleb128 0x1
 3594 07fb 50       		.byte	0x50
 3595 07fc 01       		.uleb128 0x1
 3596 07fd 30       		.byte	0x30
 3597 07fe 00       		.byte	0
ARM GAS  C:\Users\ANDREW~1\AppData\Local\Temp\ccwQPnwd.s 			page 86


 3598 07ff 00       		.byte	0
 3599 0800 1A       		.uleb128 0x1a
 3600 0801 83020000 		.4byte	.LASF51
 3601 0805 01       		.byte	0x1
 3602 0806 B501     		.2byte	0x1b5
 3603 0808 00000000 		.4byte	.LFB73
 3604 080c 68000000 		.4byte	.LFE73-.LFB73
 3605 0810 01       		.uleb128 0x1
 3606 0811 9C       		.byte	0x9c
 3607 0812 BD080000 		.4byte	0x8bd
 3608 0816 0E       		.uleb128 0xe
 3609 0817 0C000000 		.4byte	.LVL149
 3610 081b 5F020000 		.4byte	0x25f
 3611 081f 0E       		.uleb128 0xe
 3612 0820 14000000 		.4byte	.LVL150
 3613 0824 B2060000 		.4byte	0x6b2
 3614 0828 18       		.uleb128 0x18
 3615 0829 1A000000 		.4byte	.LVL151
 3616 082d 9E120000 		.4byte	0x129e
 3617 0831 3B080000 		.4byte	0x83b
 3618 0835 15       		.uleb128 0x15
 3619 0836 01       		.uleb128 0x1
 3620 0837 50       		.byte	0x50
 3621 0838 01       		.uleb128 0x1
 3622 0839 30       		.byte	0x30
 3623 083a 00       		.byte	0
 3624 083b 18       		.uleb128 0x18
 3625 083c 20000000 		.4byte	.LVL152
 3626 0840 A9120000 		.4byte	0x12a9
 3627 0844 4E080000 		.4byte	0x84e
 3628 0848 15       		.uleb128 0x15
 3629 0849 01       		.uleb128 0x1
 3630 084a 50       		.byte	0x50
 3631 084b 01       		.uleb128 0x1
 3632 084c 30       		.byte	0x30
 3633 084d 00       		.byte	0
 3634 084e 18       		.uleb128 0x18
 3635 084f 26000000 		.4byte	.LVL153
 3636 0853 B4120000 		.4byte	0x12b4
 3637 0857 61080000 		.4byte	0x861
 3638 085b 15       		.uleb128 0x15
 3639 085c 01       		.uleb128 0x1
 3640 085d 50       		.byte	0x50
 3641 085e 01       		.uleb128 0x1
 3642 085f 30       		.byte	0x30
 3643 0860 00       		.byte	0
 3644 0861 18       		.uleb128 0x18
 3645 0862 30000000 		.4byte	.LVL154
 3646 0866 9E120000 		.4byte	0x129e
 3647 086a 74080000 		.4byte	0x874
 3648 086e 15       		.uleb128 0x15
 3649 086f 01       		.uleb128 0x1
 3650 0870 50       		.byte	0x50
 3651 0871 01       		.uleb128 0x1
 3652 0872 31       		.byte	0x31
 3653 0873 00       		.byte	0
 3654 0874 18       		.uleb128 0x18
ARM GAS  C:\Users\ANDREW~1\AppData\Local\Temp\ccwQPnwd.s 			page 87


 3655 0875 3E000000 		.4byte	.LVL155
 3656 0879 A9120000 		.4byte	0x12a9
 3657 087d 87080000 		.4byte	0x887
 3658 0881 15       		.uleb128 0x15
 3659 0882 01       		.uleb128 0x1
 3660 0883 50       		.byte	0x50
 3661 0884 01       		.uleb128 0x1
 3662 0885 31       		.byte	0x31
 3663 0886 00       		.byte	0
 3664 0887 18       		.uleb128 0x18
 3665 0888 4C000000 		.4byte	.LVL156
 3666 088c B4120000 		.4byte	0x12b4
 3667 0890 9A080000 		.4byte	0x89a
 3668 0894 15       		.uleb128 0x15
 3669 0895 01       		.uleb128 0x1
 3670 0896 50       		.byte	0x50
 3671 0897 01       		.uleb128 0x1
 3672 0898 31       		.byte	0x31
 3673 0899 00       		.byte	0
 3674 089a 18       		.uleb128 0x18
 3675 089b 5A000000 		.4byte	.LVL157
 3676 089f A9120000 		.4byte	0x12a9
 3677 08a3 AD080000 		.4byte	0x8ad
 3678 08a7 15       		.uleb128 0x15
 3679 08a8 01       		.uleb128 0x1
 3680 08a9 50       		.byte	0x50
 3681 08aa 01       		.uleb128 0x1
 3682 08ab 31       		.byte	0x31
 3683 08ac 00       		.byte	0
 3684 08ad 14       		.uleb128 0x14
 3685 08ae 60000000 		.4byte	.LVL158
 3686 08b2 B4120000 		.4byte	0x12b4
 3687 08b6 15       		.uleb128 0x15
 3688 08b7 01       		.uleb128 0x1
 3689 08b8 50       		.byte	0x50
 3690 08b9 01       		.uleb128 0x1
 3691 08ba 31       		.byte	0x31
 3692 08bb 00       		.byte	0
 3693 08bc 00       		.byte	0
 3694 08bd 22       		.uleb128 0x22
 3695 08be 54060000 		.4byte	.LASF52
 3696 08c2 01       		.byte	0x1
 3697 08c3 CC       		.byte	0xcc
 3698 08c4 00000000 		.4byte	.LFB65
 3699 08c8 34010000 		.4byte	.LFE65-.LFB65
 3700 08cc 01       		.uleb128 0x1
 3701 08cd 9C       		.byte	0x9c
 3702 08ce 1C0A0000 		.4byte	0xa1c
 3703 08d2 23       		.uleb128 0x23
 3704 08d3 2E020000 		.4byte	.LASF53
 3705 08d7 01       		.byte	0x1
 3706 08d8 CE       		.byte	0xce
 3707 08d9 25000000 		.4byte	0x25
 3708 08dd 0A040000 		.4byte	.LLST26
 3709 08e1 11       		.uleb128 0x11
 3710 08e2 0C000000 		.4byte	.LBB14
 3711 08e6 00010000 		.4byte	.LBE14-.LBB14
ARM GAS  C:\Users\ANDREW~1\AppData\Local\Temp\ccwQPnwd.s 			page 88


 3712 08ea 120A0000 		.4byte	0xa12
 3713 08ee 23       		.uleb128 0x23
 3714 08ef 1E030000 		.4byte	.LASF32
 3715 08f3 01       		.byte	0x1
 3716 08f4 D5       		.byte	0xd5
 3717 08f5 25000000 		.4byte	0x25
 3718 08f9 32040000 		.4byte	.LLST27
 3719 08fd 11       		.uleb128 0x11
 3720 08fe 6E000000 		.4byte	.LBB15
 3721 0902 9A000000 		.4byte	.LBE15-.LBB15
 3722 0906 D2090000 		.4byte	0x9d2
 3723 090a 23       		.uleb128 0x23
 3724 090b 00000000 		.4byte	.LASF54
 3725 090f 01       		.byte	0x1
 3726 0910 E1       		.byte	0xe1
 3727 0911 25000000 		.4byte	0x25
 3728 0915 4A040000 		.4byte	.LLST28
 3729 0919 0E       		.uleb128 0xe
 3730 091a 72000000 		.4byte	.LVL174
 3731 091e 5F010000 		.4byte	0x15f
 3732 0922 0E       		.uleb128 0xe
 3733 0923 7C000000 		.4byte	.LVL177
 3734 0927 00080000 		.4byte	0x800
 3735 092b 0E       		.uleb128 0xe
 3736 092c 80000000 		.4byte	.LVL178
 3737 0930 5F010000 		.4byte	0x15f
 3738 0934 0E       		.uleb128 0xe
 3739 0935 9A000000 		.4byte	.LVL181
 3740 0939 BF120000 		.4byte	0x12bf
 3741 093d 0E       		.uleb128 0xe
 3742 093e A0000000 		.4byte	.LVL182
 3743 0942 CA120000 		.4byte	0x12ca
 3744 0946 18       		.uleb128 0x18
 3745 0947 AC000000 		.4byte	.LVL183
 3746 094b 2F020000 		.4byte	0x22f
 3747 094f 68090000 		.4byte	0x968
 3748 0953 15       		.uleb128 0x15
 3749 0954 06       		.uleb128 0x6
 3750 0955 50       		.byte	0x50
 3751 0956 93       		.byte	0x93
 3752 0957 04       		.uleb128 0x4
 3753 0958 51       		.byte	0x51
 3754 0959 93       		.byte	0x93
 3755 095a 04       		.uleb128 0x4
 3756 095b 0B       		.uleb128 0xb
 3757 095c F4       		.byte	0xf4
 3758 095d 25       		.uleb128 0x25
 3759 095e 08       		.byte	0x8
 3760 095f 9A999999 		.4byte	0x9999999a
 3761 0963 9999C93F 		.4byte	0x3fc99999
 3762 0967 00       		.byte	0
 3763 0968 0E       		.uleb128 0xe
 3764 0969 B0000000 		.4byte	.LVL184
 3765 096d 5F010000 		.4byte	0x15f
 3766 0971 0E       		.uleb128 0xe
 3767 0972 BA000000 		.4byte	.LVL187
 3768 0976 00080000 		.4byte	0x800
ARM GAS  C:\Users\ANDREW~1\AppData\Local\Temp\ccwQPnwd.s 			page 89


 3769 097a 0E       		.uleb128 0xe
 3770 097b BE000000 		.4byte	.LVL188
 3771 097f 5F010000 		.4byte	0x15f
 3772 0983 18       		.uleb128 0x18
 3773 0984 D6000000 		.4byte	.LVL191
 3774 0988 D5120000 		.4byte	0x12d5
 3775 098c 9A090000 		.4byte	0x99a
 3776 0990 15       		.uleb128 0x15
 3777 0991 01       		.uleb128 0x1
 3778 0992 50       		.byte	0x50
 3779 0993 05       		.uleb128 0x5
 3780 0994 03       		.byte	0x3
 3781 0995 00000000 		.4byte	.LC0
 3782 0999 00       		.byte	0
 3783 099a 18       		.uleb128 0x18
 3784 099b DC000000 		.4byte	.LVL192
 3785 099f B9110000 		.4byte	0x11b9
 3786 09a3 AD090000 		.4byte	0x9ad
 3787 09a7 15       		.uleb128 0x15
 3788 09a8 01       		.uleb128 0x1
 3789 09a9 50       		.byte	0x50
 3790 09aa 01       		.uleb128 0x1
 3791 09ab 35       		.byte	0x35
 3792 09ac 00       		.byte	0
 3793 09ad 0E       		.uleb128 0xe
 3794 09ae E8000000 		.4byte	.LVL193
 3795 09b2 BF120000 		.4byte	0x12bf
 3796 09b6 0E       		.uleb128 0xe
 3797 09b7 EE000000 		.4byte	.LVL194
 3798 09bb CA120000 		.4byte	0x12ca
 3799 09bf 0E       		.uleb128 0xe
 3800 09c0 F8000000 		.4byte	.LVL195
 3801 09c4 BF120000 		.4byte	0x12bf
 3802 09c8 0E       		.uleb128 0xe
 3803 09c9 FE000000 		.4byte	.LVL196
 3804 09cd CA120000 		.4byte	0x12ca
 3805 09d1 00       		.byte	0
 3806 09d2 0E       		.uleb128 0xe
 3807 09d3 10000000 		.4byte	.LVL161
 3808 09d7 5F010000 		.4byte	0x15f
 3809 09db 0E       		.uleb128 0xe
 3810 09dc 2E000000 		.4byte	.LVL165
 3811 09e0 72050000 		.4byte	0x572
 3812 09e4 0E       		.uleb128 0xe
 3813 09e5 56000000 		.4byte	.LVL168
 3814 09e9 72050000 		.4byte	0x572
 3815 09ed 0E       		.uleb128 0xe
 3816 09ee 5C000000 		.4byte	.LVL169
 3817 09f2 5F010000 		.4byte	0x15f
 3818 09f6 0E       		.uleb128 0xe
 3819 09f7 64000000 		.4byte	.LVL172
 3820 09fb BF120000 		.4byte	0x12bf
 3821 09ff 0E       		.uleb128 0xe
 3822 0a00 6A000000 		.4byte	.LVL173
 3823 0a04 CA120000 		.4byte	0x12ca
 3824 0a08 0E       		.uleb128 0xe
 3825 0a09 0C010000 		.4byte	.LVL198
ARM GAS  C:\Users\ANDREW~1\AppData\Local\Temp\ccwQPnwd.s 			page 90


 3826 0a0d 00080000 		.4byte	0x800
 3827 0a11 00       		.byte	0
 3828 0a12 0E       		.uleb128 0xe
 3829 0a13 06000000 		.4byte	.LVL159
 3830 0a17 5F010000 		.4byte	0x15f
 3831 0a1b 00       		.byte	0
 3832 0a1c 17       		.uleb128 0x17
 3833 0a1d 70060000 		.4byte	.LASF55
 3834 0a21 01       		.byte	0x1
 3835 0a22 6301     		.2byte	0x163
 3836 0a24 00000000 		.4byte	.LFB68
 3837 0a28 84000000 		.4byte	.LFE68-.LFB68
 3838 0a2c 01       		.uleb128 0x1
 3839 0a2d 9C       		.byte	0x9c
 3840 0a2e DB0A0000 		.4byte	0xadb
 3841 0a32 10       		.uleb128 0x10
 3842 0a33 A8000000 		.4byte	.LASF56
 3843 0a37 01       		.byte	0x1
 3844 0a38 6601     		.2byte	0x166
 3845 0a3a 6F000000 		.4byte	0x6f
 3846 0a3e 72040000 		.4byte	.LLST29
 3847 0a42 10       		.uleb128 0x10
 3848 0a43 22000000 		.4byte	.LASF57
 3849 0a47 01       		.byte	0x1
 3850 0a48 6701     		.2byte	0x167
 3851 0a4a 25000000 		.4byte	0x25
 3852 0a4e BF040000 		.4byte	.LLST30
 3853 0a52 18       		.uleb128 0x18
 3854 0a53 12000000 		.4byte	.LVL202
 3855 0a57 2F020000 		.4byte	0x22f
 3856 0a5b 740A0000 		.4byte	0xa74
 3857 0a5f 15       		.uleb128 0x15
 3858 0a60 06       		.uleb128 0x6
 3859 0a61 50       		.byte	0x50
 3860 0a62 93       		.byte	0x93
 3861 0a63 04       		.uleb128 0x4
 3862 0a64 51       		.byte	0x51
 3863 0a65 93       		.byte	0x93
 3864 0a66 04       		.uleb128 0x4
 3865 0a67 0B       		.uleb128 0xb
 3866 0a68 F4       		.byte	0xf4
 3867 0a69 25       		.uleb128 0x25
 3868 0a6a 08       		.byte	0x8
 3869 0a6b 9A999999 		.4byte	0x9999999a
 3870 0a6f 9999C93F 		.4byte	0x3fc99999
 3871 0a73 00       		.byte	0
 3872 0a74 0E       		.uleb128 0xe
 3873 0a75 16000000 		.4byte	.LVL203
 3874 0a79 57040000 		.4byte	0x457
 3875 0a7d 0E       		.uleb128 0xe
 3876 0a7e 20000000 		.4byte	.LVL204
 3877 0a82 5F010000 		.4byte	0x15f
 3878 0a86 0E       		.uleb128 0xe
 3879 0a87 28000000 		.4byte	.LVL207
 3880 0a8b 9C050000 		.4byte	0x59c
 3881 0a8f 0E       		.uleb128 0xe
 3882 0a90 34000000 		.4byte	.LVL209
ARM GAS  C:\Users\ANDREW~1\AppData\Local\Temp\ccwQPnwd.s 			page 91


 3883 0a94 72050000 		.4byte	0x572
 3884 0a98 0E       		.uleb128 0xe
 3885 0a99 38000000 		.4byte	.LVL210
 3886 0a9d 00080000 		.4byte	0x800
 3887 0aa1 0E       		.uleb128 0xe
 3888 0aa2 3C000000 		.4byte	.LVL211
 3889 0aa6 5F010000 		.4byte	0x15f
 3890 0aaa 0E       		.uleb128 0xe
 3891 0aab 54000000 		.4byte	.LVL214
 3892 0aaf BF120000 		.4byte	0x12bf
 3893 0ab3 0E       		.uleb128 0xe
 3894 0ab4 5A000000 		.4byte	.LVL215
 3895 0ab8 9C050000 		.4byte	0x59c
 3896 0abc 14       		.uleb128 0x14
 3897 0abd 64000000 		.4byte	.LVL216
 3898 0ac1 2F020000 		.4byte	0x22f
 3899 0ac5 15       		.uleb128 0x15
 3900 0ac6 06       		.uleb128 0x6
 3901 0ac7 50       		.byte	0x50
 3902 0ac8 93       		.byte	0x93
 3903 0ac9 04       		.uleb128 0x4
 3904 0aca 51       		.byte	0x51
 3905 0acb 93       		.byte	0x93
 3906 0acc 04       		.uleb128 0x4
 3907 0acd 0B       		.uleb128 0xb
 3908 0ace F4       		.byte	0xf4
 3909 0acf 25       		.uleb128 0x25
 3910 0ad0 08       		.byte	0x8
 3911 0ad1 9A999999 		.4byte	0x9999999a
 3912 0ad5 9999C93F 		.4byte	0x3fc99999
 3913 0ad9 00       		.byte	0
 3914 0ada 00       		.byte	0
 3915 0adb 0D       		.uleb128 0xd
 3916 0adc 0D030000 		.4byte	.LASF58
 3917 0ae0 01       		.byte	0x1
 3918 0ae1 A301     		.2byte	0x1a3
 3919 0ae3 00000000 		.4byte	.LFB71
 3920 0ae7 22000000 		.4byte	.LFE71-.LFB71
 3921 0aeb 01       		.uleb128 0x1
 3922 0aec 9C       		.byte	0x9c
 3923 0aed 160B0000 		.4byte	0xb16
 3924 0af1 0E       		.uleb128 0xe
 3925 0af2 08000000 		.4byte	.LVL220
 3926 0af6 00080000 		.4byte	0x800
 3927 0afa 0E       		.uleb128 0xe
 3928 0afb 0C000000 		.4byte	.LVL221
 3929 0aff E0120000 		.4byte	0x12e0
 3930 0b03 0E       		.uleb128 0xe
 3931 0b04 14000000 		.4byte	.LVL222
 3932 0b08 BF120000 		.4byte	0x12bf
 3933 0b0c 0E       		.uleb128 0xe
 3934 0b0d 1C000000 		.4byte	.LVL223
 3935 0b11 CA120000 		.4byte	0x12ca
 3936 0b15 00       		.byte	0
 3937 0b16 17       		.uleb128 0x17
 3938 0b17 5B060000 		.4byte	.LASF59
 3939 0b1b 01       		.byte	0x1
ARM GAS  C:\Users\ANDREW~1\AppData\Local\Temp\ccwQPnwd.s 			page 92


 3940 0b1c 0701     		.2byte	0x107
 3941 0b1e 00000000 		.4byte	.LFB66
 3942 0b22 D8000000 		.4byte	.LFE66-.LFB66
 3943 0b26 01       		.uleb128 0x1
 3944 0b27 9C       		.byte	0x9c
 3945 0b28 1C0C0000 		.4byte	0xc1c
 3946 0b2c 10       		.uleb128 0x10
 3947 0b2d 22000000 		.4byte	.LASF57
 3948 0b31 01       		.byte	0x1
 3949 0b32 0901     		.2byte	0x109
 3950 0b34 25000000 		.4byte	0x25
 3951 0b38 E7040000 		.4byte	.LLST31
 3952 0b3c 13       		.uleb128 0x13
 3953 0b3d 08000000 		.4byte	.LBB16
 3954 0b41 AC000000 		.4byte	.LBE16-.LBB16
 3955 0b45 10       		.uleb128 0x10
 3956 0b46 1E030000 		.4byte	.LASF32
 3957 0b4a 01       		.byte	0x1
 3958 0b4b 0E01     		.2byte	0x10e
 3959 0b4d 25000000 		.4byte	0x25
 3960 0b51 23050000 		.4byte	.LLST32
 3961 0b55 0E       		.uleb128 0xe
 3962 0b56 0C000000 		.4byte	.LVL226
 3963 0b5a 00080000 		.4byte	0x800
 3964 0b5e 0E       		.uleb128 0xe
 3965 0b5f 10000000 		.4byte	.LVL227
 3966 0b63 5F010000 		.4byte	0x15f
 3967 0b67 0E       		.uleb128 0xe
 3968 0b68 32000000 		.4byte	.LVL232
 3969 0b6c 72050000 		.4byte	0x572
 3970 0b70 0E       		.uleb128 0xe
 3971 0b71 58000000 		.4byte	.LVL235
 3972 0b75 72050000 		.4byte	0x572
 3973 0b79 0E       		.uleb128 0xe
 3974 0b7a 5E000000 		.4byte	.LVL236
 3975 0b7e 5F010000 		.4byte	0x15f
 3976 0b82 0E       		.uleb128 0xe
 3977 0b83 66000000 		.4byte	.LVL239
 3978 0b87 E0120000 		.4byte	0x12e0
 3979 0b8b 0E       		.uleb128 0xe
 3980 0b8c 6C000000 		.4byte	.LVL240
 3981 0b90 DB0A0000 		.4byte	0xadb
 3982 0b94 18       		.uleb128 0x18
 3983 0b95 76000000 		.4byte	.LVL241
 3984 0b99 2F020000 		.4byte	0x22f
 3985 0b9d B60B0000 		.4byte	0xbb6
 3986 0ba1 15       		.uleb128 0x15
 3987 0ba2 06       		.uleb128 0x6
 3988 0ba3 50       		.byte	0x50
 3989 0ba4 93       		.byte	0x93
 3990 0ba5 04       		.uleb128 0x4
 3991 0ba6 51       		.byte	0x51
 3992 0ba7 93       		.byte	0x93
 3993 0ba8 04       		.uleb128 0x4
 3994 0ba9 0B       		.uleb128 0xb
 3995 0baa F4       		.byte	0xf4
 3996 0bab 25       		.uleb128 0x25
ARM GAS  C:\Users\ANDREW~1\AppData\Local\Temp\ccwQPnwd.s 			page 93


 3997 0bac 08       		.byte	0x8
 3998 0bad 9A999999 		.4byte	0x9999999a
 3999 0bb1 9999C93F 		.4byte	0x3fc99999
 4000 0bb5 00       		.byte	0
 4001 0bb6 0E       		.uleb128 0xe
 4002 0bb7 80000000 		.4byte	.LVL242
 4003 0bbb BF120000 		.4byte	0x12bf
 4004 0bbf 0E       		.uleb128 0xe
 4005 0bc0 86000000 		.4byte	.LVL243
 4006 0bc4 DB0A0000 		.4byte	0xadb
 4007 0bc8 18       		.uleb128 0x18
 4008 0bc9 90000000 		.4byte	.LVL244
 4009 0bcd 2F020000 		.4byte	0x22f
 4010 0bd1 EA0B0000 		.4byte	0xbea
 4011 0bd5 15       		.uleb128 0x15
 4012 0bd6 06       		.uleb128 0x6
 4013 0bd7 50       		.byte	0x50
 4014 0bd8 93       		.byte	0x93
 4015 0bd9 04       		.uleb128 0x4
 4016 0bda 51       		.byte	0x51
 4017 0bdb 93       		.byte	0x93
 4018 0bdc 04       		.uleb128 0x4
 4019 0bdd 0B       		.uleb128 0xb
 4020 0bde F4       		.byte	0xf4
 4021 0bdf 25       		.uleb128 0x25
 4022 0be0 08       		.byte	0x8
 4023 0be1 9A999999 		.4byte	0x9999999a
 4024 0be5 9999C93F 		.4byte	0x3fc99999
 4025 0be9 00       		.byte	0
 4026 0bea 0E       		.uleb128 0xe
 4027 0beb 9C000000 		.4byte	.LVL245
 4028 0bef CA120000 		.4byte	0x12ca
 4029 0bf3 0E       		.uleb128 0xe
 4030 0bf4 A2000000 		.4byte	.LVL246
 4031 0bf8 DB0A0000 		.4byte	0xadb
 4032 0bfc 14       		.uleb128 0x14
 4033 0bfd AC000000 		.4byte	.LVL247
 4034 0c01 2F020000 		.4byte	0x22f
 4035 0c05 15       		.uleb128 0x15
 4036 0c06 06       		.uleb128 0x6
 4037 0c07 50       		.byte	0x50
 4038 0c08 93       		.byte	0x93
 4039 0c09 04       		.uleb128 0x4
 4040 0c0a 51       		.byte	0x51
 4041 0c0b 93       		.byte	0x93
 4042 0c0c 04       		.uleb128 0x4
 4043 0c0d 0B       		.uleb128 0xb
 4044 0c0e F4       		.byte	0xf4
 4045 0c0f 25       		.uleb128 0x25
 4046 0c10 08       		.byte	0x8
 4047 0c11 9A999999 		.4byte	0x9999999a
 4048 0c15 9999C93F 		.4byte	0x3fc99999
 4049 0c19 00       		.byte	0
 4050 0c1a 00       		.byte	0
 4051 0c1b 00       		.byte	0
 4052 0c1c 0D       		.uleb128 0xd
 4053 0c1d B5050000 		.4byte	.LASF60
ARM GAS  C:\Users\ANDREW~1\AppData\Local\Temp\ccwQPnwd.s 			page 94


 4054 0c21 01       		.byte	0x1
 4055 0c22 3701     		.2byte	0x137
 4056 0c24 00000000 		.4byte	.LFB67
 4057 0c28 A4000000 		.4byte	.LFE67-.LFB67
 4058 0c2c 01       		.uleb128 0x1
 4059 0c2d 9C       		.byte	0x9c
 4060 0c2e F90C0000 		.4byte	0xcf9
 4061 0c32 0E       		.uleb128 0xe
 4062 0c33 08000000 		.4byte	.LVL250
 4063 0c37 00080000 		.4byte	0x800
 4064 0c3b 0E       		.uleb128 0xe
 4065 0c3c 18000000 		.4byte	.LVL251
 4066 0c40 72050000 		.4byte	0x572
 4067 0c44 0E       		.uleb128 0xe
 4068 0c45 2A000000 		.4byte	.LVL252
 4069 0c49 72050000 		.4byte	0x572
 4070 0c4d 0E       		.uleb128 0xe
 4071 0c4e 2E000000 		.4byte	.LVL253
 4072 0c52 E0120000 		.4byte	0x12e0
 4073 0c56 0E       		.uleb128 0xe
 4074 0c57 34000000 		.4byte	.LVL254
 4075 0c5b DB0A0000 		.4byte	0xadb
 4076 0c5f 18       		.uleb128 0x18
 4077 0c60 3E000000 		.4byte	.LVL255
 4078 0c64 2F020000 		.4byte	0x22f
 4079 0c68 810C0000 		.4byte	0xc81
 4080 0c6c 15       		.uleb128 0x15
 4081 0c6d 06       		.uleb128 0x6
 4082 0c6e 50       		.byte	0x50
 4083 0c6f 93       		.byte	0x93
 4084 0c70 04       		.uleb128 0x4
 4085 0c71 51       		.byte	0x51
 4086 0c72 93       		.byte	0x93
 4087 0c73 04       		.uleb128 0x4
 4088 0c74 0B       		.uleb128 0xb
 4089 0c75 F4       		.byte	0xf4
 4090 0c76 25       		.uleb128 0x25
 4091 0c77 08       		.byte	0x8
 4092 0c78 9A999999 		.4byte	0x9999999a
 4093 0c7c 9999C93F 		.4byte	0x3fc99999
 4094 0c80 00       		.byte	0
 4095 0c81 0E       		.uleb128 0xe
 4096 0c82 48000000 		.4byte	.LVL256
 4097 0c86 BF120000 		.4byte	0x12bf
 4098 0c8a 0E       		.uleb128 0xe
 4099 0c8b 4E000000 		.4byte	.LVL257
 4100 0c8f DB0A0000 		.4byte	0xadb
 4101 0c93 18       		.uleb128 0x18
 4102 0c94 58000000 		.4byte	.LVL258
 4103 0c98 2F020000 		.4byte	0x22f
 4104 0c9c B50C0000 		.4byte	0xcb5
 4105 0ca0 15       		.uleb128 0x15
 4106 0ca1 06       		.uleb128 0x6
 4107 0ca2 50       		.byte	0x50
 4108 0ca3 93       		.byte	0x93
 4109 0ca4 04       		.uleb128 0x4
 4110 0ca5 51       		.byte	0x51
ARM GAS  C:\Users\ANDREW~1\AppData\Local\Temp\ccwQPnwd.s 			page 95


 4111 0ca6 93       		.byte	0x93
 4112 0ca7 04       		.uleb128 0x4
 4113 0ca8 0B       		.uleb128 0xb
 4114 0ca9 F4       		.byte	0xf4
 4115 0caa 25       		.uleb128 0x25
 4116 0cab 08       		.byte	0x8
 4117 0cac 9A999999 		.4byte	0x9999999a
 4118 0cb0 9999C93F 		.4byte	0x3fc99999
 4119 0cb4 00       		.byte	0
 4120 0cb5 0E       		.uleb128 0xe
 4121 0cb6 62000000 		.4byte	.LVL259
 4122 0cba CA120000 		.4byte	0x12ca
 4123 0cbe 0E       		.uleb128 0xe
 4124 0cbf 68000000 		.4byte	.LVL260
 4125 0cc3 DB0A0000 		.4byte	0xadb
 4126 0cc7 18       		.uleb128 0x18
 4127 0cc8 72000000 		.4byte	.LVL261
 4128 0ccc 2F020000 		.4byte	0x22f
 4129 0cd0 E90C0000 		.4byte	0xce9
 4130 0cd4 15       		.uleb128 0x15
 4131 0cd5 06       		.uleb128 0x6
 4132 0cd6 50       		.byte	0x50
 4133 0cd7 93       		.byte	0x93
 4134 0cd8 04       		.uleb128 0x4
 4135 0cd9 51       		.byte	0x51
 4136 0cda 93       		.byte	0x93
 4137 0cdb 04       		.uleb128 0x4
 4138 0cdc 0B       		.uleb128 0xb
 4139 0cdd F4       		.byte	0xf4
 4140 0cde 25       		.uleb128 0x25
 4141 0cdf 08       		.byte	0x8
 4142 0ce0 9A999999 		.4byte	0x9999999a
 4143 0ce4 9999C93F 		.4byte	0x3fc99999
 4144 0ce8 00       		.byte	0
 4145 0ce9 14       		.uleb128 0x14
 4146 0cea 8A000000 		.4byte	.LVL262
 4147 0cee EB120000 		.4byte	0x12eb
 4148 0cf2 15       		.uleb128 0x15
 4149 0cf3 01       		.uleb128 0x1
 4150 0cf4 51       		.byte	0x51
 4151 0cf5 01       		.uleb128 0x1
 4152 0cf6 34       		.byte	0x34
 4153 0cf7 00       		.byte	0
 4154 0cf8 00       		.byte	0
 4155 0cf9 24       		.uleb128 0x24
 4156 0cfa 36070000 		.4byte	.LASF131
 4157 0cfe 01       		.byte	0x1
 4158 0cff 42       		.byte	0x42
 4159 0d00 6F000000 		.4byte	0x6f
 4160 0d04 00000000 		.4byte	.LFB64
 4161 0d08 A8010000 		.4byte	.LFE64-.LFB64
 4162 0d0c 01       		.uleb128 0x1
 4163 0d0d 9C       		.byte	0x9c
 4164 0d0e 9F0F0000 		.4byte	0xf9f
 4165 0d12 25       		.uleb128 0x25
 4166 0d13 68010000 		.4byte	.LASF61
 4167 0d17 01       		.byte	0x1
ARM GAS  C:\Users\ANDREW~1\AppData\Local\Temp\ccwQPnwd.s 			page 96


 4168 0d18 65       		.byte	0x65
 4169 0d19 25000000 		.4byte	0x25
 4170 0d1d 06       		.uleb128 0x6
 4171 0d1e 54       		.byte	0x54
 4172 0d1f 93       		.byte	0x93
 4173 0d20 04       		.uleb128 0x4
 4174 0d21 55       		.byte	0x55
 4175 0d22 93       		.byte	0x93
 4176 0d23 04       		.uleb128 0x4
 4177 0d24 26       		.uleb128 0x26
 4178 0d25 22000000 		.4byte	.LASF57
 4179 0d29 01       		.byte	0x1
 4180 0d2a 87       		.byte	0x87
 4181 0d2b 25000000 		.4byte	0x25
 4182 0d2f 0E       		.uleb128 0xe
 4183 0d30 08000000 		.4byte	.LVL263
 4184 0d34 F6120000 		.4byte	0x12f6
 4185 0d38 18       		.uleb128 0x18
 4186 0d39 0E000000 		.4byte	.LVL264
 4187 0d3d 01130000 		.4byte	0x1301
 4188 0d41 4F0D0000 		.4byte	0xd4f
 4189 0d45 15       		.uleb128 0x15
 4190 0d46 01       		.uleb128 0x1
 4191 0d47 50       		.byte	0x50
 4192 0d48 05       		.uleb128 0x5
 4193 0d49 03       		.byte	0x3
 4194 0d4a 00000000 		.4byte	seg7_ISR
 4195 0d4e 00       		.byte	0
 4196 0d4f 0E       		.uleb128 0xe
 4197 0d50 12000000 		.4byte	.LVL265
 4198 0d54 CF110000 		.4byte	0x11cf
 4199 0d58 18       		.uleb128 0x18
 4200 0d59 18000000 		.4byte	.LVL266
 4201 0d5d 0C130000 		.4byte	0x130c
 4202 0d61 6B0D0000 		.4byte	0xd6b
 4203 0d65 15       		.uleb128 0x15
 4204 0d66 01       		.uleb128 0x1
 4205 0d67 50       		.byte	0x50
 4206 0d68 01       		.uleb128 0x1
 4207 0d69 33       		.byte	0x33
 4208 0d6a 00       		.byte	0
 4209 0d6b 18       		.uleb128 0x18
 4210 0d6c 1E000000 		.4byte	.LVL267
 4211 0d70 DA110000 		.4byte	0x11da
 4212 0d74 820D0000 		.4byte	0xd82
 4213 0d78 15       		.uleb128 0x15
 4214 0d79 01       		.uleb128 0x1
 4215 0d7a 50       		.byte	0x50
 4216 0d7b 05       		.uleb128 0x5
 4217 0d7c 03       		.byte	0x3
 4218 0d7d 00000000 		.4byte	Receive_Ultra
 4219 0d81 00       		.byte	0
 4220 0d82 0E       		.uleb128 0xe
 4221 0d83 22000000 		.4byte	.LVL268
 4222 0d87 17130000 		.4byte	0x1317
 4223 0d8b 0E       		.uleb128 0xe
 4224 0d8c 26000000 		.4byte	.LVL269
ARM GAS  C:\Users\ANDREW~1\AppData\Local\Temp\ccwQPnwd.s 			page 97


 4225 0d90 22130000 		.4byte	0x1322
 4226 0d94 0E       		.uleb128 0xe
 4227 0d95 2A000000 		.4byte	.LVL270
 4228 0d99 2D130000 		.4byte	0x132d
 4229 0d9d 0E       		.uleb128 0xe
 4230 0d9e 2E000000 		.4byte	.LVL271
 4231 0da2 38130000 		.4byte	0x1338
 4232 0da6 0E       		.uleb128 0xe
 4233 0da7 32000000 		.4byte	.LVL272
 4234 0dab 43130000 		.4byte	0x1343
 4235 0daf 18       		.uleb128 0x18
 4236 0db0 38000000 		.4byte	.LVL273
 4237 0db4 4E130000 		.4byte	0x134e
 4238 0db8 C20D0000 		.4byte	0xdc2
 4239 0dbc 15       		.uleb128 0x15
 4240 0dbd 01       		.uleb128 0x1
 4241 0dbe 50       		.byte	0x50
 4242 0dbf 01       		.uleb128 0x1
 4243 0dc0 33       		.byte	0x33
 4244 0dc1 00       		.byte	0
 4245 0dc2 0E       		.uleb128 0xe
 4246 0dc3 3C000000 		.4byte	.LVL274
 4247 0dc7 59130000 		.4byte	0x1359
 4248 0dcb 0E       		.uleb128 0xe
 4249 0dcc 40000000 		.4byte	.LVL275
 4250 0dd0 64130000 		.4byte	0x1364
 4251 0dd4 0E       		.uleb128 0xe
 4252 0dd5 44000000 		.4byte	.LVL276
 4253 0dd9 6F130000 		.4byte	0x136f
 4254 0ddd 18       		.uleb128 0x18
 4255 0dde 4A000000 		.4byte	.LVL277
 4256 0de2 D5120000 		.4byte	0x12d5
 4257 0de6 F40D0000 		.4byte	0xdf4
 4258 0dea 15       		.uleb128 0x15
 4259 0deb 01       		.uleb128 0x1
 4260 0dec 50       		.byte	0x50
 4261 0ded 05       		.uleb128 0x5
 4262 0dee 03       		.byte	0x3
 4263 0def 10000000 		.4byte	.LC1
 4264 0df3 00       		.byte	0
 4265 0df4 18       		.uleb128 0x18
 4266 0df5 50000000 		.4byte	.LVL278
 4267 0df9 B9110000 		.4byte	0x11b9
 4268 0dfd 070E0000 		.4byte	0xe07
 4269 0e01 15       		.uleb128 0x15
 4270 0e02 01       		.uleb128 0x1
 4271 0e03 50       		.byte	0x50
 4272 0e04 01       		.uleb128 0x1
 4273 0e05 35       		.byte	0x35
 4274 0e06 00       		.byte	0
 4275 0e07 18       		.uleb128 0x18
 4276 0e08 56000000 		.4byte	.LVL279
 4277 0e0c AE110000 		.4byte	0x11ae
 4278 0e10 1B0E0000 		.4byte	0xe1b
 4279 0e14 15       		.uleb128 0x15
 4280 0e15 01       		.uleb128 0x1
 4281 0e16 50       		.byte	0x50
ARM GAS  C:\Users\ANDREW~1\AppData\Local\Temp\ccwQPnwd.s 			page 98


 4282 0e17 02       		.uleb128 0x2
 4283 0e18 08       		.byte	0x8
 4284 0e19 20       		.byte	0x20
 4285 0e1a 00       		.byte	0
 4286 0e1b 18       		.uleb128 0x18
 4287 0e1c 5C000000 		.4byte	.LVL280
 4288 0e20 B9110000 		.4byte	0x11b9
 4289 0e24 2E0E0000 		.4byte	0xe2e
 4290 0e28 15       		.uleb128 0x15
 4291 0e29 01       		.uleb128 0x1
 4292 0e2a 50       		.byte	0x50
 4293 0e2b 01       		.uleb128 0x1
 4294 0e2c 35       		.byte	0x35
 4295 0e2d 00       		.byte	0
 4296 0e2e 0E       		.uleb128 0xe
 4297 0e2f 60000000 		.4byte	.LVL281
 4298 0e33 5F010000 		.4byte	0x15f
 4299 0e37 0E       		.uleb128 0xe
 4300 0e38 6A000000 		.4byte	.LVL283
 4301 0e3c 5F010000 		.4byte	0x15f
 4302 0e40 0E       		.uleb128 0xe
 4303 0e41 80000000 		.4byte	.LVL286
 4304 0e45 72050000 		.4byte	0x572
 4305 0e49 0E       		.uleb128 0xe
 4306 0e4a 84000000 		.4byte	.LVL287
 4307 0e4e 5F010000 		.4byte	0x15f
 4308 0e52 0E       		.uleb128 0xe
 4309 0e53 9C000000 		.4byte	.LVL290
 4310 0e57 72050000 		.4byte	0x572
 4311 0e5b 0E       		.uleb128 0xe
 4312 0e5c A0000000 		.4byte	.LVL291
 4313 0e60 5F010000 		.4byte	0x15f
 4314 0e64 0E       		.uleb128 0xe
 4315 0e65 B8000000 		.4byte	.LVL294
 4316 0e69 72050000 		.4byte	0x572
 4317 0e6d 0E       		.uleb128 0xe
 4318 0e6e BC000000 		.4byte	.LVL295
 4319 0e72 5F010000 		.4byte	0x15f
 4320 0e76 0E       		.uleb128 0xe
 4321 0e77 D4000000 		.4byte	.LVL298
 4322 0e7b 72050000 		.4byte	0x572
 4323 0e7f 0E       		.uleb128 0xe
 4324 0e80 D8000000 		.4byte	.LVL299
 4325 0e84 00080000 		.4byte	0x800
 4326 0e88 0E       		.uleb128 0xe
 4327 0e89 DC000000 		.4byte	.LVL300
 4328 0e8d 5F010000 		.4byte	0x15f
 4329 0e91 0E       		.uleb128 0xe
 4330 0e92 F4000000 		.4byte	.LVL303
 4331 0e96 7A130000 		.4byte	0x137a
 4332 0e9a 18       		.uleb128 0x18
 4333 0e9b FE000000 		.4byte	.LVL304
 4334 0e9f 7A130000 		.4byte	0x137a
 4335 0ea3 AD0E0000 		.4byte	0xead
 4336 0ea7 15       		.uleb128 0x15
 4337 0ea8 01       		.uleb128 0x1
 4338 0ea9 50       		.byte	0x50
ARM GAS  C:\Users\ANDREW~1\AppData\Local\Temp\ccwQPnwd.s 			page 99


 4339 0eaa 01       		.uleb128 0x1
 4340 0eab 34       		.byte	0x34
 4341 0eac 00       		.byte	0
 4342 0ead 0E       		.uleb128 0xe
 4343 0eae 06010000 		.4byte	.LVL305
 4344 0eb2 5F010000 		.4byte	0x15f
 4345 0eb6 18       		.uleb128 0x18
 4346 0eb7 12010000 		.4byte	.LVL306
 4347 0ebb D5120000 		.4byte	0x12d5
 4348 0ebf CD0E0000 		.4byte	0xecd
 4349 0ec3 15       		.uleb128 0x15
 4350 0ec4 01       		.uleb128 0x1
 4351 0ec5 50       		.byte	0x50
 4352 0ec6 05       		.uleb128 0x5
 4353 0ec7 03       		.byte	0x3
 4354 0ec8 1C000000 		.4byte	.LC2
 4355 0ecc 00       		.byte	0
 4356 0ecd 18       		.uleb128 0x18
 4357 0ece 18010000 		.4byte	.LVL307
 4358 0ed2 B9110000 		.4byte	0x11b9
 4359 0ed6 E00E0000 		.4byte	0xee0
 4360 0eda 15       		.uleb128 0x15
 4361 0edb 01       		.uleb128 0x1
 4362 0edc 50       		.byte	0x50
 4363 0edd 01       		.uleb128 0x1
 4364 0ede 35       		.byte	0x35
 4365 0edf 00       		.byte	0
 4366 0ee0 0E       		.uleb128 0xe
 4367 0ee1 1C010000 		.4byte	.LVL308
 4368 0ee5 BD080000 		.4byte	0x8bd
 4369 0ee9 18       		.uleb128 0x18
 4370 0eea 2A010000 		.4byte	.LVL309
 4371 0eee D5120000 		.4byte	0x12d5
 4372 0ef2 000F0000 		.4byte	0xf00
 4373 0ef6 15       		.uleb128 0x15
 4374 0ef7 01       		.uleb128 0x1
 4375 0ef8 50       		.byte	0x50
 4376 0ef9 05       		.uleb128 0x5
 4377 0efa 03       		.byte	0x3
 4378 0efb 24000000 		.4byte	.LC3
 4379 0eff 00       		.byte	0
 4380 0f00 18       		.uleb128 0x18
 4381 0f01 30010000 		.4byte	.LVL310
 4382 0f05 B9110000 		.4byte	0x11b9
 4383 0f09 130F0000 		.4byte	0xf13
 4384 0f0d 15       		.uleb128 0x15
 4385 0f0e 01       		.uleb128 0x1
 4386 0f0f 50       		.byte	0x50
 4387 0f10 01       		.uleb128 0x1
 4388 0f11 35       		.byte	0x35
 4389 0f12 00       		.byte	0
 4390 0f13 0E       		.uleb128 0xe
 4391 0f14 34010000 		.4byte	.LVL311
 4392 0f18 160B0000 		.4byte	0xb16
 4393 0f1c 18       		.uleb128 0x18
 4394 0f1d 42010000 		.4byte	.LVL312
 4395 0f21 D5120000 		.4byte	0x12d5
ARM GAS  C:\Users\ANDREW~1\AppData\Local\Temp\ccwQPnwd.s 			page 100


 4396 0f25 330F0000 		.4byte	0xf33
 4397 0f29 15       		.uleb128 0x15
 4398 0f2a 01       		.uleb128 0x1
 4399 0f2b 50       		.byte	0x50
 4400 0f2c 05       		.uleb128 0x5
 4401 0f2d 03       		.byte	0x3
 4402 0f2e 2C000000 		.4byte	.LC4
 4403 0f32 00       		.byte	0
 4404 0f33 18       		.uleb128 0x18
 4405 0f34 48010000 		.4byte	.LVL313
 4406 0f38 B9110000 		.4byte	0x11b9
 4407 0f3c 460F0000 		.4byte	0xf46
 4408 0f40 15       		.uleb128 0x15
 4409 0f41 01       		.uleb128 0x1
 4410 0f42 50       		.byte	0x50
 4411 0f43 01       		.uleb128 0x1
 4412 0f44 35       		.byte	0x35
 4413 0f45 00       		.byte	0
 4414 0f46 0E       		.uleb128 0xe
 4415 0f47 4C010000 		.4byte	.LVL314
 4416 0f4b 1C0C0000 		.4byte	0xc1c
 4417 0f4f 18       		.uleb128 0x18
 4418 0f50 5A010000 		.4byte	.LVL315
 4419 0f54 D5120000 		.4byte	0x12d5
 4420 0f58 660F0000 		.4byte	0xf66
 4421 0f5c 15       		.uleb128 0x15
 4422 0f5d 01       		.uleb128 0x1
 4423 0f5e 50       		.byte	0x50
 4424 0f5f 05       		.uleb128 0x5
 4425 0f60 03       		.byte	0x3
 4426 0f61 34000000 		.4byte	.LC5
 4427 0f65 00       		.byte	0
 4428 0f66 18       		.uleb128 0x18
 4429 0f67 60010000 		.4byte	.LVL316
 4430 0f6b B9110000 		.4byte	0x11b9
 4431 0f6f 790F0000 		.4byte	0xf79
 4432 0f73 15       		.uleb128 0x15
 4433 0f74 01       		.uleb128 0x1
 4434 0f75 50       		.byte	0x50
 4435 0f76 01       		.uleb128 0x1
 4436 0f77 35       		.byte	0x35
 4437 0f78 00       		.byte	0
 4438 0f79 0E       		.uleb128 0xe
 4439 0f7a 64010000 		.4byte	.LVL317
 4440 0f7e 1C0A0000 		.4byte	0xa1c
 4441 0f82 18       		.uleb128 0x18
 4442 0f83 6A010000 		.4byte	.LVL318
 4443 0f87 B9110000 		.4byte	0x11b9
 4444 0f8b 950F0000 		.4byte	0xf95
 4445 0f8f 15       		.uleb128 0x15
 4446 0f90 01       		.uleb128 0x1
 4447 0f91 50       		.byte	0x50
 4448 0f92 01       		.uleb128 0x1
 4449 0f93 35       		.byte	0x35
 4450 0f94 00       		.byte	0
 4451 0f95 0E       		.uleb128 0xe
 4452 0f96 6E010000 		.4byte	.LVL319
ARM GAS  C:\Users\ANDREW~1\AppData\Local\Temp\ccwQPnwd.s 			page 101


 4453 0f9a 00080000 		.4byte	0x800
 4454 0f9e 00       		.byte	0
 4455 0f9f 0D       		.uleb128 0xd
 4456 0fa0 3B070000 		.4byte	.LASF62
 4457 0fa4 01       		.byte	0x1
 4458 0fa5 AB01     		.2byte	0x1ab
 4459 0fa7 00000000 		.4byte	.LFB72
 4460 0fab 18000000 		.4byte	.LFE72-.LFB72
 4461 0faf 01       		.uleb128 0x1
 4462 0fb0 9C       		.byte	0x9c
 4463 0fb1 D10F0000 		.4byte	0xfd1
 4464 0fb5 0E       		.uleb128 0xe
 4465 0fb6 08000000 		.4byte	.LVL320
 4466 0fba 00080000 		.4byte	0x800
 4467 0fbe 0E       		.uleb128 0xe
 4468 0fbf 0C000000 		.4byte	.LVL321
 4469 0fc3 BF120000 		.4byte	0x12bf
 4470 0fc7 0E       		.uleb128 0xe
 4471 0fc8 12000000 		.4byte	.LVL322
 4472 0fcc CA120000 		.4byte	0x12ca
 4473 0fd0 00       		.byte	0
 4474 0fd1 27       		.uleb128 0x27
 4475 0fd2 CF040000 		.4byte	.LASF63
 4476 0fd6 05       		.byte	0x5
 4477 0fd7 1207     		.2byte	0x712
 4478 0fd9 DD0F0000 		.4byte	0xfdd
 4479 0fdd 28       		.uleb128 0x28
 4480 0fde 7D000000 		.4byte	0x7d
 4481 0fe2 29       		.uleb128 0x29
 4482 0fe3 54020000 		.4byte	.LASF64
 4483 0fe7 01       		.byte	0x1
 4484 0fe8 30       		.byte	0x30
 4485 0fe9 25000000 		.4byte	0x25
 4486 0fed 05       		.uleb128 0x5
 4487 0fee 03       		.byte	0x3
 4488 0fef 00000000 		.4byte	counter
 4489 0ff3 29       		.uleb128 0x29
 4490 0ff4 5C000000 		.4byte	.LASF65
 4491 0ff8 01       		.byte	0x1
 4492 0ff9 32       		.byte	0x32
 4493 0ffa 6F000000 		.4byte	0x6f
 4494 0ffe 05       		.uleb128 0x5
 4495 0fff 03       		.byte	0x3
 4496 1000 00000000 		.4byte	time_passed_step
 4497 1004 29       		.uleb128 0x29
 4498 1005 3C030000 		.4byte	.LASF66
 4499 1009 01       		.byte	0x1
 4500 100a 33       		.byte	0x33
 4501 100b 25000000 		.4byte	0x25
 4502 100f 05       		.uleb128 0x5
 4503 1010 03       		.byte	0x3
 4504 1011 00000000 		.4byte	previous_buzz
 4505 1015 29       		.uleb128 0x29
 4506 1016 5A040000 		.4byte	.LASF67
 4507 101a 01       		.byte	0x1
 4508 101b 35       		.byte	0x35
 4509 101c 25000000 		.4byte	0x25
ARM GAS  C:\Users\ANDREW~1\AppData\Local\Temp\ccwQPnwd.s 			page 102


 4510 1020 05       		.uleb128 0x5
 4511 1021 03       		.byte	0x3
 4512 1022 00000000 		.4byte	buzz_duration
 4513 1026 29       		.uleb128 0x29
 4514 1027 45000000 		.4byte	.LASF68
 4515 102b 01       		.byte	0x1
 4516 102c 36       		.byte	0x36
 4517 102d 25000000 		.4byte	0x25
 4518 1031 05       		.uleb128 0x5
 4519 1032 03       		.byte	0x3
 4520 1033 00000000 		.4byte	seg_num
 4521 1037 29       		.uleb128 0x29
 4522 1038 B9000000 		.4byte	.LASF69
 4523 103c 01       		.byte	0x1
 4524 103d 3A       		.byte	0x3a
 4525 103e 6F000000 		.4byte	0x6f
 4526 1042 05       		.uleb128 0x5
 4527 1043 03       		.byte	0x3
 4528 1044 00000000 		.4byte	mode
 4529 1048 29       		.uleb128 0x29
 4530 1049 77060000 		.4byte	.LASF70
 4531 104d 01       		.byte	0x1
 4532 104e 3B       		.byte	0x3b
 4533 104f 6F000000 		.4byte	0x6f
 4534 1053 05       		.uleb128 0x5
 4535 1054 03       		.byte	0x3
 4536 1055 00000000 		.4byte	group_num
 4537 1059 29       		.uleb128 0x29
 4538 105a 7A000000 		.4byte	.LASF71
 4539 105e 01       		.byte	0x1
 4540 105f 3C       		.byte	0x3c
 4541 1060 9B000000 		.4byte	0x9b
 4542 1064 05       		.uleb128 0x5
 4543 1065 03       		.byte	0x3
 4544 1066 00000000 		.4byte	cm_or_inch
 4545 106a 29       		.uleb128 0x29
 4546 106b E7040000 		.4byte	.LASF72
 4547 106f 01       		.byte	0x1
 4548 1070 3E       		.byte	0x3e
 4549 1071 25000000 		.4byte	0x25
 4550 1075 05       		.uleb128 0x5
 4551 1076 03       		.byte	0x3
 4552 1077 00000000 		.4byte	distance
 4553 107b 1E       		.uleb128 0x1e
 4554 107c 88000000 		.4byte	0x88
 4555 1080 8B100000 		.4byte	0x108b
 4556 1084 1F       		.uleb128 0x1f
 4557 1085 A9000000 		.4byte	0xa9
 4558 1089 0F       		.byte	0xf
 4559 108a 00       		.byte	0
 4560 108b 2A       		.uleb128 0x2a
 4561 108c BE030000 		.4byte	.LASF73
 4562 1090 01       		.byte	0x1
 4563 1091 0202     		.2byte	0x202
 4564 1093 7B100000 		.4byte	0x107b
 4565 1097 05       		.uleb128 0x5
 4566 1098 03       		.byte	0x3
ARM GAS  C:\Users\ANDREW~1\AppData\Local\Temp\ccwQPnwd.s 			page 103


 4567 1099 00000000 		.4byte	value_text
 4568 109d 2A       		.uleb128 0x2a
 4569 109e ED030000 		.4byte	.LASF74
 4570 10a2 01       		.byte	0x1
 4571 10a3 2E02     		.2byte	0x22e
 4572 10a5 6F000000 		.4byte	0x6f
 4573 10a9 05       		.uleb128 0x5
 4574 10aa 03       		.byte	0x3
 4575 10ab 00000000 		.4byte	waiting_ultra
 4576 10af 2A       		.uleb128 0x2a
 4577 10b0 47060000 		.4byte	.LASF75
 4578 10b4 01       		.byte	0x1
 4579 10b5 7A02     		.2byte	0x27a
 4580 10b7 88000000 		.4byte	0x88
 4581 10bb 05       		.uleb128 0x5
 4582 10bc 03       		.byte	0x3
 4583 10bd 00000000 		.4byte	InterruptCnt
 4584 10c1 2A       		.uleb128 0x2a
 4585 10c2 C2020000 		.4byte	.LASF76
 4586 10c6 01       		.byte	0x1
 4587 10c7 A002     		.2byte	0x2a0
 4588 10c9 6F000000 		.4byte	0x6f
 4589 10cd 05       		.uleb128 0x5
 4590 10ce 03       		.byte	0x3
 4591 10cf 00000000 		.4byte	run_7_Seg
 4592 10d3 2A       		.uleb128 0x2a
 4593 10d4 EE020000 		.4byte	.LASF77
 4594 10d8 01       		.byte	0x1
 4595 10d9 A802     		.2byte	0x2a8
 4596 10db 25000000 		.4byte	0x25
 4597 10df 05       		.uleb128 0x5
 4598 10e0 03       		.byte	0x3
 4599 10e1 00000000 		.4byte	old_dis_val
 4600 10e5 1E       		.uleb128 0x1e
 4601 10e6 6F000000 		.4byte	0x6f
 4602 10ea F5100000 		.4byte	0x10f5
 4603 10ee 1F       		.uleb128 0x1f
 4604 10ef A9000000 		.4byte	0xa9
 4605 10f3 03       		.byte	0x3
 4606 10f4 00       		.byte	0
 4607 10f5 2B       		.uleb128 0x2b
 4608 10f6 4400     		.ascii	"D\000"
 4609 10f8 01       		.byte	0x1
 4610 10f9 AA02     		.2byte	0x2aa
 4611 10fb E5100000 		.4byte	0x10e5
 4612 10ff 05       		.uleb128 0x5
 4613 1100 03       		.byte	0x3
 4614 1101 00000000 		.4byte	D
 4615 1105 2B       		.uleb128 0x2b
 4616 1106 647000   		.ascii	"dp\000"
 4617 1109 01       		.byte	0x1
 4618 110a AB02     		.2byte	0x2ab
 4619 110c E5100000 		.4byte	0x10e5
 4620 1110 05       		.uleb128 0x5
 4621 1111 03       		.byte	0x3
 4622 1112 00000000 		.4byte	dp
 4623 1116 2A       		.uleb128 0x2a
ARM GAS  C:\Users\ANDREW~1\AppData\Local\Temp\ccwQPnwd.s 			page 104


 4624 1117 0D010000 		.4byte	.LASF78
 4625 111b 01       		.byte	0x1
 4626 111c AC02     		.2byte	0x2ac
 4627 111e 5A000000 		.4byte	0x5a
 4628 1122 05       		.uleb128 0x5
 4629 1123 03       		.byte	0x3
 4630 1124 00000000 		.4byte	count
 4631 1128 1E       		.uleb128 0x1e
 4632 1129 B6000000 		.4byte	0xb6
 4633 112d 3E110000 		.4byte	0x113e
 4634 1131 1F       		.uleb128 0x1f
 4635 1132 A9000000 		.4byte	0xa9
 4636 1136 12       		.byte	0x12
 4637 1137 1F       		.uleb128 0x1f
 4638 1138 A9000000 		.4byte	0xa9
 4639 113c 07       		.byte	0x7
 4640 113d 00       		.byte	0
 4641 113e 2A       		.uleb128 0x2a
 4642 113f 7B070000 		.4byte	.LASF79
 4643 1143 01       		.byte	0x1
 4644 1144 3C03     		.2byte	0x33c
 4645 1146 50110000 		.4byte	0x1150
 4646 114a 05       		.uleb128 0x5
 4647 114b 03       		.byte	0x3
 4648 114c 00000000 		.4byte	charLookup
 4649 1150 07       		.uleb128 0x7
 4650 1151 28110000 		.4byte	0x1128
 4651 1155 1E       		.uleb128 0x1e
 4652 1156 6F000000 		.4byte	0x6f
 4653 115a 65110000 		.4byte	0x1165
 4654 115e 1F       		.uleb128 0x1f
 4655 115f A9000000 		.4byte	0xa9
 4656 1163 06       		.byte	0x6
 4657 1164 00       		.byte	0
 4658 1165 2A       		.uleb128 0x2a
 4659 1166 32060000 		.4byte	.LASF80
 4660 116a 01       		.byte	0x1
 4661 116b 5303     		.2byte	0x353
 4662 116d 55110000 		.4byte	0x1155
 4663 1171 05       		.uleb128 0x5
 4664 1172 03       		.byte	0x3
 4665 1173 00000000 		.4byte	segmentPattern_array
 4666 1177 2C       		.uleb128 0x2c
 4667 1178 D9030000 		.4byte	.LASF81
 4668 117c D9030000 		.4byte	.LASF81
 4669 1180 06       		.byte	0x6
 4670 1181 5B       		.byte	0x5b
 4671 1182 2C       		.uleb128 0x2c
 4672 1183 EC060000 		.4byte	.LASF82
 4673 1187 EC060000 		.4byte	.LASF82
 4674 118b 06       		.byte	0x6
 4675 118c 67       		.byte	0x67
 4676 118d 2C       		.uleb128 0x2c
 4677 118e 67070000 		.4byte	.LASF83
 4678 1192 67070000 		.4byte	.LASF83
 4679 1196 06       		.byte	0x6
 4680 1197 69       		.byte	0x69
ARM GAS  C:\Users\ANDREW~1\AppData\Local\Temp\ccwQPnwd.s 			page 105


 4681 1198 2C       		.uleb128 0x2c
 4682 1199 26010000 		.4byte	.LASF84
 4683 119d 26010000 		.4byte	.LASF84
 4684 11a1 07       		.byte	0x7
 4685 11a2 67       		.byte	0x67
 4686 11a3 2C       		.uleb128 0x2c
 4687 11a4 66030000 		.4byte	.LASF85
 4688 11a8 66030000 		.4byte	.LASF85
 4689 11ac 07       		.byte	0x7
 4690 11ad 69       		.byte	0x69
 4691 11ae 2C       		.uleb128 0x2c
 4692 11af F7050000 		.4byte	.LASF86
 4693 11b3 F7050000 		.4byte	.LASF86
 4694 11b7 08       		.byte	0x8
 4695 11b8 88       		.byte	0x88
 4696 11b9 2C       		.uleb128 0x2c
 4697 11ba 0D000000 		.4byte	.LASF87
 4698 11be 0D000000 		.4byte	.LASF87
 4699 11c2 09       		.byte	0x9
 4700 11c3 76       		.byte	0x76
 4701 11c4 2C       		.uleb128 0x2c
 4702 11c5 32040000 		.4byte	.LASF88
 4703 11c9 32040000 		.4byte	.LASF88
 4704 11cd 0A       		.byte	0xa
 4705 11ce 26       		.byte	0x26
 4706 11cf 2C       		.uleb128 0x2c
 4707 11d0 96040000 		.4byte	.LASF89
 4708 11d4 96040000 		.4byte	.LASF89
 4709 11d8 0B       		.byte	0xb
 4710 11d9 28       		.byte	0x28
 4711 11da 2C       		.uleb128 0x2c
 4712 11db A2030000 		.4byte	.LASF90
 4713 11df A2030000 		.4byte	.LASF90
 4714 11e3 0B       		.byte	0xb
 4715 11e4 18       		.byte	0x18
 4716 11e5 2C       		.uleb128 0x2c
 4717 11e6 28030000 		.4byte	.LASF91
 4718 11ea 28030000 		.4byte	.LASF91
 4719 11ee 0C       		.byte	0xc
 4720 11ef 2F       		.byte	0x2f
 4721 11f0 2C       		.uleb128 0x2c
 4722 11f1 1C010000 		.4byte	.LASF92
 4723 11f5 1C010000 		.4byte	.LASF92
 4724 11f9 09       		.byte	0x9
 4725 11fa 77       		.byte	0x77
 4726 11fb 2C       		.uleb128 0x2c
 4727 11fc D2060000 		.4byte	.LASF93
 4728 1200 D2060000 		.4byte	.LASF93
 4729 1204 06       		.byte	0x6
 4730 1205 5A       		.byte	0x5a
 4731 1206 2C       		.uleb128 0x2c
 4732 1207 07030000 		.4byte	.LASF94
 4733 120b 07030000 		.4byte	.LASF94
 4734 120f 0D       		.byte	0xd
 4735 1210 87       		.byte	0x87
 4736 1211 2D       		.uleb128 0x2d
 4737 1212 E6030000 		.4byte	.LASF132
ARM GAS  C:\Users\ANDREW~1\AppData\Local\Temp\ccwQPnwd.s 			page 106


 4738 1216 E6030000 		.4byte	.LASF132
 4739 121a 2C       		.uleb128 0x2c
 4740 121b 02050000 		.4byte	.LASF95
 4741 121f 02050000 		.4byte	.LASF95
 4742 1223 0E       		.byte	0xe
 4743 1224 26       		.byte	0x26
 4744 1225 2C       		.uleb128 0x2c
 4745 1226 87010000 		.4byte	.LASF96
 4746 122a 87010000 		.4byte	.LASF96
 4747 122e 0F       		.byte	0xf
 4748 122f 26       		.byte	0x26
 4749 1230 2C       		.uleb128 0x2c
 4750 1231 81060000 		.4byte	.LASF97
 4751 1235 81060000 		.4byte	.LASF97
 4752 1239 10       		.byte	0x10
 4753 123a 26       		.byte	0x26
 4754 123b 2C       		.uleb128 0x2c
 4755 123c FA020000 		.4byte	.LASF98
 4756 1240 FA020000 		.4byte	.LASF98
 4757 1244 11       		.byte	0x11
 4758 1245 26       		.byte	0x26
 4759 1246 2C       		.uleb128 0x2c
 4760 1247 8E060000 		.4byte	.LASF99
 4761 124b 8E060000 		.4byte	.LASF99
 4762 124f 12       		.byte	0x12
 4763 1250 26       		.byte	0x26
 4764 1251 2C       		.uleb128 0x2c
 4765 1252 74040000 		.4byte	.LASF100
 4766 1256 74040000 		.4byte	.LASF100
 4767 125a 13       		.byte	0x13
 4768 125b 26       		.byte	0x26
 4769 125c 2C       		.uleb128 0x2c
 4770 125d E8000000 		.4byte	.LASF101
 4771 1261 E8000000 		.4byte	.LASF101
 4772 1265 14       		.byte	0x14
 4773 1266 26       		.byte	0x26
 4774 1267 2C       		.uleb128 0x2c
 4775 1268 A9040000 		.4byte	.LASF102
 4776 126c A9040000 		.4byte	.LASF102
 4777 1270 15       		.byte	0x15
 4778 1271 26       		.byte	0x26
 4779 1272 2C       		.uleb128 0x2c
 4780 1273 94010000 		.4byte	.LASF103
 4781 1277 94010000 		.4byte	.LASF103
 4782 127b 16       		.byte	0x16
 4783 127c 26       		.byte	0x26
 4784 127d 2C       		.uleb128 0x2c
 4785 127e D7050000 		.4byte	.LASF104
 4786 1282 D7050000 		.4byte	.LASF104
 4787 1286 17       		.byte	0x17
 4788 1287 26       		.byte	0x26
 4789 1288 2C       		.uleb128 0x2c
 4790 1289 99020000 		.4byte	.LASF105
 4791 128d 99020000 		.4byte	.LASF105
 4792 1291 18       		.byte	0x18
 4793 1292 26       		.byte	0x26
 4794 1293 2C       		.uleb128 0x2c
ARM GAS  C:\Users\ANDREW~1\AppData\Local\Temp\ccwQPnwd.s 			page 107


 4795 1294 15000000 		.4byte	.LASF106
 4796 1298 15000000 		.4byte	.LASF106
 4797 129c 19       		.byte	0x19
 4798 129d 26       		.byte	0x26
 4799 129e 2C       		.uleb128 0x2c
 4800 129f B3020000 		.4byte	.LASF107
 4801 12a3 B3020000 		.4byte	.LASF107
 4802 12a7 1A       		.byte	0x1a
 4803 12a8 26       		.byte	0x26
 4804 12a9 2C       		.uleb128 0x2c
 4805 12aa BE000000 		.4byte	.LASF108
 4806 12ae BE000000 		.4byte	.LASF108
 4807 12b2 1B       		.byte	0x1b
 4808 12b3 26       		.byte	0x26
 4809 12b4 2C       		.uleb128 0x2c
 4810 12b5 50010000 		.4byte	.LASF109
 4811 12b9 50010000 		.4byte	.LASF109
 4812 12bd 1C       		.byte	0x1c
 4813 12be 26       		.byte	0x26
 4814 12bf 2C       		.uleb128 0x2c
 4815 12c0 86030000 		.4byte	.LASF110
 4816 12c4 86030000 		.4byte	.LASF110
 4817 12c8 1D       		.byte	0x1d
 4818 12c9 29       		.byte	0x29
 4819 12ca 2C       		.uleb128 0x2c
 4820 12cb 18060000 		.4byte	.LASF111
 4821 12cf 18060000 		.4byte	.LASF111
 4822 12d3 1E       		.byte	0x1e
 4823 12d4 29       		.byte	0x29
 4824 12d5 2C       		.uleb128 0x2c
 4825 12d6 72020000 		.4byte	.LASF112
 4826 12da 72020000 		.4byte	.LASF112
 4827 12de 08       		.byte	0x8
 4828 12df 8B       		.byte	0x8b
 4829 12e0 2C       		.uleb128 0x2c
 4830 12e1 9A050000 		.4byte	.LASF113
 4831 12e5 9A050000 		.4byte	.LASF113
 4832 12e9 1F       		.byte	0x1f
 4833 12ea 29       		.byte	0x29
 4834 12eb 2C       		.uleb128 0x2c
 4835 12ec 9A060000 		.4byte	.LASF114
 4836 12f0 9A060000 		.4byte	.LASF114
 4837 12f4 20       		.byte	0x20
 4838 12f5 21       		.byte	0x21
 4839 12f6 2C       		.uleb128 0x2c
 4840 12f7 5C020000 		.4byte	.LASF115
 4841 12fb 5C020000 		.4byte	.LASF115
 4842 12ff 21       		.byte	0x21
 4843 1300 28       		.byte	0x28
 4844 1301 2C       		.uleb128 0x2c
 4845 1302 CC020000 		.4byte	.LASF116
 4846 1306 CC020000 		.4byte	.LASF116
 4847 130a 21       		.byte	0x21
 4848 130b 18       		.byte	0x18
 4849 130c 2C       		.uleb128 0x2c
 4850 130d 85000000 		.4byte	.LASF117
 4851 1311 85000000 		.4byte	.LASF117
ARM GAS  C:\Users\ANDREW~1\AppData\Local\Temp\ccwQPnwd.s 			page 108


 4852 1315 06       		.byte	0x6
 4853 1316 5D       		.byte	0x5d
 4854 1317 2C       		.uleb128 0x2c
 4855 1318 C6060000 		.4byte	.LASF118
 4856 131c C6060000 		.4byte	.LASF118
 4857 1320 22       		.byte	0x22
 4858 1321 3E       		.byte	0x3e
 4859 1322 2C       		.uleb128 0x2c
 4860 1323 8B020000 		.4byte	.LASF119
 4861 1327 8B020000 		.4byte	.LASF119
 4862 132b 23       		.byte	0x23
 4863 132c 33       		.byte	0x33
 4864 132d 2C       		.uleb128 0x2c
 4865 132e FB030000 		.4byte	.LASF120
 4866 1332 FB030000 		.4byte	.LASF120
 4867 1336 24       		.byte	0x24
 4868 1337 3F       		.byte	0x3f
 4869 1338 2C       		.uleb128 0x2c
 4870 1339 59070000 		.4byte	.LASF121
 4871 133d 59070000 		.4byte	.LASF121
 4872 1341 25       		.byte	0x25
 4873 1342 33       		.byte	0x33
 4874 1343 2C       		.uleb128 0x2c
 4875 1344 3F040000 		.4byte	.LASF122
 4876 1348 3F040000 		.4byte	.LASF122
 4877 134c 26       		.byte	0x26
 4878 134d 26       		.byte	0x26
 4879 134e 2C       		.uleb128 0x2c
 4880 134f 1D070000 		.4byte	.LASF123
 4881 1353 1D070000 		.4byte	.LASF123
 4882 1357 07       		.byte	0x7
 4883 1358 5D       		.byte	0x5d
 4884 1359 2C       		.uleb128 0x2c
 4885 135a 4A030000 		.4byte	.LASF124
 4886 135e 4A030000 		.4byte	.LASF124
 4887 1362 07       		.byte	0x7
 4888 1363 5A       		.byte	0x5a
 4889 1364 2C       		.uleb128 0x2c
 4890 1365 D0000000 		.4byte	.LASF125
 4891 1369 D0000000 		.4byte	.LASF125
 4892 136d 20       		.byte	0x20
 4893 136e 1F       		.byte	0x1f
 4894 136f 2C       		.uleb128 0x2c
 4895 1370 8D050000 		.4byte	.LASF126
 4896 1374 8D050000 		.4byte	.LASF126
 4897 1378 08       		.byte	0x8
 4898 1379 54       		.byte	0x54
 4899 137a 2C       		.uleb128 0x2c
 4900 137b C9030000 		.4byte	.LASF127
 4901 137f C9030000 		.4byte	.LASF127
 4902 1383 20       		.byte	0x20
 4903 1384 23       		.byte	0x23
 4904 1385 00       		.byte	0
 4905              		.section	.debug_abbrev,"",%progbits
 4906              	.Ldebug_abbrev0:
 4907 0000 01       		.uleb128 0x1
 4908 0001 11       		.uleb128 0x11
ARM GAS  C:\Users\ANDREW~1\AppData\Local\Temp\ccwQPnwd.s 			page 109


 4909 0002 01       		.byte	0x1
 4910 0003 25       		.uleb128 0x25
 4911 0004 0E       		.uleb128 0xe
 4912 0005 13       		.uleb128 0x13
 4913 0006 0B       		.uleb128 0xb
 4914 0007 03       		.uleb128 0x3
 4915 0008 0E       		.uleb128 0xe
 4916 0009 1B       		.uleb128 0x1b
 4917 000a 0E       		.uleb128 0xe
 4918 000b 55       		.uleb128 0x55
 4919 000c 17       		.uleb128 0x17
 4920 000d 11       		.uleb128 0x11
 4921 000e 01       		.uleb128 0x1
 4922 000f 10       		.uleb128 0x10
 4923 0010 17       		.uleb128 0x17
 4924 0011 00       		.byte	0
 4925 0012 00       		.byte	0
 4926 0013 02       		.uleb128 0x2
 4927 0014 24       		.uleb128 0x24
 4928 0015 00       		.byte	0
 4929 0016 0B       		.uleb128 0xb
 4930 0017 0B       		.uleb128 0xb
 4931 0018 3E       		.uleb128 0x3e
 4932 0019 0B       		.uleb128 0xb
 4933 001a 03       		.uleb128 0x3
 4934 001b 0E       		.uleb128 0xe
 4935 001c 00       		.byte	0
 4936 001d 00       		.byte	0
 4937 001e 03       		.uleb128 0x3
 4938 001f 16       		.uleb128 0x16
 4939 0020 00       		.byte	0
 4940 0021 03       		.uleb128 0x3
 4941 0022 0E       		.uleb128 0xe
 4942 0023 3A       		.uleb128 0x3a
 4943 0024 0B       		.uleb128 0xb
 4944 0025 3B       		.uleb128 0x3b
 4945 0026 0B       		.uleb128 0xb
 4946 0027 49       		.uleb128 0x49
 4947 0028 13       		.uleb128 0x13
 4948 0029 00       		.byte	0
 4949 002a 00       		.byte	0
 4950 002b 04       		.uleb128 0x4
 4951 002c 24       		.uleb128 0x24
 4952 002d 00       		.byte	0
 4953 002e 0B       		.uleb128 0xb
 4954 002f 0B       		.uleb128 0xb
 4955 0030 3E       		.uleb128 0x3e
 4956 0031 0B       		.uleb128 0xb
 4957 0032 03       		.uleb128 0x3
 4958 0033 08       		.uleb128 0x8
 4959 0034 00       		.byte	0
 4960 0035 00       		.byte	0
 4961 0036 05       		.uleb128 0x5
 4962 0037 16       		.uleb128 0x16
 4963 0038 00       		.byte	0
 4964 0039 03       		.uleb128 0x3
 4965 003a 0E       		.uleb128 0xe
ARM GAS  C:\Users\ANDREW~1\AppData\Local\Temp\ccwQPnwd.s 			page 110


 4966 003b 3A       		.uleb128 0x3a
 4967 003c 0B       		.uleb128 0xb
 4968 003d 3B       		.uleb128 0x3b
 4969 003e 05       		.uleb128 0x5
 4970 003f 49       		.uleb128 0x49
 4971 0040 13       		.uleb128 0x13
 4972 0041 00       		.byte	0
 4973 0042 00       		.byte	0
 4974 0043 06       		.uleb128 0x6
 4975 0044 0F       		.uleb128 0xf
 4976 0045 00       		.byte	0
 4977 0046 0B       		.uleb128 0xb
 4978 0047 0B       		.uleb128 0xb
 4979 0048 49       		.uleb128 0x49
 4980 0049 13       		.uleb128 0x13
 4981 004a 00       		.byte	0
 4982 004b 00       		.byte	0
 4983 004c 07       		.uleb128 0x7
 4984 004d 26       		.uleb128 0x26
 4985 004e 00       		.byte	0
 4986 004f 49       		.uleb128 0x49
 4987 0050 13       		.uleb128 0x13
 4988 0051 00       		.byte	0
 4989 0052 00       		.byte	0
 4990 0053 08       		.uleb128 0x8
 4991 0054 26       		.uleb128 0x26
 4992 0055 00       		.byte	0
 4993 0056 00       		.byte	0
 4994 0057 00       		.byte	0
 4995 0058 09       		.uleb128 0x9
 4996 0059 2E       		.uleb128 0x2e
 4997 005a 01       		.byte	0x1
 4998 005b 3F       		.uleb128 0x3f
 4999 005c 19       		.uleb128 0x19
 5000 005d 03       		.uleb128 0x3
 5001 005e 0E       		.uleb128 0xe
 5002 005f 3A       		.uleb128 0x3a
 5003 0060 0B       		.uleb128 0xb
 5004 0061 3B       		.uleb128 0x3b
 5005 0062 05       		.uleb128 0x5
 5006 0063 27       		.uleb128 0x27
 5007 0064 19       		.uleb128 0x19
 5008 0065 49       		.uleb128 0x49
 5009 0066 13       		.uleb128 0x13
 5010 0067 11       		.uleb128 0x11
 5011 0068 01       		.uleb128 0x1
 5012 0069 12       		.uleb128 0x12
 5013 006a 06       		.uleb128 0x6
 5014 006b 40       		.uleb128 0x40
 5015 006c 18       		.uleb128 0x18
 5016 006d 9742     		.uleb128 0x2117
 5017 006f 19       		.uleb128 0x19
 5018 0070 01       		.uleb128 0x1
 5019 0071 13       		.uleb128 0x13
 5020 0072 00       		.byte	0
 5021 0073 00       		.byte	0
 5022 0074 0A       		.uleb128 0xa
ARM GAS  C:\Users\ANDREW~1\AppData\Local\Temp\ccwQPnwd.s 			page 111


 5023 0075 05       		.uleb128 0x5
 5024 0076 00       		.byte	0
 5025 0077 03       		.uleb128 0x3
 5026 0078 08       		.uleb128 0x8
 5027 0079 3A       		.uleb128 0x3a
 5028 007a 0B       		.uleb128 0xb
 5029 007b 3B       		.uleb128 0x3b
 5030 007c 05       		.uleb128 0x5
 5031 007d 49       		.uleb128 0x49
 5032 007e 13       		.uleb128 0x13
 5033 007f 02       		.uleb128 0x2
 5034 0080 17       		.uleb128 0x17
 5035 0081 00       		.byte	0
 5036 0082 00       		.byte	0
 5037 0083 0B       		.uleb128 0xb
 5038 0084 05       		.uleb128 0x5
 5039 0085 00       		.byte	0
 5040 0086 03       		.uleb128 0x3
 5041 0087 08       		.uleb128 0x8
 5042 0088 3A       		.uleb128 0x3a
 5043 0089 0B       		.uleb128 0xb
 5044 008a 3B       		.uleb128 0x3b
 5045 008b 05       		.uleb128 0x5
 5046 008c 49       		.uleb128 0x49
 5047 008d 13       		.uleb128 0x13
 5048 008e 02       		.uleb128 0x2
 5049 008f 18       		.uleb128 0x18
 5050 0090 00       		.byte	0
 5051 0091 00       		.byte	0
 5052 0092 0C       		.uleb128 0xc
 5053 0093 2E       		.uleb128 0x2e
 5054 0094 00       		.byte	0
 5055 0095 3F       		.uleb128 0x3f
 5056 0096 19       		.uleb128 0x19
 5057 0097 03       		.uleb128 0x3
 5058 0098 0E       		.uleb128 0xe
 5059 0099 3A       		.uleb128 0x3a
 5060 009a 0B       		.uleb128 0xb
 5061 009b 3B       		.uleb128 0x3b
 5062 009c 05       		.uleb128 0x5
 5063 009d 27       		.uleb128 0x27
 5064 009e 19       		.uleb128 0x19
 5065 009f 11       		.uleb128 0x11
 5066 00a0 01       		.uleb128 0x1
 5067 00a1 12       		.uleb128 0x12
 5068 00a2 06       		.uleb128 0x6
 5069 00a3 40       		.uleb128 0x40
 5070 00a4 18       		.uleb128 0x18
 5071 00a5 9742     		.uleb128 0x2117
 5072 00a7 19       		.uleb128 0x19
 5073 00a8 00       		.byte	0
 5074 00a9 00       		.byte	0
 5075 00aa 0D       		.uleb128 0xd
 5076 00ab 2E       		.uleb128 0x2e
 5077 00ac 01       		.byte	0x1
 5078 00ad 3F       		.uleb128 0x3f
 5079 00ae 19       		.uleb128 0x19
ARM GAS  C:\Users\ANDREW~1\AppData\Local\Temp\ccwQPnwd.s 			page 112


 5080 00af 03       		.uleb128 0x3
 5081 00b0 0E       		.uleb128 0xe
 5082 00b1 3A       		.uleb128 0x3a
 5083 00b2 0B       		.uleb128 0xb
 5084 00b3 3B       		.uleb128 0x3b
 5085 00b4 05       		.uleb128 0x5
 5086 00b5 27       		.uleb128 0x27
 5087 00b6 19       		.uleb128 0x19
 5088 00b7 11       		.uleb128 0x11
 5089 00b8 01       		.uleb128 0x1
 5090 00b9 12       		.uleb128 0x12
 5091 00ba 06       		.uleb128 0x6
 5092 00bb 40       		.uleb128 0x40
 5093 00bc 18       		.uleb128 0x18
 5094 00bd 9742     		.uleb128 0x2117
 5095 00bf 19       		.uleb128 0x19
 5096 00c0 01       		.uleb128 0x1
 5097 00c1 13       		.uleb128 0x13
 5098 00c2 00       		.byte	0
 5099 00c3 00       		.byte	0
 5100 00c4 0E       		.uleb128 0xe
 5101 00c5 898201   		.uleb128 0x4109
 5102 00c8 00       		.byte	0
 5103 00c9 11       		.uleb128 0x11
 5104 00ca 01       		.uleb128 0x1
 5105 00cb 31       		.uleb128 0x31
 5106 00cc 13       		.uleb128 0x13
 5107 00cd 00       		.byte	0
 5108 00ce 00       		.byte	0
 5109 00cf 0F       		.uleb128 0xf
 5110 00d0 2E       		.uleb128 0x2e
 5111 00d1 01       		.byte	0x1
 5112 00d2 3F       		.uleb128 0x3f
 5113 00d3 19       		.uleb128 0x19
 5114 00d4 03       		.uleb128 0x3
 5115 00d5 0E       		.uleb128 0xe
 5116 00d6 3A       		.uleb128 0x3a
 5117 00d7 0B       		.uleb128 0xb
 5118 00d8 3B       		.uleb128 0x3b
 5119 00d9 05       		.uleb128 0x5
 5120 00da 49       		.uleb128 0x49
 5121 00db 13       		.uleb128 0x13
 5122 00dc 11       		.uleb128 0x11
 5123 00dd 01       		.uleb128 0x1
 5124 00de 12       		.uleb128 0x12
 5125 00df 06       		.uleb128 0x6
 5126 00e0 40       		.uleb128 0x40
 5127 00e1 18       		.uleb128 0x18
 5128 00e2 9642     		.uleb128 0x2116
 5129 00e4 19       		.uleb128 0x19
 5130 00e5 01       		.uleb128 0x1
 5131 00e6 13       		.uleb128 0x13
 5132 00e7 00       		.byte	0
 5133 00e8 00       		.byte	0
 5134 00e9 10       		.uleb128 0x10
 5135 00ea 34       		.uleb128 0x34
 5136 00eb 00       		.byte	0
ARM GAS  C:\Users\ANDREW~1\AppData\Local\Temp\ccwQPnwd.s 			page 113


 5137 00ec 03       		.uleb128 0x3
 5138 00ed 0E       		.uleb128 0xe
 5139 00ee 3A       		.uleb128 0x3a
 5140 00ef 0B       		.uleb128 0xb
 5141 00f0 3B       		.uleb128 0x3b
 5142 00f1 05       		.uleb128 0x5
 5143 00f2 49       		.uleb128 0x49
 5144 00f3 13       		.uleb128 0x13
 5145 00f4 02       		.uleb128 0x2
 5146 00f5 17       		.uleb128 0x17
 5147 00f6 00       		.byte	0
 5148 00f7 00       		.byte	0
 5149 00f8 11       		.uleb128 0x11
 5150 00f9 0B       		.uleb128 0xb
 5151 00fa 01       		.byte	0x1
 5152 00fb 11       		.uleb128 0x11
 5153 00fc 01       		.uleb128 0x1
 5154 00fd 12       		.uleb128 0x12
 5155 00fe 06       		.uleb128 0x6
 5156 00ff 01       		.uleb128 0x1
 5157 0100 13       		.uleb128 0x13
 5158 0101 00       		.byte	0
 5159 0102 00       		.byte	0
 5160 0103 12       		.uleb128 0x12
 5161 0104 34       		.uleb128 0x34
 5162 0105 00       		.byte	0
 5163 0106 03       		.uleb128 0x3
 5164 0107 08       		.uleb128 0x8
 5165 0108 3A       		.uleb128 0x3a
 5166 0109 0B       		.uleb128 0xb
 5167 010a 3B       		.uleb128 0x3b
 5168 010b 05       		.uleb128 0x5
 5169 010c 49       		.uleb128 0x49
 5170 010d 13       		.uleb128 0x13
 5171 010e 02       		.uleb128 0x2
 5172 010f 17       		.uleb128 0x17
 5173 0110 00       		.byte	0
 5174 0111 00       		.byte	0
 5175 0112 13       		.uleb128 0x13
 5176 0113 0B       		.uleb128 0xb
 5177 0114 01       		.byte	0x1
 5178 0115 11       		.uleb128 0x11
 5179 0116 01       		.uleb128 0x1
 5180 0117 12       		.uleb128 0x12
 5181 0118 06       		.uleb128 0x6
 5182 0119 00       		.byte	0
 5183 011a 00       		.byte	0
 5184 011b 14       		.uleb128 0x14
 5185 011c 898201   		.uleb128 0x4109
 5186 011f 01       		.byte	0x1
 5187 0120 11       		.uleb128 0x11
 5188 0121 01       		.uleb128 0x1
 5189 0122 31       		.uleb128 0x31
 5190 0123 13       		.uleb128 0x13
 5191 0124 00       		.byte	0
 5192 0125 00       		.byte	0
 5193 0126 15       		.uleb128 0x15
ARM GAS  C:\Users\ANDREW~1\AppData\Local\Temp\ccwQPnwd.s 			page 114


 5194 0127 8A8201   		.uleb128 0x410a
 5195 012a 00       		.byte	0
 5196 012b 02       		.uleb128 0x2
 5197 012c 18       		.uleb128 0x18
 5198 012d 9142     		.uleb128 0x2111
 5199 012f 18       		.uleb128 0x18
 5200 0130 00       		.byte	0
 5201 0131 00       		.byte	0
 5202 0132 16       		.uleb128 0x16
 5203 0133 05       		.uleb128 0x5
 5204 0134 00       		.byte	0
 5205 0135 03       		.uleb128 0x3
 5206 0136 0E       		.uleb128 0xe
 5207 0137 3A       		.uleb128 0x3a
 5208 0138 0B       		.uleb128 0xb
 5209 0139 3B       		.uleb128 0x3b
 5210 013a 05       		.uleb128 0x5
 5211 013b 49       		.uleb128 0x49
 5212 013c 13       		.uleb128 0x13
 5213 013d 02       		.uleb128 0x2
 5214 013e 17       		.uleb128 0x17
 5215 013f 00       		.byte	0
 5216 0140 00       		.byte	0
 5217 0141 17       		.uleb128 0x17
 5218 0142 2E       		.uleb128 0x2e
 5219 0143 01       		.byte	0x1
 5220 0144 3F       		.uleb128 0x3f
 5221 0145 19       		.uleb128 0x19
 5222 0146 03       		.uleb128 0x3
 5223 0147 0E       		.uleb128 0xe
 5224 0148 3A       		.uleb128 0x3a
 5225 0149 0B       		.uleb128 0xb
 5226 014a 3B       		.uleb128 0x3b
 5227 014b 05       		.uleb128 0x5
 5228 014c 27       		.uleb128 0x27
 5229 014d 19       		.uleb128 0x19
 5230 014e 11       		.uleb128 0x11
 5231 014f 01       		.uleb128 0x1
 5232 0150 12       		.uleb128 0x12
 5233 0151 06       		.uleb128 0x6
 5234 0152 40       		.uleb128 0x40
 5235 0153 18       		.uleb128 0x18
 5236 0154 9642     		.uleb128 0x2116
 5237 0156 19       		.uleb128 0x19
 5238 0157 01       		.uleb128 0x1
 5239 0158 13       		.uleb128 0x13
 5240 0159 00       		.byte	0
 5241 015a 00       		.byte	0
 5242 015b 18       		.uleb128 0x18
 5243 015c 898201   		.uleb128 0x4109
 5244 015f 01       		.byte	0x1
 5245 0160 11       		.uleb128 0x11
 5246 0161 01       		.uleb128 0x1
 5247 0162 31       		.uleb128 0x31
 5248 0163 13       		.uleb128 0x13
 5249 0164 01       		.uleb128 0x1
 5250 0165 13       		.uleb128 0x13
ARM GAS  C:\Users\ANDREW~1\AppData\Local\Temp\ccwQPnwd.s 			page 115


 5251 0166 00       		.byte	0
 5252 0167 00       		.byte	0
 5253 0168 19       		.uleb128 0x19
 5254 0169 34       		.uleb128 0x34
 5255 016a 00       		.byte	0
 5256 016b 03       		.uleb128 0x3
 5257 016c 0E       		.uleb128 0xe
 5258 016d 3A       		.uleb128 0x3a
 5259 016e 0B       		.uleb128 0xb
 5260 016f 3B       		.uleb128 0x3b
 5261 0170 05       		.uleb128 0x5
 5262 0171 49       		.uleb128 0x49
 5263 0172 13       		.uleb128 0x13
 5264 0173 00       		.byte	0
 5265 0174 00       		.byte	0
 5266 0175 1A       		.uleb128 0x1a
 5267 0176 2E       		.uleb128 0x2e
 5268 0177 01       		.byte	0x1
 5269 0178 3F       		.uleb128 0x3f
 5270 0179 19       		.uleb128 0x19
 5271 017a 03       		.uleb128 0x3
 5272 017b 0E       		.uleb128 0xe
 5273 017c 3A       		.uleb128 0x3a
 5274 017d 0B       		.uleb128 0xb
 5275 017e 3B       		.uleb128 0x3b
 5276 017f 05       		.uleb128 0x5
 5277 0180 11       		.uleb128 0x11
 5278 0181 01       		.uleb128 0x1
 5279 0182 12       		.uleb128 0x12
 5280 0183 06       		.uleb128 0x6
 5281 0184 40       		.uleb128 0x40
 5282 0185 18       		.uleb128 0x18
 5283 0186 9742     		.uleb128 0x2117
 5284 0188 19       		.uleb128 0x19
 5285 0189 01       		.uleb128 0x1
 5286 018a 13       		.uleb128 0x13
 5287 018b 00       		.byte	0
 5288 018c 00       		.byte	0
 5289 018d 1B       		.uleb128 0x1b
 5290 018e 2E       		.uleb128 0x2e
 5291 018f 01       		.byte	0x1
 5292 0190 3F       		.uleb128 0x3f
 5293 0191 19       		.uleb128 0x19
 5294 0192 03       		.uleb128 0x3
 5295 0193 0E       		.uleb128 0xe
 5296 0194 3A       		.uleb128 0x3a
 5297 0195 0B       		.uleb128 0xb
 5298 0196 3B       		.uleb128 0x3b
 5299 0197 05       		.uleb128 0x5
 5300 0198 27       		.uleb128 0x27
 5301 0199 19       		.uleb128 0x19
 5302 019a 49       		.uleb128 0x49
 5303 019b 13       		.uleb128 0x13
 5304 019c 11       		.uleb128 0x11
 5305 019d 01       		.uleb128 0x1
 5306 019e 12       		.uleb128 0x12
 5307 019f 06       		.uleb128 0x6
ARM GAS  C:\Users\ANDREW~1\AppData\Local\Temp\ccwQPnwd.s 			page 116


 5308 01a0 40       		.uleb128 0x40
 5309 01a1 18       		.uleb128 0x18
 5310 01a2 9642     		.uleb128 0x2116
 5311 01a4 19       		.uleb128 0x19
 5312 01a5 01       		.uleb128 0x1
 5313 01a6 13       		.uleb128 0x13
 5314 01a7 00       		.byte	0
 5315 01a8 00       		.byte	0
 5316 01a9 1C       		.uleb128 0x1c
 5317 01aa 34       		.uleb128 0x34
 5318 01ab 00       		.byte	0
 5319 01ac 03       		.uleb128 0x3
 5320 01ad 0E       		.uleb128 0xe
 5321 01ae 3A       		.uleb128 0x3a
 5322 01af 0B       		.uleb128 0xb
 5323 01b0 3B       		.uleb128 0x3b
 5324 01b1 05       		.uleb128 0x5
 5325 01b2 49       		.uleb128 0x49
 5326 01b3 13       		.uleb128 0x13
 5327 01b4 02       		.uleb128 0x2
 5328 01b5 18       		.uleb128 0x18
 5329 01b6 00       		.byte	0
 5330 01b7 00       		.byte	0
 5331 01b8 1D       		.uleb128 0x1d
 5332 01b9 0B       		.uleb128 0xb
 5333 01ba 01       		.byte	0x1
 5334 01bb 55       		.uleb128 0x55
 5335 01bc 17       		.uleb128 0x17
 5336 01bd 01       		.uleb128 0x1
 5337 01be 13       		.uleb128 0x13
 5338 01bf 00       		.byte	0
 5339 01c0 00       		.byte	0
 5340 01c1 1E       		.uleb128 0x1e
 5341 01c2 01       		.uleb128 0x1
 5342 01c3 01       		.byte	0x1
 5343 01c4 49       		.uleb128 0x49
 5344 01c5 13       		.uleb128 0x13
 5345 01c6 01       		.uleb128 0x1
 5346 01c7 13       		.uleb128 0x13
 5347 01c8 00       		.byte	0
 5348 01c9 00       		.byte	0
 5349 01ca 1F       		.uleb128 0x1f
 5350 01cb 21       		.uleb128 0x21
 5351 01cc 00       		.byte	0
 5352 01cd 49       		.uleb128 0x49
 5353 01ce 13       		.uleb128 0x13
 5354 01cf 2F       		.uleb128 0x2f
 5355 01d0 0B       		.uleb128 0xb
 5356 01d1 00       		.byte	0
 5357 01d2 00       		.byte	0
 5358 01d3 20       		.uleb128 0x20
 5359 01d4 05       		.uleb128 0x5
 5360 01d5 00       		.byte	0
 5361 01d6 03       		.uleb128 0x3
 5362 01d7 0E       		.uleb128 0xe
 5363 01d8 3A       		.uleb128 0x3a
 5364 01d9 0B       		.uleb128 0xb
ARM GAS  C:\Users\ANDREW~1\AppData\Local\Temp\ccwQPnwd.s 			page 117


 5365 01da 3B       		.uleb128 0x3b
 5366 01db 05       		.uleb128 0x5
 5367 01dc 49       		.uleb128 0x49
 5368 01dd 13       		.uleb128 0x13
 5369 01de 02       		.uleb128 0x2
 5370 01df 18       		.uleb128 0x18
 5371 01e0 00       		.byte	0
 5372 01e1 00       		.byte	0
 5373 01e2 21       		.uleb128 0x21
 5374 01e3 2E       		.uleb128 0x2e
 5375 01e4 01       		.byte	0x1
 5376 01e5 3F       		.uleb128 0x3f
 5377 01e6 19       		.uleb128 0x19
 5378 01e7 03       		.uleb128 0x3
 5379 01e8 0E       		.uleb128 0xe
 5380 01e9 3A       		.uleb128 0x3a
 5381 01ea 0B       		.uleb128 0xb
 5382 01eb 3B       		.uleb128 0x3b
 5383 01ec 05       		.uleb128 0x5
 5384 01ed 49       		.uleb128 0x49
 5385 01ee 13       		.uleb128 0x13
 5386 01ef 11       		.uleb128 0x11
 5387 01f0 01       		.uleb128 0x1
 5388 01f1 12       		.uleb128 0x12
 5389 01f2 06       		.uleb128 0x6
 5390 01f3 40       		.uleb128 0x40
 5391 01f4 18       		.uleb128 0x18
 5392 01f5 9742     		.uleb128 0x2117
 5393 01f7 19       		.uleb128 0x19
 5394 01f8 01       		.uleb128 0x1
 5395 01f9 13       		.uleb128 0x13
 5396 01fa 00       		.byte	0
 5397 01fb 00       		.byte	0
 5398 01fc 22       		.uleb128 0x22
 5399 01fd 2E       		.uleb128 0x2e
 5400 01fe 01       		.byte	0x1
 5401 01ff 3F       		.uleb128 0x3f
 5402 0200 19       		.uleb128 0x19
 5403 0201 03       		.uleb128 0x3
 5404 0202 0E       		.uleb128 0xe
 5405 0203 3A       		.uleb128 0x3a
 5406 0204 0B       		.uleb128 0xb
 5407 0205 3B       		.uleb128 0x3b
 5408 0206 0B       		.uleb128 0xb
 5409 0207 27       		.uleb128 0x27
 5410 0208 19       		.uleb128 0x19
 5411 0209 11       		.uleb128 0x11
 5412 020a 01       		.uleb128 0x1
 5413 020b 12       		.uleb128 0x12
 5414 020c 06       		.uleb128 0x6
 5415 020d 40       		.uleb128 0x40
 5416 020e 18       		.uleb128 0x18
 5417 020f 9642     		.uleb128 0x2116
 5418 0211 19       		.uleb128 0x19
 5419 0212 01       		.uleb128 0x1
 5420 0213 13       		.uleb128 0x13
 5421 0214 00       		.byte	0
ARM GAS  C:\Users\ANDREW~1\AppData\Local\Temp\ccwQPnwd.s 			page 118


 5422 0215 00       		.byte	0
 5423 0216 23       		.uleb128 0x23
 5424 0217 34       		.uleb128 0x34
 5425 0218 00       		.byte	0
 5426 0219 03       		.uleb128 0x3
 5427 021a 0E       		.uleb128 0xe
 5428 021b 3A       		.uleb128 0x3a
 5429 021c 0B       		.uleb128 0xb
 5430 021d 3B       		.uleb128 0x3b
 5431 021e 0B       		.uleb128 0xb
 5432 021f 49       		.uleb128 0x49
 5433 0220 13       		.uleb128 0x13
 5434 0221 02       		.uleb128 0x2
 5435 0222 17       		.uleb128 0x17
 5436 0223 00       		.byte	0
 5437 0224 00       		.byte	0
 5438 0225 24       		.uleb128 0x24
 5439 0226 2E       		.uleb128 0x2e
 5440 0227 01       		.byte	0x1
 5441 0228 3F       		.uleb128 0x3f
 5442 0229 19       		.uleb128 0x19
 5443 022a 03       		.uleb128 0x3
 5444 022b 0E       		.uleb128 0xe
 5445 022c 3A       		.uleb128 0x3a
 5446 022d 0B       		.uleb128 0xb
 5447 022e 3B       		.uleb128 0x3b
 5448 022f 0B       		.uleb128 0xb
 5449 0230 27       		.uleb128 0x27
 5450 0231 19       		.uleb128 0x19
 5451 0232 49       		.uleb128 0x49
 5452 0233 13       		.uleb128 0x13
 5453 0234 8701     		.uleb128 0x87
 5454 0236 19       		.uleb128 0x19
 5455 0237 11       		.uleb128 0x11
 5456 0238 01       		.uleb128 0x1
 5457 0239 12       		.uleb128 0x12
 5458 023a 06       		.uleb128 0x6
 5459 023b 40       		.uleb128 0x40
 5460 023c 18       		.uleb128 0x18
 5461 023d 9642     		.uleb128 0x2116
 5462 023f 19       		.uleb128 0x19
 5463 0240 01       		.uleb128 0x1
 5464 0241 13       		.uleb128 0x13
 5465 0242 00       		.byte	0
 5466 0243 00       		.byte	0
 5467 0244 25       		.uleb128 0x25
 5468 0245 34       		.uleb128 0x34
 5469 0246 00       		.byte	0
 5470 0247 03       		.uleb128 0x3
 5471 0248 0E       		.uleb128 0xe
 5472 0249 3A       		.uleb128 0x3a
 5473 024a 0B       		.uleb128 0xb
 5474 024b 3B       		.uleb128 0x3b
 5475 024c 0B       		.uleb128 0xb
 5476 024d 49       		.uleb128 0x49
 5477 024e 13       		.uleb128 0x13
 5478 024f 02       		.uleb128 0x2
ARM GAS  C:\Users\ANDREW~1\AppData\Local\Temp\ccwQPnwd.s 			page 119


 5479 0250 18       		.uleb128 0x18
 5480 0251 00       		.byte	0
 5481 0252 00       		.byte	0
 5482 0253 26       		.uleb128 0x26
 5483 0254 34       		.uleb128 0x34
 5484 0255 00       		.byte	0
 5485 0256 03       		.uleb128 0x3
 5486 0257 0E       		.uleb128 0xe
 5487 0258 3A       		.uleb128 0x3a
 5488 0259 0B       		.uleb128 0xb
 5489 025a 3B       		.uleb128 0x3b
 5490 025b 0B       		.uleb128 0xb
 5491 025c 49       		.uleb128 0x49
 5492 025d 13       		.uleb128 0x13
 5493 025e 00       		.byte	0
 5494 025f 00       		.byte	0
 5495 0260 27       		.uleb128 0x27
 5496 0261 34       		.uleb128 0x34
 5497 0262 00       		.byte	0
 5498 0263 03       		.uleb128 0x3
 5499 0264 0E       		.uleb128 0xe
 5500 0265 3A       		.uleb128 0x3a
 5501 0266 0B       		.uleb128 0xb
 5502 0267 3B       		.uleb128 0x3b
 5503 0268 05       		.uleb128 0x5
 5504 0269 49       		.uleb128 0x49
 5505 026a 13       		.uleb128 0x13
 5506 026b 3F       		.uleb128 0x3f
 5507 026c 19       		.uleb128 0x19
 5508 026d 3C       		.uleb128 0x3c
 5509 026e 19       		.uleb128 0x19
 5510 026f 00       		.byte	0
 5511 0270 00       		.byte	0
 5512 0271 28       		.uleb128 0x28
 5513 0272 35       		.uleb128 0x35
 5514 0273 00       		.byte	0
 5515 0274 49       		.uleb128 0x49
 5516 0275 13       		.uleb128 0x13
 5517 0276 00       		.byte	0
 5518 0277 00       		.byte	0
 5519 0278 29       		.uleb128 0x29
 5520 0279 34       		.uleb128 0x34
 5521 027a 00       		.byte	0
 5522 027b 03       		.uleb128 0x3
 5523 027c 0E       		.uleb128 0xe
 5524 027d 3A       		.uleb128 0x3a
 5525 027e 0B       		.uleb128 0xb
 5526 027f 3B       		.uleb128 0x3b
 5527 0280 0B       		.uleb128 0xb
 5528 0281 49       		.uleb128 0x49
 5529 0282 13       		.uleb128 0x13
 5530 0283 3F       		.uleb128 0x3f
 5531 0284 19       		.uleb128 0x19
 5532 0285 02       		.uleb128 0x2
 5533 0286 18       		.uleb128 0x18
 5534 0287 00       		.byte	0
 5535 0288 00       		.byte	0
ARM GAS  C:\Users\ANDREW~1\AppData\Local\Temp\ccwQPnwd.s 			page 120


 5536 0289 2A       		.uleb128 0x2a
 5537 028a 34       		.uleb128 0x34
 5538 028b 00       		.byte	0
 5539 028c 03       		.uleb128 0x3
 5540 028d 0E       		.uleb128 0xe
 5541 028e 3A       		.uleb128 0x3a
 5542 028f 0B       		.uleb128 0xb
 5543 0290 3B       		.uleb128 0x3b
 5544 0291 05       		.uleb128 0x5
 5545 0292 49       		.uleb128 0x49
 5546 0293 13       		.uleb128 0x13
 5547 0294 3F       		.uleb128 0x3f
 5548 0295 19       		.uleb128 0x19
 5549 0296 02       		.uleb128 0x2
 5550 0297 18       		.uleb128 0x18
 5551 0298 00       		.byte	0
 5552 0299 00       		.byte	0
 5553 029a 2B       		.uleb128 0x2b
 5554 029b 34       		.uleb128 0x34
 5555 029c 00       		.byte	0
 5556 029d 03       		.uleb128 0x3
 5557 029e 08       		.uleb128 0x8
 5558 029f 3A       		.uleb128 0x3a
 5559 02a0 0B       		.uleb128 0xb
 5560 02a1 3B       		.uleb128 0x3b
 5561 02a2 05       		.uleb128 0x5
 5562 02a3 49       		.uleb128 0x49
 5563 02a4 13       		.uleb128 0x13
 5564 02a5 3F       		.uleb128 0x3f
 5565 02a6 19       		.uleb128 0x19
 5566 02a7 02       		.uleb128 0x2
 5567 02a8 18       		.uleb128 0x18
 5568 02a9 00       		.byte	0
 5569 02aa 00       		.byte	0
 5570 02ab 2C       		.uleb128 0x2c
 5571 02ac 2E       		.uleb128 0x2e
 5572 02ad 00       		.byte	0
 5573 02ae 3F       		.uleb128 0x3f
 5574 02af 19       		.uleb128 0x19
 5575 02b0 3C       		.uleb128 0x3c
 5576 02b1 19       		.uleb128 0x19
 5577 02b2 6E       		.uleb128 0x6e
 5578 02b3 0E       		.uleb128 0xe
 5579 02b4 03       		.uleb128 0x3
 5580 02b5 0E       		.uleb128 0xe
 5581 02b6 3A       		.uleb128 0x3a
 5582 02b7 0B       		.uleb128 0xb
 5583 02b8 3B       		.uleb128 0x3b
 5584 02b9 0B       		.uleb128 0xb
 5585 02ba 00       		.byte	0
 5586 02bb 00       		.byte	0
 5587 02bc 2D       		.uleb128 0x2d
 5588 02bd 2E       		.uleb128 0x2e
 5589 02be 00       		.byte	0
 5590 02bf 3F       		.uleb128 0x3f
 5591 02c0 19       		.uleb128 0x19
 5592 02c1 3C       		.uleb128 0x3c
ARM GAS  C:\Users\ANDREW~1\AppData\Local\Temp\ccwQPnwd.s 			page 121


 5593 02c2 19       		.uleb128 0x19
 5594 02c3 6E       		.uleb128 0x6e
 5595 02c4 0E       		.uleb128 0xe
 5596 02c5 03       		.uleb128 0x3
 5597 02c6 0E       		.uleb128 0xe
 5598 02c7 00       		.byte	0
 5599 02c8 00       		.byte	0
 5600 02c9 00       		.byte	0
 5601              		.section	.debug_loc,"",%progbits
 5602              	.Ldebug_loc0:
 5603              	.LLST0:
 5604 0000 00000000 		.4byte	.LVL0
 5605 0004 02000000 		.4byte	.LVL1
 5606 0008 0100     		.2byte	0x1
 5607 000a 50       		.byte	0x50
 5608 000b 02000000 		.4byte	.LVL1
 5609 000f 08000000 		.4byte	.LFE82
 5610 0013 0400     		.2byte	0x4
 5611 0015 F3       		.byte	0xf3
 5612 0016 01       		.uleb128 0x1
 5613 0017 50       		.byte	0x50
 5614 0018 9F       		.byte	0x9f
 5615 0019 00000000 		.4byte	0
 5616 001d 00000000 		.4byte	0
 5617              	.LLST1:
 5618 0021 12000000 		.4byte	.LVL7
 5619 0025 19000000 		.4byte	.LVL8-1
 5620 0029 0600     		.2byte	0x6
 5621 002b 50       		.byte	0x50
 5622 002c 93       		.byte	0x93
 5623 002d 04       		.uleb128 0x4
 5624 002e 51       		.byte	0x51
 5625 002f 93       		.byte	0x93
 5626 0030 04       		.uleb128 0x4
 5627 0031 1A000000 		.4byte	.LVL8
 5628 0035 20000000 		.4byte	.LFE74
 5629 0039 0600     		.2byte	0x6
 5630 003b 50       		.byte	0x50
 5631 003c 93       		.byte	0x93
 5632 003d 04       		.uleb128 0x4
 5633 003e 51       		.byte	0x51
 5634 003f 93       		.byte	0x93
 5635 0040 04       		.uleb128 0x4
 5636 0041 00000000 		.4byte	0
 5637 0045 00000000 		.4byte	0
 5638              	.LLST2:
 5639 0049 00000000 		.4byte	.LVL9
 5640 004d 3A000000 		.4byte	.LVL17
 5641 0051 0100     		.2byte	0x1
 5642 0053 50       		.byte	0x50
 5643 0054 3A000000 		.4byte	.LVL17
 5644 0058 44000000 		.4byte	.LVL19
 5645 005c 0100     		.2byte	0x1
 5646 005e 50       		.byte	0x50
 5647 005f 00000000 		.4byte	0
 5648 0063 00000000 		.4byte	0
 5649              	.LLST3:
ARM GAS  C:\Users\ANDREW~1\AppData\Local\Temp\ccwQPnwd.s 			page 122


 5650 0067 02000000 		.4byte	.LVL10
 5651 006b 08000000 		.4byte	.LVL11
 5652 006f 0200     		.2byte	0x2
 5653 0071 30       		.byte	0x30
 5654 0072 9F       		.byte	0x9f
 5655 0073 08000000 		.4byte	.LVL11
 5656 0077 5E000000 		.4byte	.LVL23
 5657 007b 0100     		.2byte	0x1
 5658 007d 55       		.byte	0x55
 5659 007e 00000000 		.4byte	0
 5660 0082 00000000 		.4byte	0
 5661              	.LLST4:
 5662 0086 02000000 		.4byte	.LVL10
 5663 008a 08000000 		.4byte	.LVL11
 5664 008e 0100     		.2byte	0x1
 5665 0090 50       		.byte	0x50
 5666 0091 08000000 		.4byte	.LVL11
 5667 0095 10000000 		.4byte	.LVL12
 5668 0099 0100     		.2byte	0x1
 5669 009b 53       		.byte	0x53
 5670 009c 14000000 		.4byte	.LVL13
 5671 00a0 1E000000 		.4byte	.LVL16
 5672 00a4 0100     		.2byte	0x1
 5673 00a6 53       		.byte	0x53
 5674 00a7 00000000 		.4byte	0
 5675 00ab 00000000 		.4byte	0
 5676              	.LLST5:
 5677 00af 1C000000 		.4byte	.LVL15
 5678 00b3 44000000 		.4byte	.LVL19
 5679 00b7 0100     		.2byte	0x1
 5680 00b9 52       		.byte	0x52
 5681 00ba 00000000 		.4byte	0
 5682 00be 00000000 		.4byte	0
 5683              	.LLST6:
 5684 00c2 44000000 		.4byte	.LVL19
 5685 00c6 5E000000 		.4byte	.LVL23
 5686 00ca 0100     		.2byte	0x1
 5687 00cc 54       		.byte	0x54
 5688 00cd 00000000 		.4byte	0
 5689 00d1 00000000 		.4byte	0
 5690              	.LLST7:
 5691 00d5 00000000 		.4byte	.LVL24
 5692 00d9 09000000 		.4byte	.LVL25-1
 5693 00dd 0600     		.2byte	0x6
 5694 00df 50       		.byte	0x50
 5695 00e0 93       		.byte	0x93
 5696 00e1 04       		.uleb128 0x4
 5697 00e2 51       		.byte	0x51
 5698 00e3 93       		.byte	0x93
 5699 00e4 04       		.uleb128 0x4
 5700 00e5 09000000 		.4byte	.LVL25-1
 5701 00e9 1C000000 		.4byte	.LFE76
 5702 00ed 0600     		.2byte	0x6
 5703 00ef F3       		.byte	0xf3
 5704 00f0 03       		.uleb128 0x3
 5705 00f1 F5       		.byte	0xf5
 5706 00f2 00       		.uleb128 0
ARM GAS  C:\Users\ANDREW~1\AppData\Local\Temp\ccwQPnwd.s 			page 123


 5707 00f3 25       		.uleb128 0x25
 5708 00f4 9F       		.byte	0x9f
 5709 00f5 00000000 		.4byte	0
 5710 00f9 00000000 		.4byte	0
 5711              	.LLST8:
 5712 00fd 00000000 		.4byte	.LVL26
 5713 0101 09000000 		.4byte	.LVL27-1
 5714 0105 0600     		.2byte	0x6
 5715 0107 50       		.byte	0x50
 5716 0108 93       		.byte	0x93
 5717 0109 04       		.uleb128 0x4
 5718 010a 51       		.byte	0x51
 5719 010b 93       		.byte	0x93
 5720 010c 04       		.uleb128 0x4
 5721 010d 09000000 		.4byte	.LVL27-1
 5722 0111 34000000 		.4byte	.LFE77
 5723 0115 0600     		.2byte	0x6
 5724 0117 F3       		.byte	0xf3
 5725 0118 03       		.uleb128 0x3
 5726 0119 F5       		.byte	0xf5
 5727 011a 00       		.uleb128 0
 5728 011b 25       		.uleb128 0x25
 5729 011c 9F       		.byte	0x9f
 5730 011d 00000000 		.4byte	0
 5731 0121 00000000 		.4byte	0
 5732              	.LLST9:
 5733 0125 14000000 		.4byte	.LVL28
 5734 0129 1B000000 		.4byte	.LVL29-1
 5735 012d 0600     		.2byte	0x6
 5736 012f 50       		.byte	0x50
 5737 0130 93       		.byte	0x93
 5738 0131 04       		.uleb128 0x4
 5739 0132 51       		.byte	0x51
 5740 0133 93       		.byte	0x93
 5741 0134 04       		.uleb128 0x4
 5742 0135 00000000 		.4byte	0
 5743 0139 00000000 		.4byte	0
 5744              	.LLST10:
 5745 013d 46000000 		.4byte	.LVL42
 5746 0141 4D000000 		.4byte	.LVL43-1
 5747 0145 0600     		.2byte	0x6
 5748 0147 50       		.byte	0x50
 5749 0148 93       		.byte	0x93
 5750 0149 04       		.uleb128 0x4
 5751 014a 51       		.byte	0x51
 5752 014b 93       		.byte	0x93
 5753 014c 04       		.uleb128 0x4
 5754 014d 00000000 		.4byte	0
 5755 0151 00000000 		.4byte	0
 5756              	.LLST11:
 5757 0155 00000000 		.4byte	.LVL49
 5758 0159 0D000000 		.4byte	.LVL50-1
 5759 015d 0100     		.2byte	0x1
 5760 015f 50       		.byte	0x50
 5761 0160 0D000000 		.4byte	.LVL50-1
 5762 0164 BA000000 		.4byte	.LVL69
 5763 0168 0100     		.2byte	0x1
ARM GAS  C:\Users\ANDREW~1\AppData\Local\Temp\ccwQPnwd.s 			page 124


 5764 016a 55       		.byte	0x55
 5765 016b BA000000 		.4byte	.LVL69
 5766 016f C8000000 		.4byte	.LFE83
 5767 0173 0400     		.2byte	0x4
 5768 0175 F3       		.byte	0xf3
 5769 0176 01       		.uleb128 0x1
 5770 0177 50       		.byte	0x50
 5771 0178 9F       		.byte	0x9f
 5772 0179 00000000 		.4byte	0
 5773 017d 00000000 		.4byte	0
 5774              	.LLST12:
 5775 0181 00000000 		.4byte	.LVL49
 5776 0185 0D000000 		.4byte	.LVL50-1
 5777 0189 0100     		.2byte	0x1
 5778 018b 51       		.byte	0x51
 5779 018c 0D000000 		.4byte	.LVL50-1
 5780 0190 18000000 		.4byte	.LVL51
 5781 0194 0100     		.2byte	0x1
 5782 0196 54       		.byte	0x54
 5783 0197 18000000 		.4byte	.LVL51
 5784 019b 5C000000 		.4byte	.LVL58
 5785 019f 0400     		.2byte	0x4
 5786 01a1 F3       		.byte	0xf3
 5787 01a2 01       		.uleb128 0x1
 5788 01a3 51       		.byte	0x51
 5789 01a4 9F       		.byte	0x9f
 5790 01a5 5C000000 		.4byte	.LVL58
 5791 01a9 86000000 		.4byte	.LVL61
 5792 01ad 0100     		.2byte	0x1
 5793 01af 54       		.byte	0x54
 5794 01b0 86000000 		.4byte	.LVL61
 5795 01b4 8A000000 		.4byte	.LVL62
 5796 01b8 0300     		.2byte	0x3
 5797 01ba 74       		.byte	0x74
 5798 01bb 7F       		.sleb128 -1
 5799 01bc 9F       		.byte	0x9f
 5800 01bd 8A000000 		.4byte	.LVL62
 5801 01c1 C8000000 		.4byte	.LFE83
 5802 01c5 0400     		.2byte	0x4
 5803 01c7 F3       		.byte	0xf3
 5804 01c8 01       		.uleb128 0x1
 5805 01c9 51       		.byte	0x51
 5806 01ca 9F       		.byte	0x9f
 5807 01cb 00000000 		.4byte	0
 5808 01cf 00000000 		.4byte	0
 5809              	.LLST13:
 5810 01d3 5A000000 		.4byte	.LVL57
 5811 01d7 5C000000 		.4byte	.LVL58
 5812 01db 0600     		.2byte	0x6
 5813 01dd 50       		.byte	0x50
 5814 01de 93       		.byte	0x93
 5815 01df 04       		.uleb128 0x4
 5816 01e0 51       		.byte	0x51
 5817 01e1 93       		.byte	0x93
 5818 01e2 04       		.uleb128 0x4
 5819 01e3 B4000000 		.4byte	.LVL67
 5820 01e7 B7000000 		.4byte	.LVL68-1
ARM GAS  C:\Users\ANDREW~1\AppData\Local\Temp\ccwQPnwd.s 			page 125


 5821 01eb 0600     		.2byte	0x6
 5822 01ed 50       		.byte	0x50
 5823 01ee 93       		.byte	0x93
 5824 01ef 04       		.uleb128 0x4
 5825 01f0 51       		.byte	0x51
 5826 01f1 93       		.byte	0x93
 5827 01f2 04       		.uleb128 0x4
 5828 01f3 00000000 		.4byte	0
 5829 01f7 00000000 		.4byte	0
 5830              	.LLST14:
 5831 01fb 18000000 		.4byte	.LVL71
 5832 01ff 1C000000 		.4byte	.LVL72
 5833 0203 0200     		.2byte	0x2
 5834 0205 30       		.byte	0x30
 5835 0206 9F       		.byte	0x9f
 5836 0207 1C000000 		.4byte	.LVL72
 5837 020b 6A000000 		.4byte	.LVL83
 5838 020f 0100     		.2byte	0x1
 5839 0211 56       		.byte	0x56
 5840 0212 00000000 		.4byte	0
 5841 0216 00000000 		.4byte	0
 5842              	.LLST15:
 5843 021a 1C000000 		.4byte	.LVL72
 5844 021e 3C000000 		.4byte	.LVL77
 5845 0222 0100     		.2byte	0x1
 5846 0224 54       		.byte	0x54
 5847 0225 3E000000 		.4byte	.LVL78
 5848 0229 56000000 		.4byte	.LVL80
 5849 022d 0100     		.2byte	0x1
 5850 022f 54       		.byte	0x54
 5851 0230 00000000 		.4byte	0
 5852 0234 00000000 		.4byte	0
 5853              	.LLST16:
 5854 0238 00000000 		.4byte	.LVL89
 5855 023c 0A000000 		.4byte	.LVL90
 5856 0240 0100     		.2byte	0x1
 5857 0242 50       		.byte	0x50
 5858 0243 0A000000 		.4byte	.LVL90
 5859 0247 88000000 		.4byte	.LFE88
 5860 024b 0400     		.2byte	0x4
 5861 024d F3       		.byte	0xf3
 5862 024e 01       		.uleb128 0x1
 5863 024f 50       		.byte	0x50
 5864 0250 9F       		.byte	0x9f
 5865 0251 00000000 		.4byte	0
 5866 0255 00000000 		.4byte	0
 5867              	.LLST17:
 5868 0259 00000000 		.4byte	.LVL89
 5869 025d 0E000000 		.4byte	.LVL91
 5870 0261 0100     		.2byte	0x1
 5871 0263 51       		.byte	0x51
 5872 0264 0E000000 		.4byte	.LVL91
 5873 0268 80000000 		.4byte	.LVL102
 5874 026c 0100     		.2byte	0x1
 5875 026e 55       		.byte	0x55
 5876 026f 80000000 		.4byte	.LVL102
 5877 0273 88000000 		.4byte	.LFE88
ARM GAS  C:\Users\ANDREW~1\AppData\Local\Temp\ccwQPnwd.s 			page 126


 5878 0277 0400     		.2byte	0x4
 5879 0279 F3       		.byte	0xf3
 5880 027a 01       		.uleb128 0x1
 5881 027b 51       		.byte	0x51
 5882 027c 9F       		.byte	0x9f
 5883 027d 00000000 		.4byte	0
 5884 0281 00000000 		.4byte	0
 5885              	.LLST18:
 5886 0285 0A000000 		.4byte	.LVL90
 5887 0289 22000000 		.4byte	.LVL93
 5888 028d 0100     		.2byte	0x1
 5889 028f 50       		.byte	0x50
 5890 0290 22000000 		.4byte	.LVL93
 5891 0294 88000000 		.4byte	.LFE88
 5892 0298 0C00     		.2byte	0xc
 5893 029a F3       		.byte	0xf3
 5894 029b 01       		.uleb128 0x1
 5895 029c 50       		.byte	0x50
 5896 029d 33       		.byte	0x33
 5897 029e 24       		.byte	0x24
 5898 029f 03       		.byte	0x3
 5899 02a0 00000000 		.4byte	.LANCHOR1
 5900 02a4 22       		.byte	0x22
 5901 02a5 9F       		.byte	0x9f
 5902 02a6 00000000 		.4byte	0
 5903 02aa 00000000 		.4byte	0
 5904              	.LLST19:
 5905 02ae 0A000000 		.4byte	.LVL90
 5906 02b2 0E000000 		.4byte	.LVL91
 5907 02b6 0200     		.2byte	0x2
 5908 02b8 30       		.byte	0x30
 5909 02b9 9F       		.byte	0x9f
 5910 02ba 0E000000 		.4byte	.LVL91
 5911 02be 2B000000 		.4byte	.LVL94-1
 5912 02c2 0100     		.2byte	0x1
 5913 02c4 53       		.byte	0x53
 5914 02c5 00000000 		.4byte	0
 5915 02c9 00000000 		.4byte	0
 5916              	.LLST20:
 5917 02cd 00000000 		.4byte	.LVL103
 5918 02d1 2A000000 		.4byte	.LVL107
 5919 02d5 0600     		.2byte	0x6
 5920 02d7 50       		.byte	0x50
 5921 02d8 93       		.byte	0x93
 5922 02d9 04       		.uleb128 0x4
 5923 02da 51       		.byte	0x51
 5924 02db 93       		.byte	0x93
 5925 02dc 04       		.uleb128 0x4
 5926 02dd 2A000000 		.4byte	.LVL107
 5927 02e1 5A000000 		.4byte	.LVL112
 5928 02e5 0600     		.2byte	0x6
 5929 02e7 F3       		.byte	0xf3
 5930 02e8 03       		.uleb128 0x3
 5931 02e9 F5       		.byte	0xf5
 5932 02ea 00       		.uleb128 0
 5933 02eb 25       		.uleb128 0x25
 5934 02ec 9F       		.byte	0x9f
ARM GAS  C:\Users\ANDREW~1\AppData\Local\Temp\ccwQPnwd.s 			page 127


 5935 02ed 5A000000 		.4byte	.LVL112
 5936 02f1 68000000 		.4byte	.LVL114
 5937 02f5 0600     		.2byte	0x6
 5938 02f7 54       		.byte	0x54
 5939 02f8 93       		.byte	0x93
 5940 02f9 04       		.uleb128 0x4
 5941 02fa 55       		.byte	0x55
 5942 02fb 93       		.byte	0x93
 5943 02fc 04       		.uleb128 0x4
 5944 02fd 6A000000 		.4byte	.LVL115
 5945 0301 6E000000 		.4byte	.LVL117
 5946 0305 0600     		.2byte	0x6
 5947 0307 54       		.byte	0x54
 5948 0308 93       		.byte	0x93
 5949 0309 04       		.uleb128 0x4
 5950 030a 55       		.byte	0x55
 5951 030b 93       		.byte	0x93
 5952 030c 04       		.uleb128 0x4
 5953 030d 6E000000 		.4byte	.LVL117
 5954 0311 70000000 		.4byte	.LVL118
 5955 0315 0600     		.2byte	0x6
 5956 0317 F3       		.byte	0xf3
 5957 0318 03       		.uleb128 0x3
 5958 0319 F5       		.byte	0xf5
 5959 031a 00       		.uleb128 0
 5960 031b 25       		.uleb128 0x25
 5961 031c 9F       		.byte	0x9f
 5962 031d 70000000 		.4byte	.LVL118
 5963 0321 F4000000 		.4byte	.LVL121
 5964 0325 0600     		.2byte	0x6
 5965 0327 54       		.byte	0x54
 5966 0328 93       		.byte	0x93
 5967 0329 04       		.uleb128 0x4
 5968 032a 55       		.byte	0x55
 5969 032b 93       		.byte	0x93
 5970 032c 04       		.uleb128 0x4
 5971 032d F4000000 		.4byte	.LVL121
 5972 0331 6E010000 		.4byte	.LVL124
 5973 0335 0600     		.2byte	0x6
 5974 0337 F3       		.byte	0xf3
 5975 0338 03       		.uleb128 0x3
 5976 0339 F5       		.byte	0xf5
 5977 033a 00       		.uleb128 0
 5978 033b 25       		.uleb128 0x25
 5979 033c 9F       		.byte	0x9f
 5980 033d 6E010000 		.4byte	.LVL124
 5981 0341 92010000 		.4byte	.LVL129
 5982 0345 0600     		.2byte	0x6
 5983 0347 54       		.byte	0x54
 5984 0348 93       		.byte	0x93
 5985 0349 04       		.uleb128 0x4
 5986 034a 55       		.byte	0x55
 5987 034b 93       		.byte	0x93
 5988 034c 04       		.uleb128 0x4
 5989 034d 92010000 		.4byte	.LVL129
 5990 0351 90020000 		.4byte	.LVL139
 5991 0355 0600     		.2byte	0x6
ARM GAS  C:\Users\ANDREW~1\AppData\Local\Temp\ccwQPnwd.s 			page 128


 5992 0357 F3       		.byte	0xf3
 5993 0358 03       		.uleb128 0x3
 5994 0359 F5       		.byte	0xf5
 5995 035a 00       		.uleb128 0
 5996 035b 25       		.uleb128 0x25
 5997 035c 9F       		.byte	0x9f
 5998 035d 00000000 		.4byte	0
 5999 0361 00000000 		.4byte	0
 6000              	.LLST21:
 6001 0365 14000000 		.4byte	.LVL104
 6002 0369 28000000 		.4byte	.LVL106
 6003 036d 0100     		.2byte	0x1
 6004 036f 53       		.byte	0x53
 6005 0370 00000000 		.4byte	0
 6006 0374 00000000 		.4byte	0
 6007              	.LLST22:
 6008 0378 4A000000 		.4byte	.LVL110
 6009 037c 5A000000 		.4byte	.LVL112
 6010 0380 0200     		.2byte	0x2
 6011 0382 30       		.byte	0x30
 6012 0383 9F       		.byte	0x9f
 6013 0384 5A000000 		.4byte	.LVL112
 6014 0388 6E000000 		.4byte	.LVL117
 6015 038c 0100     		.2byte	0x1
 6016 038e 56       		.byte	0x56
 6017 038f 6E000000 		.4byte	.LVL117
 6018 0393 70000000 		.4byte	.LVL118
 6019 0397 0200     		.2byte	0x2
 6020 0399 30       		.byte	0x30
 6021 039a 9F       		.byte	0x9f
 6022 039b 70000000 		.4byte	.LVL118
 6023 039f F4000000 		.4byte	.LVL121
 6024 03a3 0100     		.2byte	0x1
 6025 03a5 56       		.byte	0x56
 6026 03a6 F4000000 		.4byte	.LVL121
 6027 03aa 6E010000 		.4byte	.LVL124
 6028 03ae 0200     		.2byte	0x2
 6029 03b0 33       		.byte	0x33
 6030 03b1 9F       		.byte	0x9f
 6031 03b2 6E010000 		.4byte	.LVL124
 6032 03b6 88010000 		.4byte	.LVL128
 6033 03ba 0100     		.2byte	0x1
 6034 03bc 56       		.byte	0x56
 6035 03bd 00000000 		.4byte	0
 6036 03c1 00000000 		.4byte	0
 6037              	.LLST23:
 6038 03c5 88000000 		.4byte	.LVL120
 6039 03c9 F4000000 		.4byte	.LVL121
 6040 03cd 0100     		.2byte	0x1
 6041 03cf 50       		.byte	0x50
 6042 03d0 00000000 		.4byte	0
 6043 03d4 00000000 		.4byte	0
 6044              	.LLST24:
 6045 03d8 04010000 		.4byte	.LVL123
 6046 03dc 6E010000 		.4byte	.LVL124
 6047 03e0 0100     		.2byte	0x1
 6048 03e2 50       		.byte	0x50
ARM GAS  C:\Users\ANDREW~1\AppData\Local\Temp\ccwQPnwd.s 			page 129


 6049 03e3 00000000 		.4byte	0
 6050 03e7 00000000 		.4byte	0
 6051              	.LLST25:
 6052 03eb 6E010000 		.4byte	.LVL124
 6053 03ef 72010000 		.4byte	.LVL125
 6054 03f3 0200     		.2byte	0x2
 6055 03f5 30       		.byte	0x30
 6056 03f6 9F       		.byte	0x9f
 6057 03f7 72010000 		.4byte	.LVL125
 6058 03fb 84010000 		.4byte	.LVL127
 6059 03ff 0100     		.2byte	0x1
 6060 0401 53       		.byte	0x53
 6061 0402 00000000 		.4byte	0
 6062 0406 00000000 		.4byte	0
 6063              	.LLST26:
 6064 040a 0A000000 		.4byte	.LVL160
 6065 040e 5E000000 		.4byte	.LVL170
 6066 0412 0600     		.2byte	0x6
 6067 0414 56       		.byte	0x56
 6068 0415 93       		.byte	0x93
 6069 0416 04       		.uleb128 0x4
 6070 0417 57       		.byte	0x57
 6071 0418 93       		.byte	0x93
 6072 0419 04       		.uleb128 0x4
 6073 041a 60000000 		.4byte	.LVL171
 6074 041e 18010000 		.4byte	.LVL199
 6075 0422 0600     		.2byte	0x6
 6076 0424 56       		.byte	0x56
 6077 0425 93       		.byte	0x93
 6078 0426 04       		.uleb128 0x4
 6079 0427 57       		.byte	0x57
 6080 0428 93       		.byte	0x93
 6081 0429 04       		.uleb128 0x4
 6082 042a 00000000 		.4byte	0
 6083 042e 00000000 		.4byte	0
 6084              	.LLST27:
 6085 0432 1C000000 		.4byte	.LVL163
 6086 0436 74000000 		.4byte	.LVL175
 6087 043a 0600     		.2byte	0x6
 6088 043c 54       		.byte	0x54
 6089 043d 93       		.byte	0x93
 6090 043e 04       		.uleb128 0x4
 6091 043f 55       		.byte	0x55
 6092 0440 93       		.byte	0x93
 6093 0441 04       		.uleb128 0x4
 6094 0442 00000000 		.4byte	0
 6095 0446 00000000 		.4byte	0
 6096              	.LLST28:
 6097 044a 76000000 		.4byte	.LVL176
 6098 044e B2000000 		.4byte	.LVL185
 6099 0452 0600     		.2byte	0x6
 6100 0454 54       		.byte	0x54
 6101 0455 93       		.byte	0x93
 6102 0456 04       		.uleb128 0x4
 6103 0457 55       		.byte	0x55
 6104 0458 93       		.byte	0x93
 6105 0459 04       		.uleb128 0x4
ARM GAS  C:\Users\ANDREW~1\AppData\Local\Temp\ccwQPnwd.s 			page 130


 6106 045a B4000000 		.4byte	.LVL186
 6107 045e 08010000 		.4byte	.LVL197
 6108 0462 0600     		.2byte	0x6
 6109 0464 54       		.byte	0x54
 6110 0465 93       		.byte	0x93
 6111 0466 04       		.uleb128 0x4
 6112 0467 55       		.byte	0x55
 6113 0468 93       		.byte	0x93
 6114 0469 04       		.uleb128 0x4
 6115 046a 00000000 		.4byte	0
 6116 046e 00000000 		.4byte	0
 6117              	.LLST29:
 6118 0472 02000000 		.4byte	.LVL200
 6119 0476 06000000 		.4byte	.LVL201
 6120 047a 0200     		.2byte	0x2
 6121 047c 31       		.byte	0x31
 6122 047d 9F       		.byte	0x9f
 6123 047e 06000000 		.4byte	.LVL201
 6124 0482 28000000 		.4byte	.LVL207
 6125 0486 0100     		.2byte	0x1
 6126 0488 56       		.byte	0x56
 6127 0489 28000000 		.4byte	.LVL207
 6128 048d 2A000000 		.4byte	.LVL208
 6129 0491 0200     		.2byte	0x2
 6130 0493 30       		.byte	0x30
 6131 0494 9F       		.byte	0x9f
 6132 0495 2A000000 		.4byte	.LVL208
 6133 0499 64000000 		.4byte	.LVL216
 6134 049d 0100     		.2byte	0x1
 6135 049f 56       		.byte	0x56
 6136 04a0 64000000 		.4byte	.LVL216
 6137 04a4 68000000 		.4byte	.LVL217
 6138 04a8 0200     		.2byte	0x2
 6139 04aa 31       		.byte	0x31
 6140 04ab 9F       		.byte	0x9f
 6141 04ac 68000000 		.4byte	.LVL217
 6142 04b0 78000000 		.4byte	.LVL219
 6143 04b4 0100     		.2byte	0x1
 6144 04b6 56       		.byte	0x56
 6145 04b7 00000000 		.4byte	0
 6146 04bb 00000000 		.4byte	0
 6147              	.LLST30:
 6148 04bf 06000000 		.4byte	.LVL201
 6149 04c3 22000000 		.4byte	.LVL205
 6150 04c7 0600     		.2byte	0x6
 6151 04c9 54       		.byte	0x54
 6152 04ca 93       		.byte	0x93
 6153 04cb 04       		.uleb128 0x4
 6154 04cc 55       		.byte	0x55
 6155 04cd 93       		.byte	0x93
 6156 04ce 04       		.uleb128 0x4
 6157 04cf 24000000 		.4byte	.LVL206
 6158 04d3 78000000 		.4byte	.LVL219
 6159 04d7 0600     		.2byte	0x6
 6160 04d9 54       		.byte	0x54
 6161 04da 93       		.byte	0x93
 6162 04db 04       		.uleb128 0x4
ARM GAS  C:\Users\ANDREW~1\AppData\Local\Temp\ccwQPnwd.s 			page 131


 6163 04dc 55       		.byte	0x55
 6164 04dd 93       		.byte	0x93
 6165 04de 04       		.uleb128 0x4
 6166 04df 00000000 		.4byte	0
 6167 04e3 00000000 		.4byte	0
 6168              	.LLST31:
 6169 04e7 02000000 		.4byte	.LVL224
 6170 04eb 08000000 		.4byte	.LVL225
 6171 04ef 0A00     		.2byte	0xa
 6172 04f1 9E       		.byte	0x9e
 6173 04f2 08       		.uleb128 0x8
 6174 04f3 00000000 		.4byte	0
 6175 04f7 00000000 		.4byte	0
 6176 04fb 08000000 		.4byte	.LVL225
 6177 04ff 60000000 		.4byte	.LVL237
 6178 0503 0600     		.2byte	0x6
 6179 0505 56       		.byte	0x56
 6180 0506 93       		.byte	0x93
 6181 0507 04       		.uleb128 0x4
 6182 0508 57       		.byte	0x57
 6183 0509 93       		.byte	0x93
 6184 050a 04       		.uleb128 0x4
 6185 050b 62000000 		.4byte	.LVL238
 6186 050f BE000000 		.4byte	.LVL249
 6187 0513 0600     		.2byte	0x6
 6188 0515 56       		.byte	0x56
 6189 0516 93       		.byte	0x93
 6190 0517 04       		.uleb128 0x4
 6191 0518 57       		.byte	0x57
 6192 0519 93       		.byte	0x93
 6193 051a 04       		.uleb128 0x4
 6194 051b 00000000 		.4byte	0
 6195 051f 00000000 		.4byte	0
 6196              	.LLST32:
 6197 0523 1C000000 		.4byte	.LVL229
 6198 0527 B4000000 		.4byte	.LVL248
 6199 052b 0600     		.2byte	0x6
 6200 052d 54       		.byte	0x54
 6201 052e 93       		.byte	0x93
 6202 052f 04       		.uleb128 0x4
 6203 0530 55       		.byte	0x55
 6204 0531 93       		.byte	0x93
 6205 0532 04       		.uleb128 0x4
 6206 0533 00000000 		.4byte	0
 6207 0537 00000000 		.4byte	0
 6208              		.section	.debug_aranges,"",%progbits
 6209 0000 DC000000 		.4byte	0xdc
 6210 0004 0200     		.2byte	0x2
 6211 0006 00000000 		.4byte	.Ldebug_info0
 6212 000a 04       		.byte	0x4
 6213 000b 00       		.byte	0
 6214 000c 0000     		.2byte	0
 6215 000e 0000     		.2byte	0
 6216 0010 00000000 		.4byte	.LFB82
 6217 0014 08000000 		.4byte	.LFE82-.LFB82
 6218 0018 00000000 		.4byte	.LFB84
 6219 001c 0C000000 		.4byte	.LFE84-.LFB84
ARM GAS  C:\Users\ANDREW~1\AppData\Local\Temp\ccwQPnwd.s 			page 132


 6220 0020 00000000 		.4byte	.LFB81
 6221 0024 20000000 		.4byte	.LFE81-.LFB81
 6222 0028 00000000 		.4byte	.LFB69
 6223 002c 02000000 		.4byte	.LFE69-.LFB69
 6224 0030 00000000 		.4byte	.LFB70
 6225 0034 02000000 		.4byte	.LFE70-.LFB70
 6226 0038 00000000 		.4byte	.LFB74
 6227 003c 20000000 		.4byte	.LFE74-.LFB74
 6228 0040 00000000 		.4byte	.LFB75
 6229 0044 68000000 		.4byte	.LFE75-.LFB75
 6230 0048 00000000 		.4byte	.LFB76
 6231 004c 1C000000 		.4byte	.LFE76-.LFB76
 6232 0050 00000000 		.4byte	.LFB77
 6233 0054 34000000 		.4byte	.LFE77-.LFB77
 6234 0058 00000000 		.4byte	.LFB79
 6235 005c 78000000 		.4byte	.LFE79-.LFB79
 6236 0060 00000000 		.4byte	.LFB80
 6237 0064 24000000 		.4byte	.LFE80-.LFB80
 6238 0068 00000000 		.4byte	.LFB83
 6239 006c C8000000 		.4byte	.LFE83-.LFB83
 6240 0070 00000000 		.4byte	.LFB78
 6241 0074 70000000 		.4byte	.LFE78-.LFB78
 6242 0078 00000000 		.4byte	.LFB85
 6243 007c 0C000000 		.4byte	.LFE85-.LFB85
 6244 0080 00000000 		.4byte	.LFB87
 6245 0084 1C000000 		.4byte	.LFE87-.LFB87
 6246 0088 00000000 		.4byte	.LFB88
 6247 008c 88000000 		.4byte	.LFE88-.LFB88
 6248 0090 00000000 		.4byte	.LFB86
 6249 0094 40030000 		.4byte	.LFE86-.LFB86
 6250 0098 00000000 		.4byte	.LFB73
 6251 009c 68000000 		.4byte	.LFE73-.LFB73
 6252 00a0 00000000 		.4byte	.LFB65
 6253 00a4 34010000 		.4byte	.LFE65-.LFB65
 6254 00a8 00000000 		.4byte	.LFB68
 6255 00ac 84000000 		.4byte	.LFE68-.LFB68
 6256 00b0 00000000 		.4byte	.LFB71
 6257 00b4 22000000 		.4byte	.LFE71-.LFB71
 6258 00b8 00000000 		.4byte	.LFB66
 6259 00bc D8000000 		.4byte	.LFE66-.LFB66
 6260 00c0 00000000 		.4byte	.LFB67
 6261 00c4 A4000000 		.4byte	.LFE67-.LFB67
 6262 00c8 00000000 		.4byte	.LFB64
 6263 00cc A8010000 		.4byte	.LFE64-.LFB64
 6264 00d0 00000000 		.4byte	.LFB72
 6265 00d4 18000000 		.4byte	.LFE72-.LFB72
 6266 00d8 00000000 		.4byte	0
 6267 00dc 00000000 		.4byte	0
 6268              		.section	.debug_ranges,"",%progbits
 6269              	.Ldebug_ranges0:
 6270 0000 1C000000 		.4byte	.LBB5
 6271 0004 3C000000 		.4byte	.LBE5
 6272 0008 3E000000 		.4byte	.LBB6
 6273 000c 42000000 		.4byte	.LBE6
 6274 0010 00000000 		.4byte	0
 6275 0014 00000000 		.4byte	0
 6276 0018 5A000000 		.4byte	.LBB10
ARM GAS  C:\Users\ANDREW~1\AppData\Local\Temp\ccwQPnwd.s 			page 133


 6277 001c 6E000000 		.4byte	.LBE10
 6278 0020 70000000 		.4byte	.LBB11
 6279 0024 F2000000 		.4byte	.LBE11
 6280 0028 00000000 		.4byte	0
 6281 002c 00000000 		.4byte	0
 6282 0030 00000000 		.4byte	.LFB82
 6283 0034 08000000 		.4byte	.LFE82
 6284 0038 00000000 		.4byte	.LFB84
 6285 003c 0C000000 		.4byte	.LFE84
 6286 0040 00000000 		.4byte	.LFB81
 6287 0044 20000000 		.4byte	.LFE81
 6288 0048 00000000 		.4byte	.LFB69
 6289 004c 02000000 		.4byte	.LFE69
 6290 0050 00000000 		.4byte	.LFB70
 6291 0054 02000000 		.4byte	.LFE70
 6292 0058 00000000 		.4byte	.LFB74
 6293 005c 20000000 		.4byte	.LFE74
 6294 0060 00000000 		.4byte	.LFB75
 6295 0064 68000000 		.4byte	.LFE75
 6296 0068 00000000 		.4byte	.LFB76
 6297 006c 1C000000 		.4byte	.LFE76
 6298 0070 00000000 		.4byte	.LFB77
 6299 0074 34000000 		.4byte	.LFE77
 6300 0078 00000000 		.4byte	.LFB79
 6301 007c 78000000 		.4byte	.LFE79
 6302 0080 00000000 		.4byte	.LFB80
 6303 0084 24000000 		.4byte	.LFE80
 6304 0088 00000000 		.4byte	.LFB83
 6305 008c C8000000 		.4byte	.LFE83
 6306 0090 00000000 		.4byte	.LFB78
 6307 0094 70000000 		.4byte	.LFE78
 6308 0098 00000000 		.4byte	.LFB85
 6309 009c 0C000000 		.4byte	.LFE85
 6310 00a0 00000000 		.4byte	.LFB87
 6311 00a4 1C000000 		.4byte	.LFE87
 6312 00a8 00000000 		.4byte	.LFB88
 6313 00ac 88000000 		.4byte	.LFE88
 6314 00b0 00000000 		.4byte	.LFB86
 6315 00b4 40030000 		.4byte	.LFE86
 6316 00b8 00000000 		.4byte	.LFB73
 6317 00bc 68000000 		.4byte	.LFE73
 6318 00c0 00000000 		.4byte	.LFB65
 6319 00c4 34010000 		.4byte	.LFE65
 6320 00c8 00000000 		.4byte	.LFB68
 6321 00cc 84000000 		.4byte	.LFE68
 6322 00d0 00000000 		.4byte	.LFB71
 6323 00d4 22000000 		.4byte	.LFE71
 6324 00d8 00000000 		.4byte	.LFB66
 6325 00dc D8000000 		.4byte	.LFE66
 6326 00e0 00000000 		.4byte	.LFB67
 6327 00e4 A4000000 		.4byte	.LFE67
 6328 00e8 00000000 		.4byte	.LFB64
 6329 00ec A8010000 		.4byte	.LFE64
 6330 00f0 00000000 		.4byte	.LFB72
 6331 00f4 18000000 		.4byte	.LFE72
 6332 00f8 00000000 		.4byte	0
 6333 00fc 00000000 		.4byte	0
ARM GAS  C:\Users\ANDREW~1\AppData\Local\Temp\ccwQPnwd.s 			page 134


 6334              		.section	.debug_line,"",%progbits
 6335              	.Ldebug_line0:
 6336 0000 7D070000 		.section	.debug_str,"MS",%progbits,1
 6336      02004D03 
 6336      00000201 
 6336      FB0E0D00 
 6336      01010101 
 6337              	.LASF54:
 6338 0000 63686563 		.ascii	"check_second\000"
 6338      6B5F7365 
 6338      636F6E64 
 6338      00
 6339              	.LASF87:
 6340 000d 43794465 		.ascii	"CyDelay\000"
 6340      6C617900 
 6341              	.LASF106:
 6342 0015 4469735F 		.ascii	"Dis_DP_Write\000"
 6342      44505F57 
 6342      72697465 
 6342      00
 6343              	.LASF57:
 6344 0022 70726576 		.ascii	"previous_second\000"
 6344      696F7573 
 6344      5F736563 
 6344      6F6E6400 
 6345              	.LASF129:
 6346 0032 6D61696E 		.ascii	"main.c\000"
 6346      2E6300
 6347              	.LASF42:
 6348 0039 64697370 		.ascii	"display_num\000"
 6348      6C61795F 
 6348      6E756D00 
 6349              	.LASF68:
 6350 0045 7365675F 		.ascii	"seg_num\000"
 6350      6E756D00 
 6351              	.LASF21:
 6352 004d 63757272 		.ascii	"current_second\000"
 6352      656E745F 
 6352      7365636F 
 6352      6E6400
 6353              	.LASF65:
 6354 005c 74696D65 		.ascii	"time_passed_step\000"
 6354      5F706173 
 6354      7365645F 
 6354      73746570 
 6354      00
 6355              	.LASF9:
 6356 006d 756E7369 		.ascii	"unsigned int\000"
 6356      676E6564 
 6356      20696E74 
 6356      00
 6357              	.LASF71:
 6358 007a 636D5F6F 		.ascii	"cm_or_inch\000"
 6358      725F696E 
 6358      636800
 6359              	.LASF117:
 6360 0085 54696D65 		.ascii	"Timer_1_SetInterruptMode\000"
ARM GAS  C:\Users\ANDREW~1\AppData\Local\Temp\ccwQPnwd.s 			page 135


 6360      725F315F 
 6360      53657449 
 6360      6E746572 
 6360      72757074 
 6361              	.LASF10:
 6362 009e 5F5F696E 		.ascii	"__int32_t\000"
 6362      7433325F 
 6362      7400
 6363              	.LASF56:
 6364 00a8 666C6167 		.ascii	"flag_read\000"
 6364      5F726561 
 6364      6400
 6365              	.LASF37:
 6366 00b2 6D656469 		.ascii	"median\000"
 6366      616E00
 6367              	.LASF69:
 6368 00b9 6D6F6465 		.ascii	"mode\000"
 6368      00
 6369              	.LASF108:
 6370 00be 4C454432 		.ascii	"LED2_Yellow_Write\000"
 6370      5F59656C 
 6370      6C6F775F 
 6370      57726974 
 6370      6500
 6371              	.LASF125:
 6372 00d0 45455052 		.ascii	"EEPROM_Start\000"
 6372      4F4D5F53 
 6372      74617274 
 6372      00
 6373              	.LASF24:
 6374 00dd 6E756D5F 		.ascii	"num_digits\000"
 6374      64696769 
 6374      747300
 6375              	.LASF101:
 6376 00e8 4469735F 		.ascii	"Dis_C_Write\000"
 6376      435F5772 
 6376      69746500 
 6377              	.LASF20:
 6378 00f4 52656365 		.ascii	"Receive_Ultra\000"
 6378      6976655F 
 6378      556C7472 
 6378      6100
 6379              	.LASF39:
 6380 0102 76616C73 		.ascii	"vals\000"
 6380      00
 6381              	.LASF13:
 6382 0107 666C6F61 		.ascii	"float\000"
 6382      7400
 6383              	.LASF78:
 6384 010d 636F756E 		.ascii	"count\000"
 6384      7400
 6385              	.LASF27:
 6386 0113 64757261 		.ascii	"duration\000"
 6386      74696F6E 
 6386      00
 6387              	.LASF92:
 6388 011c 43794465 		.ascii	"CyDelayUs\000"
ARM GAS  C:\Users\ANDREW~1\AppData\Local\Temp\ccwQPnwd.s 			page 136


 6388      6C617955 
 6388      7300
 6389              	.LASF84:
 6390 0126 54696D65 		.ascii	"Timer_2_ReadPeriod\000"
 6390      725F325F 
 6390      52656164 
 6390      50657269 
 6390      6F6400
 6391              	.LASF8:
 6392 0139 6C6F6E67 		.ascii	"long long unsigned int\000"
 6392      206C6F6E 
 6392      6720756E 
 6392      7369676E 
 6392      65642069 
 6393              	.LASF109:
 6394 0150 4C454433 		.ascii	"LED3_Green_Write\000"
 6394      5F477265 
 6394      656E5F57 
 6394      72697465 
 6394      00
 6395              	.LASF49:
 6396 0161 64696769 		.ascii	"digits\000"
 6396      747300
 6397              	.LASF61:
 6398 0168 73657475 		.ascii	"setup_previous_time\000"
 6398      705F7072 
 6398      6576696F 
 6398      75735F74 
 6398      696D6500 
 6399              	.LASF23:
 6400 017c 74696D65 		.ascii	"time\000"
 6400      00
 6401              	.LASF33:
 6402 0181 76616C75 		.ascii	"value\000"
 6402      6500
 6403              	.LASF96:
 6404 0187 4469735F 		.ascii	"Dis_D2_Write\000"
 6404      44325F57 
 6404      72697465 
 6404      00
 6405              	.LASF103:
 6406 0194 4469735F 		.ascii	"Dis_E_Write\000"
 6406      455F5772 
 6406      69746500 
 6407              	.LASF128:
 6408 01a0 474E5520 		.ascii	"GNU C11 5.4.1 20160609 (release) [ARM/embedded-5-br"
 6408      43313120 
 6408      352E342E 
 6408      31203230 
 6408      31363036 
 6409 01d3 616E6368 		.ascii	"anch revision 237715] -mcpu=cortex-m3 -mthumb -g -O"
 6409      20726576 
 6409      6973696F 
 6409      6E203233 
 6409      37373135 
 6410 0206 67202D66 		.ascii	"g -ffunction-sections -ffat-lto-objects\000"
 6410      66756E63 
ARM GAS  C:\Users\ANDREW~1\AppData\Local\Temp\ccwQPnwd.s 			page 137


 6410      74696F6E 
 6410      2D736563 
 6410      74696F6E 
 6411              	.LASF53:
 6412 022e 70726576 		.ascii	"previous_second_decimal\000"
 6412      696F7573 
 6412      5F736563 
 6412      6F6E645F 
 6412      64656369 
 6413              	.LASF28:
 6414 0246 42757A7A 		.ascii	"BuzzerRuntime\000"
 6414      65725275 
 6414      6E74696D 
 6414      6500
 6415              	.LASF64:
 6416 0254 636F756E 		.ascii	"counter\000"
 6416      74657200 
 6417              	.LASF115:
 6418 025c 6973725F 		.ascii	"isr_7Seg_ClearPending\000"
 6418      37536567 
 6418      5F436C65 
 6418      61725065 
 6418      6E64696E 
 6419              	.LASF112:
 6420 0272 55415254 		.ascii	"UART_1_PutString\000"
 6420      5F315F50 
 6420      75745374 
 6420      72696E67 
 6420      00
 6421              	.LASF51:
 6422 0283 72756E74 		.ascii	"runtime\000"
 6422      696D6500 
 6423              	.LASF119:
 6424 028b 4F70616D 		.ascii	"Opamp_1_Start\000"
 6424      705F315F 
 6424      53746172 
 6424      7400
 6425              	.LASF105:
 6426 0299 4469735F 		.ascii	"Dis_G_Write\000"
 6426      475F5772 
 6426      69746500 
 6427              	.LASF19:
 6428 02a5 496D7065 		.ascii	"ImperialLedOn\000"
 6428      7269616C 
 6428      4C65644F 
 6428      6E00
 6429              	.LASF107:
 6430 02b3 4C454431 		.ascii	"LED1_Red_Write\000"
 6430      5F526564 
 6430      5F577269 
 6430      746500
 6431              	.LASF76:
 6432 02c2 72756E5F 		.ascii	"run_7_Seg\000"
 6432      375F5365 
 6432      6700
 6433              	.LASF116:
 6434 02cc 6973725F 		.ascii	"isr_7Seg_StartEx\000"
ARM GAS  C:\Users\ANDREW~1\AppData\Local\Temp\ccwQPnwd.s 			page 138


 6434      37536567 
 6434      5F537461 
 6434      72744578 
 6434      00
 6435              	.LASF14:
 6436 02dd 63686172 		.ascii	"char\000"
 6436      00
 6437              	.LASF18:
 6438 02e2 4D657472 		.ascii	"MetricLedOn\000"
 6438      69634C65 
 6438      644F6E00 
 6439              	.LASF77:
 6440 02ee 6F6C645F 		.ascii	"old_dis_val\000"
 6440      6469735F 
 6440      76616C00 
 6441              	.LASF98:
 6442 02fa 4469735F 		.ascii	"Dis_D4_Write\000"
 6442      44345F57 
 6442      72697465 
 6442      00
 6443              	.LASF94:
 6444 0307 71736F72 		.ascii	"qsort\000"
 6444      7400
 6445              	.LASF58:
 6446 030d 53696E67 		.ascii	"SingleButtonWait\000"
 6446      6C654275 
 6446      74746F6E 
 6446      57616974 
 6446      00
 6447              	.LASF32:
 6448 031e 74696D65 		.ascii	"time_diff\000"
 6448      5F646966 
 6448      6600
 6449              	.LASF91:
 6450 0328 436F6E74 		.ascii	"Control_Reg_1_Write\000"
 6450      726F6C5F 
 6450      5265675F 
 6450      315F5772 
 6450      69746500 
 6451              	.LASF66:
 6452 033c 70726576 		.ascii	"previous_buzz\000"
 6452      696F7573 
 6452      5F62757A 
 6452      7A00
 6453              	.LASF124:
 6454 034a 54696D65 		.ascii	"Timer_2_Start\000"
 6454      725F325F 
 6454      53746172 
 6454      7400
 6455              	.LASF34:
 6456 0358 636F6D70 		.ascii	"compare_qsort\000"
 6456      6172655F 
 6456      71736F72 
 6456      7400
 6457              	.LASF85:
 6458 0366 54696D65 		.ascii	"Timer_2_ReadCounter\000"
 6458      725F325F 
ARM GAS  C:\Users\ANDREW~1\AppData\Local\Temp\ccwQPnwd.s 			page 139


 6458      52656164 
 6458      436F756E 
 6458      74657200 
 6459              	.LASF35:
 6460 037a 66696E64 		.ascii	"find_median\000"
 6460      5F6D6564 
 6460      69616E00 
 6461              	.LASF110:
 6462 0386 42757474 		.ascii	"Button_S5_Select_State_Read\000"
 6462      6F6E5F53 
 6462      355F5365 
 6462      6C656374 
 6462      5F537461 
 6463              	.LASF90:
 6464 03a2 6973725F 		.ascii	"isr_6_StartEx\000"
 6464      365F5374 
 6464      61727445 
 6464      7800
 6465              	.LASF7:
 6466 03b0 6C6F6E67 		.ascii	"long long int\000"
 6466      206C6F6E 
 6466      6720696E 
 6466      7400
 6467              	.LASF73:
 6468 03be 76616C75 		.ascii	"value_text\000"
 6468      655F7465 
 6468      787400
 6469              	.LASF127:
 6470 03c9 45455052 		.ascii	"EEPROM_ReadByte\000"
 6470      4F4D5F52 
 6470      65616442 
 6470      79746500 
 6471              	.LASF81:
 6472 03d9 54696D65 		.ascii	"Timer_1_Stop\000"
 6472      725F315F 
 6472      53746F70 
 6472      00
 6473              	.LASF132:
 6474 03e6 6D656D73 		.ascii	"memset\000"
 6474      657400
 6475              	.LASF74:
 6476 03ed 77616974 		.ascii	"waiting_ultra\000"
 6476      696E675F 
 6476      756C7472 
 6476      6100
 6477              	.LASF120:
 6478 03fb 436F6D70 		.ascii	"Comp_1_Start\000"
 6478      5F315F53 
 6478      74617274 
 6478      00
 6479              	.LASF36:
 6480 0408 73697A65 		.ascii	"size\000"
 6480      00
 6481              	.LASF43:
 6482 040d 636C6561 		.ascii	"clear_7_seg\000"
 6482      725F375F 
 6482      73656700 
ARM GAS  C:\Users\ANDREW~1\AppData\Local\Temp\ccwQPnwd.s 			page 140


 6483              	.LASF44:
 6484 0419 64726177 		.ascii	"draw_7Seg\000"
 6484      5F375365 
 6484      6700
 6485              	.LASF46:
 6486 0423 7365676D 		.ascii	"segmentPattern\000"
 6486      656E7450 
 6486      61747465 
 6486      726E00
 6487              	.LASF88:
 6488 0432 42757A7A 		.ascii	"Buzzer_Write\000"
 6488      65725F57 
 6488      72697465 
 6488      00
 6489              	.LASF122:
 6490 043f 436F756E 		.ascii	"Count7_1_Start\000"
 6490      74375F31 
 6490      5F537461 
 6490      727400
 6491              	.LASF15:
 6492 044e 6C6F6E67 		.ascii	"long double\000"
 6492      20646F75 
 6492      626C6500 
 6493              	.LASF67:
 6494 045a 62757A7A 		.ascii	"buzz_duration\000"
 6494      5F647572 
 6494      6174696F 
 6494      6E00
 6495              	.LASF26:
 6496 0468 42757A7A 		.ascii	"BuzzerSound\000"
 6496      6572536F 
 6496      756E6400 
 6497              	.LASF100:
 6498 0474 4469735F 		.ascii	"Dis_B_Write\000"
 6498      425F5772 
 6498      69746500 
 6499              	.LASF31:
 6500 0480 70726576 		.ascii	"previous_ultra_second\000"
 6500      696F7573 
 6500      5F756C74 
 6500      72615F73 
 6500      65636F6E 
 6501              	.LASF89:
 6502 0496 6973725F 		.ascii	"isr_6_ClearPending\000"
 6502      365F436C 
 6502      65617250 
 6502      656E6469 
 6502      6E6700
 6503              	.LASF102:
 6504 04a9 4469735F 		.ascii	"Dis_D_Write\000"
 6504      445F5772 
 6504      69746500 
 6505              	.LASF48:
 6506 04b5 64705F70 		.ascii	"dp_pos\000"
 6506      6F7300
 6507              	.LASF3:
 6508 04bc 73686F72 		.ascii	"short int\000"
ARM GAS  C:\Users\ANDREW~1\AppData\Local\Temp\ccwQPnwd.s 			page 141


 6508      7420696E 
 6508      7400
 6509              	.LASF5:
 6510 04c6 6C6F6E67 		.ascii	"long int\000"
 6510      20696E74 
 6510      00
 6511              	.LASF63:
 6512 04cf 49544D5F 		.ascii	"ITM_RxBuffer\000"
 6512      52784275 
 6512      66666572 
 6512      00
 6513              	.LASF22:
 6514 04dc 7072696E 		.ascii	"print_uart\000"
 6514      745F7561 
 6514      727400
 6515              	.LASF72:
 6516 04e7 64697374 		.ascii	"distance\000"
 6516      616E6365 
 6516      00
 6517              	.LASF40:
 6518 04f0 636F756E 		.ascii	"count_median\000"
 6518      745F6D65 
 6518      6469616E 
 6518      00
 6519              	.LASF25:
 6520 04fd 74656D70 		.ascii	"temp\000"
 6520      00
 6521              	.LASF95:
 6522 0502 4469735F 		.ascii	"Dis_D1_Write\000"
 6522      44315F57 
 6522      72697465 
 6522      00
 6523              	.LASF130:
 6524 050f 443A5C4D 		.ascii	"D:\\Monash\\Y3S2\\TRC3500\\TRC3500-Lab\\Project 3 U"
 6524      6F6E6173 
 6524      685C5933 
 6524      53325C54 
 6524      52433335 
 6525 053d 6C747261 		.ascii	"ltrasonic Distance Meter-20240427\\Project3_Ultraso"
 6525      736F6E69 
 6525      63204469 
 6525      7374616E 
 6525      6365204D 
 6526 056f 6E69635C 		.ascii	"nic\\7Seg_Display.cydsn\000"
 6526      37536567 
 6526      5F446973 
 6526      706C6179 
 6526      2E637964 
 6527              	.LASF45:
 6528 0586 6E756D62 		.ascii	"number\000"
 6528      657200
 6529              	.LASF126:
 6530 058d 55415254 		.ascii	"UART_1_Start\000"
 6530      5F315F53 
 6530      74617274 
 6530      00
 6531              	.LASF113:
ARM GAS  C:\Users\ANDREW~1\AppData\Local\Temp\ccwQPnwd.s 			page 142


 6532 059a 42757474 		.ascii	"Button_S4_Right_State_Read\000"
 6532      6F6E5F53 
 6532      345F5269 
 6532      6768745F 
 6532      53746174 
 6533              	.LASF60:
 6534 05b5 6D6F6465 		.ascii	"mode_2\000"
 6534      5F3200
 6535              	.LASF16:
 6536 05bc 73697A65 		.ascii	"sizetype\000"
 6536      74797065 
 6536      00
 6537              	.LASF6:
 6538 05c5 6C6F6E67 		.ascii	"long unsigned int\000"
 6538      20756E73 
 6538      69676E65 
 6538      6420696E 
 6538      7400
 6539              	.LASF104:
 6540 05d7 4469735F 		.ascii	"Dis_F_Write\000"
 6540      465F5772 
 6540      69746500 
 6541              	.LASF11:
 6542 05e3 696E7433 		.ascii	"int32_t\000"
 6542      325F7400 
 6543              	.LASF47:
 6544 05eb 7365675F 		.ascii	"seg_runtime\000"
 6544      72756E74 
 6544      696D6500 
 6545              	.LASF86:
 6546 05f7 55415254 		.ascii	"UART_1_WriteTxData\000"
 6546      5F315F57 
 6546      72697465 
 6546      54784461 
 6546      746100
 6547              	.LASF2:
 6548 060a 756E7369 		.ascii	"unsigned char\000"
 6548      676E6564 
 6548      20636861 
 6548      7200
 6549              	.LASF111:
 6550 0618 42757474 		.ascii	"Button_S2_Left_State_Read\000"
 6550      6F6E5F53 
 6550      325F4C65 
 6550      66745F53 
 6550      74617465 
 6551              	.LASF80:
 6552 0632 7365676D 		.ascii	"segmentPattern_array\000"
 6552      656E7450 
 6552      61747465 
 6552      726E5F61 
 6552      72726179 
 6553              	.LASF75:
 6554 0647 496E7465 		.ascii	"InterruptCnt\000"
 6554      72727570 
 6554      74436E74 
 6554      00
ARM GAS  C:\Users\ANDREW~1\AppData\Local\Temp\ccwQPnwd.s 			page 143


 6555              	.LASF52:
 6556 0654 6D6F6465 		.ascii	"mode_0\000"
 6556      5F3000
 6557              	.LASF59:
 6558 065b 6D6F6465 		.ascii	"mode_1\000"
 6558      5F3100
 6559              	.LASF30:
 6560 0662 756C7472 		.ascii	"ultra_reading\000"
 6560      615F7265 
 6560      6164696E 
 6560      6700
 6561              	.LASF55:
 6562 0670 6D6F6465 		.ascii	"mode_3\000"
 6562      5F3300
 6563              	.LASF70:
 6564 0677 67726F75 		.ascii	"group_num\000"
 6564      705F6E75 
 6564      6D00
 6565              	.LASF97:
 6566 0681 4469735F 		.ascii	"Dis_D3_Write\000"
 6566      44335F57 
 6566      72697465 
 6566      00
 6567              	.LASF99:
 6568 068e 4469735F 		.ascii	"Dis_A_Write\000"
 6568      415F5772 
 6568      69746500 
 6569              	.LASF114:
 6570 069a 45455052 		.ascii	"EEPROM_WriteByte\000"
 6570      4F4D5F57 
 6570      72697465 
 6570      42797465 
 6570      00
 6571              	.LASF38:
 6572 06ab 756C7472 		.ascii	"ultra_avg\000"
 6572      615F6176 
 6572      6700
 6573              	.LASF50:
 6574 06b5 73656E64 		.ascii	"send_ultra_pulse\000"
 6574      5F756C74 
 6574      72615F70 
 6574      756C7365 
 6574      00
 6575              	.LASF118:
 6576 06c6 5047415F 		.ascii	"PGA_1_Start\000"
 6576      315F5374 
 6576      61727400 
 6577              	.LASF93:
 6578 06d2 54696D65 		.ascii	"Timer_1_Start\000"
 6578      725F315F 
 6578      53746172 
 6578      7400
 6579              	.LASF1:
 6580 06e0 7369676E 		.ascii	"signed char\000"
 6580      65642063 
 6580      68617200 
 6581              	.LASF82:
ARM GAS  C:\Users\ANDREW~1\AppData\Local\Temp\ccwQPnwd.s 			page 144


 6582 06ec 54696D65 		.ascii	"Timer_1_ReadPeriod\000"
 6582      725F315F 
 6582      52656164 
 6582      50657269 
 6582      6F6400
 6583              	.LASF41:
 6584 06ff 66696E61 		.ascii	"final_dist\000"
 6584      6C5F6469 
 6584      737400
 6585              	.LASF4:
 6586 070a 73686F72 		.ascii	"short unsigned int\000"
 6586      7420756E 
 6586      7369676E 
 6586      65642069 
 6586      6E7400
 6587              	.LASF123:
 6588 071d 54696D65 		.ascii	"Timer_2_SetInterruptMode\000"
 6588      725F325F 
 6588      53657449 
 6588      6E746572 
 6588      72757074 
 6589              	.LASF131:
 6590 0736 6D61696E 		.ascii	"main\000"
 6590      00
 6591              	.LASF62:
 6592 073b 446F7562 		.ascii	"DoubleButtonWait\000"
 6592      6C654275 
 6592      74746F6E 
 6592      57616974 
 6592      00
 6593              	.LASF12:
 6594 074c 75696E74 		.ascii	"uint8\000"
 6594      3800
 6595              	.LASF0:
 6596 0752 646F7562 		.ascii	"double\000"
 6596      6C6500
 6597              	.LASF121:
 6598 0759 56444143 		.ascii	"VDAC8_1_Start\000"
 6598      385F315F 
 6598      53746172 
 6598      7400
 6599              	.LASF83:
 6600 0767 54696D65 		.ascii	"Timer_1_ReadCounter\000"
 6600      725F315F 
 6600      52656164 
 6600      436F756E 
 6600      74657200 
 6601              	.LASF79:
 6602 077b 63686172 		.ascii	"charLookup\000"
 6602      4C6F6F6B 
 6602      757000
 6603              	.LASF29:
 6604 0786 62757A7A 		.ascii	"buzz_time_diff\000"
 6604      5F74696D 
 6604      655F6469 
 6604      666600
 6605              	.LASF17:
ARM GAS  C:\Users\ANDREW~1\AppData\Local\Temp\ccwQPnwd.s 			page 145


 6606 0795 73656737 		.ascii	"seg7_ISR\000"
 6606      5F495352 
 6606      00
 6607              		.ident	"GCC: (GNU Tools for ARM Embedded Processors) 5.4.1 20160609 (release) [ARM/embedded-5-bran
