ARM GAS  C:\Users\ANDREW~1\AppData\Local\Temp\ccsv3i4f.s 			page 1


   1              		.syntax unified
   2              		.cpu cortex-m3
   3              		.fpu softvfp
   4              		.eabi_attribute 20, 1
   5              		.eabi_attribute 21, 1
   6              		.eabi_attribute 23, 3
   7              		.eabi_attribute 24, 1
   8              		.eabi_attribute 25, 1
   9              		.eabi_attribute 26, 1
  10              		.eabi_attribute 30, 1
  11              		.eabi_attribute 34, 1
  12              		.eabi_attribute 18, 4
  13              		.thumb
  14              		.syntax unified
  15              		.file	"main.c"
  16              		.text
  17              	.Ltext0:
  18              		.cfi_sections	.debug_frame
  19              		.section	.text.button1ISR,"ax",%progbits
  20              		.align	2
  21              		.global	button1ISR
  22              		.thumb
  23              		.thumb_func
  24              		.type	button1ISR, %function
  25              	button1ISR:
  26              	.LFB63:
  27              		.file 1 "main.c"
   1:main.c        **** /* ========================================
   2:main.c        ****  *
   3:main.c        ****  * Copyright YOUR COMPANY, THE YEAR
   4:main.c        ****  * All Rights Reserved
   5:main.c        ****  * UNPUBLISHED, LICENSED SOFTWARE.
   6:main.c        ****  *
   7:main.c        ****  * CONFIDENTIAL AND PROPRIETARY INFORMATION
   8:main.c        ****  * WHICH IS THE PROPERTY OF your company.
   9:main.c        ****  *
  10:main.c        ****  * ========================================
  11:main.c        **** */
  12:main.c        **** 
  13:main.c        **** // ================================================================================================
  14:main.c        **** #include "project.h"
  15:main.c        **** 
  16:main.c        **** void display_num(double value);
  17:main.c        **** void draw_7Seg(int number,int dp);
  18:main.c        **** CY_ISR(seg7_ISR);
  19:main.c        **** CY_ISR(button1ISR);
  20:main.c        **** CY_ISR(button2ISR);
  21:main.c        **** CY_ISR(button3ISR);
  22:main.c        **** CY_ISR(button4ISR);
  23:main.c        **** CY_ISR(button5ISR);
  24:main.c        **** CY_ISR(Receive_Ultra);
  25:main.c        **** 
  26:main.c        **** void print_uart(int num);
  27:main.c        **** void send_ultra_pulse();
  28:main.c        **** double ultra_reading();
  29:main.c        **** double current_second();
  30:main.c        **** void BuzzerSound(double duration);
ARM GAS  C:\Users\ANDREW~1\AppData\Local\Temp\ccsv3i4f.s 			page 2


  31:main.c        **** void BuzzerRuntime(double duration);
  32:main.c        **** void seg_runtime(double value);
  33:main.c        **** void runtime();
  34:main.c        **** 
  35:main.c        **** void EEPROM_writeDouble(uint16 address, double value);
  36:main.c        **** double EEPROM_readDouble(uint16 address);
  37:main.c        **** void writeDoubleArrayToEEPROM(uint16 startAddress, double* array, uint16 arraySize);
  38:main.c        **** void readDoubleArrayFromEEPROM(uint16 startAddress, double* array, uint16 arraySize);
  39:main.c        **** void EEPROM_writeInt(uint16 address, int value);
  40:main.c        **** int EEPROM_readInt(uint16 address) ;
  41:main.c        **** 
  42:main.c        **** void mode_0(void);
  43:main.c        **** void mode_1(void);
  44:main.c        **** void mode_2(void);
  45:main.c        **** void mode_3(void);
  46:main.c        **** 
  47:main.c        **** void MetricLedOn(void);
  48:main.c        **** void ImperialLedOn(void);
  49:main.c        **** void SingleButtonWait(void);
  50:main.c        **** void DoubleButtonWait(void);
  51:main.c        **** 
  52:main.c        **** 
  53:main.c        **** 
  54:main.c        **** // ================================================================================================
  55:main.c        **** double counter = 0;
  56:main.c        **** 
  57:main.c        **** int time_passed_step=0;
  58:main.c        **** double previous_buzz= 0;
  59:main.c        **** 
  60:main.c        **** double buzz_duration=0;
  61:main.c        **** double seg_num =0;
  62:main.c        **** 
  63:main.c        **** int button1=1;
  64:main.c        **** int button2=1;
  65:main.c        **** int button3=1;
  66:main.c        **** int button4=1;
  67:main.c        **** int button5=1;
  68:main.c        **** 
  69:main.c        **** /*
  70:main.c        **** CY_ISR(MyCustomISR1) //Right button interrupt
  71:main.c        **** {
  72:main.c        ****     button1=1;
  73:main.c        ****     send_ultra_pulse();
  74:main.c        **** }
  75:main.c        **** 
  76:main.c        **** CY_ISR(MyCustomISR2) //Right button interrupt
  77:main.c        **** {
  78:main.c        ****     button2=!button2;
  79:main.c        ****     //Timer_1_Stop();
  80:main.c        ****     //time_passed_step = Timer_1_ReadPeriod()-Timer_1_ReadCounter() ;
  81:main.c        ****     
  82:main.c        ****     //previous_buzz = current_second();
  83:main.c        ****     //buzz_duration=0.2;
  84:main.c        ****     //BuzzerSound(0.1);
  85:main.c        **** }*/
  86:main.c        **** 
  87:main.c        **** CY_ISR(button1ISR) {button1=!button1;}
ARM GAS  C:\Users\ANDREW~1\AppData\Local\Temp\ccsv3i4f.s 			page 3


  28              		.loc 1 87 0
  29              		.cfi_startproc
  30              		@ args = 0, pretend = 0, frame = 0
  31              		@ frame_needed = 0, uses_anonymous_args = 0
  32              		@ link register save eliminated.
  33              		.loc 1 87 0
  34 0000 034A     		ldr	r2, .L2
  35 0002 1368     		ldr	r3, [r2]
  36 0004 B3FA83F3 		clz	r3, r3
  37 0008 5B09     		lsrs	r3, r3, #5
  38 000a 1360     		str	r3, [r2]
  39 000c 7047     		bx	lr
  40              	.L3:
  41 000e 00BF     		.align	2
  42              	.L2:
  43 0010 00000000 		.word	.LANCHOR0
  44              		.cfi_endproc
  45              	.LFE63:
  46              		.size	button1ISR, .-button1ISR
  47              		.section	.text.button2ISR,"ax",%progbits
  48              		.align	2
  49              		.global	button2ISR
  50              		.thumb
  51              		.thumb_func
  52              		.type	button2ISR, %function
  53              	button2ISR:
  54              	.LFB64:
  88:main.c        **** CY_ISR(button2ISR) {button2=!button2;}
  55              		.loc 1 88 0
  56              		.cfi_startproc
  57              		@ args = 0, pretend = 0, frame = 0
  58              		@ frame_needed = 0, uses_anonymous_args = 0
  59              		@ link register save eliminated.
  60              		.loc 1 88 0
  61 0000 034A     		ldr	r2, .L5
  62 0002 5368     		ldr	r3, [r2, #4]
  63 0004 B3FA83F3 		clz	r3, r3
  64 0008 5B09     		lsrs	r3, r3, #5
  65 000a 5360     		str	r3, [r2, #4]
  66 000c 7047     		bx	lr
  67              	.L6:
  68 000e 00BF     		.align	2
  69              	.L5:
  70 0010 00000000 		.word	.LANCHOR0
  71              		.cfi_endproc
  72              	.LFE64:
  73              		.size	button2ISR, .-button2ISR
  74              		.section	.text.button3ISR,"ax",%progbits
  75              		.align	2
  76              		.global	button3ISR
  77              		.thumb
  78              		.thumb_func
  79              		.type	button3ISR, %function
  80              	button3ISR:
  81              	.LFB65:
  89:main.c        **** CY_ISR(button3ISR) {button3=!button3;}
  82              		.loc 1 89 0
ARM GAS  C:\Users\ANDREW~1\AppData\Local\Temp\ccsv3i4f.s 			page 4


  83              		.cfi_startproc
  84              		@ args = 0, pretend = 0, frame = 0
  85              		@ frame_needed = 0, uses_anonymous_args = 0
  86              		@ link register save eliminated.
  87              		.loc 1 89 0
  88 0000 034A     		ldr	r2, .L8
  89 0002 9368     		ldr	r3, [r2, #8]
  90 0004 B3FA83F3 		clz	r3, r3
  91 0008 5B09     		lsrs	r3, r3, #5
  92 000a 9360     		str	r3, [r2, #8]
  93 000c 7047     		bx	lr
  94              	.L9:
  95 000e 00BF     		.align	2
  96              	.L8:
  97 0010 00000000 		.word	.LANCHOR0
  98              		.cfi_endproc
  99              	.LFE65:
 100              		.size	button3ISR, .-button3ISR
 101              		.section	.text.button4ISR,"ax",%progbits
 102              		.align	2
 103              		.global	button4ISR
 104              		.thumb
 105              		.thumb_func
 106              		.type	button4ISR, %function
 107              	button4ISR:
 108              	.LFB66:
  90:main.c        **** CY_ISR(button4ISR) {button4=!button4;}
 109              		.loc 1 90 0
 110              		.cfi_startproc
 111              		@ args = 0, pretend = 0, frame = 0
 112              		@ frame_needed = 0, uses_anonymous_args = 0
 113              		@ link register save eliminated.
 114              		.loc 1 90 0
 115 0000 034A     		ldr	r2, .L11
 116 0002 D368     		ldr	r3, [r2, #12]
 117 0004 B3FA83F3 		clz	r3, r3
 118 0008 5B09     		lsrs	r3, r3, #5
 119 000a D360     		str	r3, [r2, #12]
 120 000c 7047     		bx	lr
 121              	.L12:
 122 000e 00BF     		.align	2
 123              	.L11:
 124 0010 00000000 		.word	.LANCHOR0
 125              		.cfi_endproc
 126              	.LFE66:
 127              		.size	button4ISR, .-button4ISR
 128              		.section	.text.button5ISR,"ax",%progbits
 129              		.align	2
 130              		.global	button5ISR
 131              		.thumb
 132              		.thumb_func
 133              		.type	button5ISR, %function
 134              	button5ISR:
 135              	.LFB67:
  91:main.c        **** CY_ISR(button5ISR) {button5=!button5;}
 136              		.loc 1 91 0
 137              		.cfi_startproc
ARM GAS  C:\Users\ANDREW~1\AppData\Local\Temp\ccsv3i4f.s 			page 5


 138              		@ args = 0, pretend = 0, frame = 0
 139              		@ frame_needed = 0, uses_anonymous_args = 0
 140              		@ link register save eliminated.
 141              		.loc 1 91 0
 142 0000 034A     		ldr	r2, .L14
 143 0002 1369     		ldr	r3, [r2, #16]
 144 0004 B3FA83F3 		clz	r3, r3
 145 0008 5B09     		lsrs	r3, r3, #5
 146 000a 1361     		str	r3, [r2, #16]
 147 000c 7047     		bx	lr
 148              	.L15:
 149 000e 00BF     		.align	2
 150              	.L14:
 151 0010 00000000 		.word	.LANCHOR0
 152              		.cfi_endproc
 153              	.LFE67:
 154              		.size	button5ISR, .-button5ISR
 155              		.section	.text.seg7_ISR,"ax",%progbits
 156              		.align	2
 157              		.global	seg7_ISR
 158              		.thumb
 159              		.thumb_func
 160              		.type	seg7_ISR, %function
 161              	seg7_ISR:
 162              	.LFB88:
  92:main.c        **** 
  93:main.c        **** 
  94:main.c        **** int mode = 0;
  95:main.c        **** int group_num = 0;
  96:main.c        **** char cm_or_inch;
  97:main.c        **** 
  98:main.c        **** double distance=0;
  99:main.c        **** 
 100:main.c        **** int main(void)
 101:main.c        **** {
 102:main.c        ****     // Enable interrupts
 103:main.c        ****     CyGlobalIntEnable; 
 104:main.c        ****     
 105:main.c        ****     // Enable button interrupts
 106:main.c        ****     isr_1_ClearPending(); 
 107:main.c        ****     isr_2_ClearPending(); 
 108:main.c        ****     isr_3_ClearPending(); 
 109:main.c        ****     isr_4_ClearPending(); 
 110:main.c        ****     isr_5_ClearPending(); 
 111:main.c        ****     
 112:main.c        ****     isr_1_StartEx(button1ISR);  
 113:main.c        ****     isr_2_StartEx(button2ISR);  
 114:main.c        ****     isr_3_StartEx(button3ISR);  
 115:main.c        ****     isr_4_StartEx(button4ISR);  
 116:main.c        ****     isr_5_StartEx(button5ISR);  
 117:main.c        ****     
 118:main.c        ****     // 7 Segment display setup
 119:main.c        ****     isr_7Seg_ClearPending(); 
 120:main.c        ****     isr_7Seg_StartEx(seg7_ISR);  
 121:main.c        ****     
 122:main.c        ****     //  Ultrasonic transmitter setup
 123:main.c        ****     isr_6_ClearPending(); 
ARM GAS  C:\Users\ANDREW~1\AppData\Local\Temp\ccsv3i4f.s 			page 6


 124:main.c        ****     Timer_1_SetInterruptMode(3);
 125:main.c        ****     isr_6_StartEx(Receive_Ultra);  
 126:main.c        ****     
 127:main.c        ****     // Ultrasonic receiver setup
 128:main.c        ****     PGA_1_Start();
 129:main.c        ****     Opamp_1_Start();
 130:main.c        ****     Comp_1_Start();
 131:main.c        ****     VDAC8_1_Start();
 132:main.c        ****     Count7_1_Start(); 
 133:main.c        ****     
 134:main.c        ****     // Global clock timer 
 135:main.c        ****     Timer_2_SetInterruptMode(3);
 136:main.c        ****     Timer_2_Start();
 137:main.c        ****     
 138:main.c        ****     // Setup EEPROM
 139:main.c        ****     EEPROM_Start(); 
 140:main.c        ****     
 141:main.c        ****     // Setup UART
 142:main.c        ****     UART_1_Start();
 143:main.c        ****     UART_1_PutString("Start UART");
 144:main.c        ****     
 145:main.c        ****     
 146:main.c        ****     double setup_previous_time =current_second();
 147:main.c        ****     while((current_second()-setup_previous_time)<=4)
 148:main.c        ****     {
 149:main.c        ****         if((int)(current_second()-setup_previous_time) ==0) display_num(-5);
 150:main.c        ****         if((int)(current_second()-setup_previous_time) ==1) display_num(-6);
 151:main.c        ****         if((int)(current_second()-setup_previous_time) ==2) display_num(-7);
 152:main.c        ****         if((int)(current_second()-setup_previous_time) ==3) display_num(-8);
 153:main.c        ****         runtime();
 154:main.c        ****     }
 155:main.c        ****     
 156:main.c        ****     // EEPROM Write startup
 157:main.c        ****     /*
 158:main.c        ****     // Place your initialization/startup code here (e.g. MyInst_Start())
 159:main.c        ****     int teamNumber = 200;
 160:main.c        ****     EEPROM_writeInt(0, teamNumber);
 161:main.c        ****     int nextAddress = sizeof(int);
 162:main.c        ****     char measurementSystem = 'c';
 163:main.c        ****     EEPROM_WriteByte((uint8)measurementSystem, nextAddress);
 164:main.c        ****     nextAddress += sizeof(char);
 165:main.c        ****     double calibration[55] = {0.0};
 166:main.c        ****     writeDoubleArrayToEEPROM(nextAddress, calibration, 55);
 167:main.c        ****     */
 168:main.c        ****     
 169:main.c        ****     //int eprom_read = EEPROM_ReadByte(0x00);
 170:main.c        ****     //int eprom_write =eprom_read+1;
 171:main.c        ****     //EEPROM_WriteByte(eprom_write,0x0000);
 172:main.c        ****     
 173:main.c        ****     
 174:main.c        ****     //int eprom_num = EEPROM_ReadByte(55*sizeof(double)+sizeof(char));
 175:main.c        ****     group_num = EEPROM_ReadByte(0);
 176:main.c        ****     cm_or_inch = EEPROM_ReadByte(sizeof(int));
 177:main.c        ****     
 178:main.c        ****     
 179:main.c        ****     
 180:main.c        ****     for(;;)
ARM GAS  C:\Users\ANDREW~1\AppData\Local\Temp\ccsv3i4f.s 			page 7


 181:main.c        ****     {
 182:main.c        ****         /*
 183:main.c        ****     print_uart(mode);
 184:main.c        ****     
 185:main.c        ****         if (mode==0)
 186:main.c        ****         {
 187:main.c        ****         print_uart(mode);
 188:main.c        ****             mode_0();
 189:main.c        ****         
 190:main.c        ****         }
 191:main.c        ****         if (mode==1)
 192:main.c        ****         {
 193:main.c        ****         print_uart(mode);
 194:main.c        ****         //mode_1();
 195:main.c        ****         }
 196:main.c        ****         if (mode==2)
 197:main.c        ****         {
 198:main.c        ****         print_uart(mode);
 199:main.c        ****             //mode_2();
 200:main.c        ****         }
 201:main.c        ****         if (mode==3)
 202:main.c        ****         {
 203:main.c        ****         print_uart(mode);
 204:main.c        ****             //mode_3();
 205:main.c        ****         }*/
 206:main.c        ****         
 207:main.c        ****         //mode_0();
 208:main.c        ****         //display_num( ultra_reading());
 209:main.c        ****         //display_num( current_second());
 210:main.c        ****         //display_num( current_second());
 211:main.c        ****         //if (cm_or_inch =='c') display_num(-1);
 212:main.c        ****         //if (cm_or_inch =='i') display_num(-2);
 213:main.c        ****         
 214:main.c        ****         //display_num( eprom_num);
 215:main.c        ****         display_num(Button_S5_Select_State_Read());
 216:main.c        ****         //display_num(-3);
 217:main.c        ****         //BuzzerRuntime(0.2);
 218:main.c        ****         runtime();
 219:main.c        ****         
 220:main.c        ****         
 221:main.c        ****     }
 222:main.c        **** }
 223:main.c        **** int Button_S2_Left(){return button2;}
 224:main.c        **** int Button_S4_Right(){return button4;}
 225:main.c        **** int Button_S5_Select() {return button5;}
 226:main.c        **** 
 227:main.c        **** // ================================================================================================
 228:main.c        **** //sleep mode
 229:main.c        **** void mode_0(void)
 230:main.c        **** {
 231:main.c        ****     double previous_second=current_second();
 232:main.c        ****     while (mode == 0) {
 233:main.c        ****         runtime();
 234:main.c        ****         //flash decimal point 1 second on, off
 235:main.c        ****         double time_diff = current_second()-previous_second;
 236:main.c        ****         if (time_diff<=1)
 237:main.c        ****         {
ARM GAS  C:\Users\ANDREW~1\AppData\Local\Temp\ccsv3i4f.s 			page 8


 238:main.c        ****             display_num(-3); //display decimal
 239:main.c        ****         }
 240:main.c        ****         else if (time_diff > 1  || time_diff <= 2)
 241:main.c        ****         {
 242:main.c        ****             display_num(-4); //display blank
 243:main.c        ****         }
 244:main.c        ****         else
 245:main.c        ****         {
 246:main.c        ****             previous_second = current_second();
 247:main.c        ****         }
 248:main.c        ****       
 249:main.c        ****         
 250:main.c        ****         //check if either button is pressed
 251:main.c        ****         if (Button_S5_Select() == 0 || Button_S2_Left() == 0)
 252:main.c        ****         {
 253:main.c        ****             //wait 0.2 seconds to delay check
 254:main.c        ****             double check_second = current_second();
 255:main.c        ****             while (current_second() - check_second <0.2)
 256:main.c        ****             {
 257:main.c        ****                 runtime();
 258:main.c        ****             }
 259:main.c        ****            
 260:main.c        ****             //if both buttons pressed, wait 1 seconds to go to mode 1
 261:main.c        ****             if (Button_S5_Select() == 0 && Button_S2_Left() == 0)
 262:main.c        ****             {
 263:main.c        ****                 BuzzerSound(0.2);
 264:main.c        ****                 check_second = current_second();        
 265:main.c        ****                 while (Button_S5_Select() == 0 && Button_S2_Left() == 0)
 266:main.c        ****                 {
 267:main.c        ****                     runtime();
 268:main.c        ****                     if (current_second()-check_second==1)
 269:main.c        ****                     {
 270:main.c        ****                         mode = 1;
 271:main.c        ****                         break;
 272:main.c        ****                     }
 273:main.c        ****                 }  
 274:main.c        ****             }
 275:main.c        ****             //if instead just button 1 is pressed, go to mode 3
 276:main.c        ****             else if (Button_S5_Select() == 0 && Button_S2_Left() == 1)
 277:main.c        ****             {
 278:main.c        ****                 mode = 3;
 279:main.c        ****             }
 280:main.c        ****         }
 281:main.c        ****     }
 282:main.c        **** }
 283:main.c        **** 
 284:main.c        **** //program mode
 285:main.c        **** void mode_1(void)
 286:main.c        **** {
 287:main.c        ****     double previous_second=0;
 288:main.c        ****     while (mode == 1) {
 289:main.c        ****        
 290:main.c        ****         runtime();
 291:main.c        ****         //flash group number
 292:main.c        ****         double time_diff = current_second()-previous_second;
 293:main.c        ****         if (time_diff<=1)
 294:main.c        ****         {
ARM GAS  C:\Users\ANDREW~1\AppData\Local\Temp\ccsv3i4f.s 			page 9


 295:main.c        ****             display_num(group_num); // group_num
 296:main.c        ****         }
 297:main.c        ****         else if ((time_diff>1) || (time_diff<=1.5))
 298:main.c        ****         {
 299:main.c        ****             display_num(-4); // Blank
 300:main.c        ****         }
 301:main.c        ****         else
 302:main.c        ****         {
 303:main.c        ****             previous_second = current_second();
 304:main.c        ****         }
 305:main.c        ****        
 306:main.c        ****        
 307:main.c        ****         // Check to go to mode 2
 308:main.c        ****         if (Button_S4_Right() == 0) // Assuming active low buttons
 309:main.c        ****         {
 310:main.c        ****             SingleButtonWait();
 311:main.c        ****             BuzzerSound(0.2);
 312:main.c        ****             mode = 2;
 313:main.c        ****         }
 314:main.c        ****         //check to increment number
 315:main.c        ****         if (Button_S5_Select() == 0)
 316:main.c        ****         {
 317:main.c        ****             SingleButtonWait();
 318:main.c        ****             BuzzerSound(0.2);
 319:main.c        ****             group_num ++;
 320:main.c        ****         }
 321:main.c        ****         //check to decrement number
 322:main.c        ****         if (Button_S2_Left() == 0)
 323:main.c        ****         {
 324:main.c        ****             SingleButtonWait();
 325:main.c        ****             BuzzerSound(0.2);
 326:main.c        ****             group_num --;
 327:main.c        ****         }
 328:main.c        ****     }
 329:main.c        **** }
 330:main.c        **** 
 331:main.c        **** //system change mode
 332:main.c        **** void mode_2(void)
 333:main.c        **** {
 334:main.c        ****     while (mode == 2)
 335:main.c        ****     {
 336:main.c        ****         runtime();
 337:main.c        ****         
 338:main.c        ****         // Display cm or inch
 339:main.c        ****         if (cm_or_inch =='c') display_num(-1);
 340:main.c        ****         if (cm_or_inch =='i') display_num(-2);
 341:main.c        ****         
 342:main.c        ****         //check to go to mode 0
 343:main.c        ****         if (Button_S4_Right() == 0)
 344:main.c        ****         {
 345:main.c        ****             SingleButtonWait();
 346:main.c        ****             BuzzerSound(0.2);
 347:main.c        ****             mode = 0;
 348:main.c        ****         }
 349:main.c        ****         //Set system to metric (centimeters)
 350:main.c        ****         if (Button_S5_Select() == 0)
 351:main.c        ****         {
ARM GAS  C:\Users\ANDREW~1\AppData\Local\Temp\ccsv3i4f.s 			page 10


 352:main.c        ****             SingleButtonWait();
 353:main.c        ****             BuzzerSound(0.2);
 354:main.c        ****             MetricLedOn();
 355:main.c        ****             
 356:main.c        ****             cm_or_inch = 'c'; // set system to use cm
 357:main.c        ****         }
 358:main.c        ****         //Set system to imperial (inches)
 359:main.c        ****         if (Button_S2_Left() == 0)
 360:main.c        ****         {
 361:main.c        ****             SingleButtonWait();
 362:main.c        ****             BuzzerSound(0.2);
 363:main.c        ****             ImperialLedOn();
 364:main.c        ****             
 365:main.c        ****             cm_or_inch = 'i'; // set system to use inch
 366:main.c        ****             
 367:main.c        ****            
 368:main.c        ****         }
 369:main.c        ****     }
 370:main.c        ****     
 371:main.c        ****     EEPROM_WriteByte(cm_or_inch,sizeof(int));
 372:main.c        **** 
 373:main.c        **** }
 374:main.c        **** 
 375:main.c        ****  //ultrasonic reading and display mode
 376:main.c        **** void mode_3(void)
 377:main.c        **** {
 378:main.c        ****    
 379:main.c        ****     int flag_read = 1;
 380:main.c        ****     double previous_second;
 381:main.c        ****     while (mode == 3)
 382:main.c        ****     {
 383:main.c        ****         runtime();
 384:main.c        ****         //check if first time entering loop
 385:main.c        ****         if (flag_read == 1)
 386:main.c        ****         {
 387:main.c        ****             distance = ultra_reading();
 388:main.c        ****             previous_second= current_second();
 389:main.c        ****             flag_read = 0;
 390:main.c        ****         }
 391:main.c        ****        
 392:main.c        ****         display_num(distance);
 393:main.c        ****        
 394:main.c        ****         //check if loop has gone for over 2 seconds
 395:main.c        ****         if (current_second()-previous_second >=2)
 396:main.c        ****         {
 397:main.c        ****             //if button pressed, reset whole loop from start. else go to mode 0
 398:main.c        ****             if (Button_S5_Select() == 0)
 399:main.c        ****             {
 400:main.c        ****                 BuzzerSound(0.2);
 401:main.c        ****                 flag_read=1;
 402:main.c        ****             }
 403:main.c        ****             else
 404:main.c        ****             {
 405:main.c        ****                 mode = 0;
 406:main.c        ****             }
 407:main.c        ****         }
 408:main.c        ****        
ARM GAS  C:\Users\ANDREW~1\AppData\Local\Temp\ccsv3i4f.s 			page 11


 409:main.c        ****     }
 410:main.c        ****    
 411:main.c        **** }
 412:main.c        **** 
 413:main.c        **** 
 414:main.c        **** 
 415:main.c        **** 
 416:main.c        **** void MetricLedOn(void)
 417:main.c        **** {
 418:main.c        ****     LED2_Yellow_Write(0);
 419:main.c        ****     LED3_Green_Write(1);
 420:main.c        **** }
 421:main.c        **** 
 422:main.c        **** void ImperialLedOn(void)
 423:main.c        **** {
 424:main.c        ****     LED3_Green_Write(0);
 425:main.c        ****     LED2_Yellow_Write(1);
 426:main.c        **** 
 427:main.c        **** }
 428:main.c        **** 
 429:main.c        **** void SingleButtonWait(void)
 430:main.c        **** {
 431:main.c        ****     while (Button_S4_Right()==0 || Button_S5_Select()==0 || Button_S2_Left()==0)
 432:main.c        ****     {
 433:main.c        ****         runtime();
 434:main.c        ****     }
 435:main.c        **** }
 436:main.c        **** 
 437:main.c        **** void DoubleButtonWait(void)
 438:main.c        **** {
 439:main.c        ****     while (Button_S5_Select() == 0 && Button_S2_Left() == 0)
 440:main.c        ****     {
 441:main.c        ****         runtime();
 442:main.c        ****     }
 443:main.c        **** }
 444:main.c        **** 
 445:main.c        **** // ================================================================================================
 446:main.c        **** 
 447:main.c        **** void runtime()
 448:main.c        **** {
 449:main.c        ****     BuzzerRuntime(buzz_duration);
 450:main.c        ****     seg_runtime(seg_num);
 451:main.c        ****     
 452:main.c        **** }
 453:main.c        **** 
 454:main.c        **** double current_second()
 455:main.c        **** {
 456:main.c        ****     double time = (double)(Timer_2_ReadPeriod()-Timer_2_ReadCounter());
 457:main.c        ****     time = time/1000;
 458:main.c        ****     
 459:main.c        ****     return time;
 460:main.c        **** }
 461:main.c        **** // ================================================================================================
 462:main.c        **** /* EEPROM */
 463:main.c        **** /*
 464:main.c        **** void EEPROM_writeDouble(uint16 address, double value) {
 465:main.c        ****     uint8 ptr = (uint8)(void*)&value;  // Convert double to byte array
ARM GAS  C:\Users\ANDREW~1\AppData\Local\Temp\ccsv3i4f.s 			page 12


 466:main.c        ****     for (uint8 i = 0; i < sizeof(double); i++) {
 467:main.c        ****         EEPROM_WriteByte(ptr[i], address + i);
 468:main.c        ****     }
 469:main.c        **** }
 470:main.c        **** 
 471:main.c        **** double EEPROM_readDouble(uint16 address) {
 472:main.c        ****     double value = 0.0;
 473:main.c        ****     uint8 ptr = (uint8)(void*)&value;
 474:main.c        ****     for (uint8 i = 0; i < sizeof(double); i++) {
 475:main.c        ****         ptr[i] = EEPROM_ReadByte(address + i);
 476:main.c        ****     }
 477:main.c        ****     return value;
 478:main.c        **** }
 479:main.c        **** 
 480:main.c        **** void writeDoubleArrayToEEPROM(uint16 startAddress, double* array, uint16 arraySize) {
 481:main.c        ****     for (uint16 i = 0; i < arraySize; i++) {
 482:main.c        ****         EEPROM_writeDouble(startAddress + i * sizeof(double), array[i]);
 483:main.c        ****     }
 484:main.c        **** }
 485:main.c        **** 
 486:main.c        **** void readDoubleArrayFromEEPROM(uint16 startAddress, double* array, uint16 arraySize) {
 487:main.c        ****     for (uint16 i = 0; i < arraySize; i++) {
 488:main.c        ****         array[i] = EEPROM_readDouble(startAddress + i * sizeof(double));
 489:main.c        ****     }
 490:main.c        **** }
 491:main.c        **** 
 492:main.c        **** void EEPROM_writeInt(uint16 address, int value) {
 493:main.c        ****     uint8 ptr = (uint8)(void*)&value;  // Convert int to byte array
 494:main.c        ****     for (uint8 i = 0; i < sizeof(int); i++) {
 495:main.c        ****         EEPROM_WriteByte(ptr[i], address + i);
 496:main.c        ****     }
 497:main.c        **** }
 498:main.c        **** 
 499:main.c        **** int EEPROM_readInt(uint16 address) {
 500:main.c        ****     int value = 0;
 501:main.c        ****     uint8 ptr = (uint8)(void*)&value;
 502:main.c        ****     for (uint8 i = 0; i < sizeof(int); i++) {
 503:main.c        ****         ptr[i] = EEPROM_ReadByte(address + i);
 504:main.c        ****     }
 505:main.c        ****     return value;
 506:main.c        **** }
 507:main.c        **** */
 508:main.c        **** 
 509:main.c        **** // ================================================================================================
 510:main.c        **** /* UART communications */
 511:main.c        **** 
 512:main.c        **** uint8 value_text[16];
 513:main.c        **** void print_uart(int num)
 514:main.c        **** { 
 515:main.c        ****     int num_digits = 0;
 516:main.c        ****     int temp = num;
 517:main.c        ****     
 518:main.c        ****     // Count the number of digits (optional for pre-allocation)
 519:main.c        ****     while (temp != 0) {
 520:main.c        ****         temp /= 10;
 521:main.c        ****         num_digits++;
 522:main.c        ****     }
ARM GAS  C:\Users\ANDREW~1\AppData\Local\Temp\ccsv3i4f.s 			page 13


 523:main.c        **** 
 524:main.c        ****     for (int i = num_digits-1; i >= 0; --i) {
 525:main.c        ****         value_text[i] = num % 10;
 526:main.c        ****         num /= 10;
 527:main.c        ****     }
 528:main.c        ****     
 529:main.c        ****     for (int i = 0; i < num_digits; ++i) {
 530:main.c        ****         UART_1_WriteTxData(value_text[i]+0x30); //display number
 531:main.c        ****         CyDelay(5);
 532:main.c        ****     }
 533:main.c        ****     
 534:main.c        **** }
 535:main.c        **** 
 536:main.c        **** // ================================================================================================
 537:main.c        **** /* Buzzer */
 538:main.c        **** void BuzzerSound(double duration)
 539:main.c        **** {
 540:main.c        ****     previous_buzz = current_second();
 541:main.c        ****     buzz_duration= duration;
 542:main.c        **** }
 543:main.c        **** void BuzzerRuntime(double duration)
 544:main.c        **** {
 545:main.c        ****     double time_diff = current_second()-previous_buzz;
 546:main.c        ****     
 547:main.c        ****     if(time_diff<duration) Buzzer_Write(0);  // Turn on buzzer
 548:main.c        ****     else Buzzer_Write(1); // Turn off buzzer
 549:main.c        **** }
 550:main.c        **** 
 551:main.c        **** 
 552:main.c        **** 
 553:main.c        **** // ================================================================================================
 554:main.c        **** /* Ultrasinic launch function*/
 555:main.c        **** 
 556:main.c        **** double value = 0; 
 557:main.c        **** //double distance = 0;
 558:main.c        **** 
 559:main.c        **** double ultra_reading()
 560:main.c        **** {
 561:main.c        ****     send_ultra_pulse();
 562:main.c        ****     
 563:main.c        ****     // TODO: may need to write blocking code to obtain ultrasonic values
 564:main.c        ****     value =  ((double)time_passed_step/10000)-0.5; //in ms
 565:main.c        ****     distance = (34*value)/2;
 566:main.c        ****     
 567:main.c        ****     return distance;
 568:main.c        **** }
 569:main.c        **** void send_ultra_pulse()
 570:main.c        **** {
 571:main.c        ****     Control_Reg_1_Write(1); // Reset counter to do more pulses
 572:main.c        ****     Timer_1_Start();        // Start receiver timer
 573:main.c        ****     Control_Reg_1_Write(0);
 574:main.c        **** }
 575:main.c        **** 
 576:main.c        **** uint8 InterruptCnt;
 577:main.c        **** CY_ISR(Receive_Ultra)  // Ultrasonic Receiver
 578:main.c        **** {
 579:main.c        ****     Timer_1_Stop();
ARM GAS  C:\Users\ANDREW~1\AppData\Local\Temp\ccsv3i4f.s 			page 14


 580:main.c        ****     time_passed_step = Timer_1_ReadPeriod()-Timer_1_ReadCounter() ;
 581:main.c        **** }
 582:main.c        **** 
 583:main.c        **** 
 584:main.c        **** // ================================================================================================
 585:main.c        **** /* Mid Level 7 Segment display code*/
 586:main.c        **** 
 587:main.c        **** //Global variable
 588:main.c        **** int run_7_Seg = 0;
 589:main.c        **** 
 590:main.c        **** // Interrupt routine for displaying each sections
 591:main.c        **** CY_ISR(seg7_ISR) 
 592:main.c        **** {
 163              		.loc 1 592 0
 164              		.cfi_startproc
 165              		@ args = 0, pretend = 0, frame = 0
 166              		@ frame_needed = 0, uses_anonymous_args = 0
 167              		@ link register save eliminated.
 593:main.c        ****     run_7_Seg = 1;
 168              		.loc 1 593 0
 169 0000 0122     		movs	r2, #1
 170 0002 014B     		ldr	r3, .L17
 171 0004 1A60     		str	r2, [r3]
 172 0006 7047     		bx	lr
 173              	.L18:
 174              		.align	2
 175              	.L17:
 176 0008 00000000 		.word	.LANCHOR1
 177              		.cfi_endproc
 178              	.LFE88:
 179              		.size	seg7_ISR, .-seg7_ISR
 180              		.section	.text.Receive_Ultra,"ax",%progbits
 181              		.align	2
 182              		.global	Receive_Ultra
 183              		.thumb
 184              		.thumb_func
 185              		.type	Receive_Ultra, %function
 186              	Receive_Ultra:
 187              	.LFB87:
 578:main.c        ****     Timer_1_Stop();
 188              		.loc 1 578 0
 189              		.cfi_startproc
 190              		@ args = 0, pretend = 0, frame = 0
 191              		@ frame_needed = 0, uses_anonymous_args = 0
 192 0000 10B5     		push	{r4, lr}
 193              		.cfi_def_cfa_offset 8
 194              		.cfi_offset 4, -8
 195              		.cfi_offset 14, -4
 579:main.c        ****     time_passed_step = Timer_1_ReadPeriod()-Timer_1_ReadCounter() ;
 196              		.loc 1 579 0
 197 0002 FFF7FEFF 		bl	Timer_1_Stop
 198              	.LVL0:
 580:main.c        **** }
 199              		.loc 1 580 0
 200 0006 FFF7FEFF 		bl	Timer_1_ReadPeriod
 201              	.LVL1:
 202 000a 0446     		mov	r4, r0
ARM GAS  C:\Users\ANDREW~1\AppData\Local\Temp\ccsv3i4f.s 			page 15


 203 000c FFF7FEFF 		bl	Timer_1_ReadCounter
 204              	.LVL2:
 205 0010 201A     		subs	r0, r4, r0
 206 0012 014B     		ldr	r3, .L21
 207 0014 5860     		str	r0, [r3, #4]
 208 0016 10BD     		pop	{r4, pc}
 209              	.L22:
 210              		.align	2
 211              	.L21:
 212 0018 00000000 		.word	.LANCHOR1
 213              		.cfi_endproc
 214              	.LFE87:
 215              		.size	Receive_Ultra, .-Receive_Ultra
 216              		.section	.text.Button_S2_Left,"ax",%progbits
 217              		.align	2
 218              		.global	Button_S2_Left
 219              		.thumb
 220              		.thumb_func
 221              		.type	Button_S2_Left, %function
 222              	Button_S2_Left:
 223              	.LFB69:
 223:main.c        **** int Button_S4_Right(){return button4;}
 224              		.loc 1 223 0
 225              		.cfi_startproc
 226              		@ args = 0, pretend = 0, frame = 0
 227              		@ frame_needed = 0, uses_anonymous_args = 0
 228              		@ link register save eliminated.
 223:main.c        **** int Button_S4_Right(){return button4;}
 229              		.loc 1 223 0
 230 0000 014B     		ldr	r3, .L24
 231 0002 5868     		ldr	r0, [r3, #4]
 232 0004 7047     		bx	lr
 233              	.L25:
 234 0006 00BF     		.align	2
 235              	.L24:
 236 0008 00000000 		.word	.LANCHOR0
 237              		.cfi_endproc
 238              	.LFE69:
 239              		.size	Button_S2_Left, .-Button_S2_Left
 240              		.section	.text.Button_S4_Right,"ax",%progbits
 241              		.align	2
 242              		.global	Button_S4_Right
 243              		.thumb
 244              		.thumb_func
 245              		.type	Button_S4_Right, %function
 246              	Button_S4_Right:
 247              	.LFB70:
 224:main.c        **** int Button_S5_Select() {return button5;}
 248              		.loc 1 224 0
 249              		.cfi_startproc
 250              		@ args = 0, pretend = 0, frame = 0
 251              		@ frame_needed = 0, uses_anonymous_args = 0
 252              		@ link register save eliminated.
 224:main.c        **** int Button_S5_Select() {return button5;}
 253              		.loc 1 224 0
 254 0000 014B     		ldr	r3, .L27
 255 0002 D868     		ldr	r0, [r3, #12]
ARM GAS  C:\Users\ANDREW~1\AppData\Local\Temp\ccsv3i4f.s 			page 16


 256 0004 7047     		bx	lr
 257              	.L28:
 258 0006 00BF     		.align	2
 259              	.L27:
 260 0008 00000000 		.word	.LANCHOR0
 261              		.cfi_endproc
 262              	.LFE70:
 263              		.size	Button_S4_Right, .-Button_S4_Right
 264              		.section	.text.Button_S5_Select,"ax",%progbits
 265              		.align	2
 266              		.global	Button_S5_Select
 267              		.thumb
 268              		.thumb_func
 269              		.type	Button_S5_Select, %function
 270              	Button_S5_Select:
 271              	.LFB71:
 225:main.c        **** 
 272              		.loc 1 225 0
 273              		.cfi_startproc
 274              		@ args = 0, pretend = 0, frame = 0
 275              		@ frame_needed = 0, uses_anonymous_args = 0
 276              		@ link register save eliminated.
 225:main.c        **** 
 277              		.loc 1 225 0
 278 0000 014B     		ldr	r3, .L30
 279 0002 1869     		ldr	r0, [r3, #16]
 280 0004 7047     		bx	lr
 281              	.L31:
 282 0006 00BF     		.align	2
 283              	.L30:
 284 0008 00000000 		.word	.LANCHOR0
 285              		.cfi_endproc
 286              	.LFE71:
 287              		.size	Button_S5_Select, .-Button_S5_Select
 288              		.section	.text.MetricLedOn,"ax",%progbits
 289              		.align	2
 290              		.global	MetricLedOn
 291              		.thumb
 292              		.thumb_func
 293              		.type	MetricLedOn, %function
 294              	MetricLedOn:
 295              	.LFB76:
 417:main.c        ****     LED2_Yellow_Write(0);
 296              		.loc 1 417 0
 297              		.cfi_startproc
 298              		@ args = 0, pretend = 0, frame = 0
 299              		@ frame_needed = 0, uses_anonymous_args = 0
 300 0000 08B5     		push	{r3, lr}
 301              		.cfi_def_cfa_offset 8
 302              		.cfi_offset 3, -8
 303              		.cfi_offset 14, -4
 418:main.c        ****     LED3_Green_Write(1);
 304              		.loc 1 418 0
 305 0002 0020     		movs	r0, #0
 306 0004 FFF7FEFF 		bl	LED2_Yellow_Write
 307              	.LVL3:
 419:main.c        **** }
ARM GAS  C:\Users\ANDREW~1\AppData\Local\Temp\ccsv3i4f.s 			page 17


 308              		.loc 1 419 0
 309 0008 0120     		movs	r0, #1
 310 000a FFF7FEFF 		bl	LED3_Green_Write
 311              	.LVL4:
 312 000e 08BD     		pop	{r3, pc}
 313              		.cfi_endproc
 314              	.LFE76:
 315              		.size	MetricLedOn, .-MetricLedOn
 316              		.section	.text.ImperialLedOn,"ax",%progbits
 317              		.align	2
 318              		.global	ImperialLedOn
 319              		.thumb
 320              		.thumb_func
 321              		.type	ImperialLedOn, %function
 322              	ImperialLedOn:
 323              	.LFB77:
 423:main.c        ****     LED3_Green_Write(0);
 324              		.loc 1 423 0
 325              		.cfi_startproc
 326              		@ args = 0, pretend = 0, frame = 0
 327              		@ frame_needed = 0, uses_anonymous_args = 0
 328 0000 08B5     		push	{r3, lr}
 329              		.cfi_def_cfa_offset 8
 330              		.cfi_offset 3, -8
 331              		.cfi_offset 14, -4
 424:main.c        ****     LED2_Yellow_Write(1);
 332              		.loc 1 424 0
 333 0002 0020     		movs	r0, #0
 334 0004 FFF7FEFF 		bl	LED3_Green_Write
 335              	.LVL5:
 425:main.c        **** 
 336              		.loc 1 425 0
 337 0008 0120     		movs	r0, #1
 338 000a FFF7FEFF 		bl	LED2_Yellow_Write
 339              	.LVL6:
 340 000e 08BD     		pop	{r3, pc}
 341              		.cfi_endproc
 342              	.LFE77:
 343              		.size	ImperialLedOn, .-ImperialLedOn
 344              		.global	__aeabi_ui2d
 345              		.global	__aeabi_ddiv
 346              		.section	.text.current_second,"ax",%progbits
 347              		.align	2
 348              		.global	current_second
 349              		.thumb
 350              		.thumb_func
 351              		.type	current_second, %function
 352              	current_second:
 353              	.LFB81:
 455:main.c        ****     double time = (double)(Timer_2_ReadPeriod()-Timer_2_ReadCounter());
 354              		.loc 1 455 0
 355              		.cfi_startproc
 356              		@ args = 0, pretend = 0, frame = 0
 357              		@ frame_needed = 0, uses_anonymous_args = 0
 358 0000 10B5     		push	{r4, lr}
 359              		.cfi_def_cfa_offset 8
 360              		.cfi_offset 4, -8
ARM GAS  C:\Users\ANDREW~1\AppData\Local\Temp\ccsv3i4f.s 			page 18


 361              		.cfi_offset 14, -4
 456:main.c        ****     time = time/1000;
 362              		.loc 1 456 0
 363 0002 FFF7FEFF 		bl	Timer_2_ReadPeriod
 364              	.LVL7:
 365 0006 0446     		mov	r4, r0
 366 0008 FFF7FEFF 		bl	Timer_2_ReadCounter
 367              	.LVL8:
 368 000c 201A     		subs	r0, r4, r0
 369 000e FFF7FEFF 		bl	__aeabi_ui2d
 370              	.LVL9:
 457:main.c        ****     
 371              		.loc 1 457 0
 372 0012 0022     		movs	r2, #0
 373 0014 014B     		ldr	r3, .L38
 374 0016 FFF7FEFF 		bl	__aeabi_ddiv
 375              	.LVL10:
 460:main.c        **** // ================================================================================================
 376              		.loc 1 460 0
 377 001a 10BD     		pop	{r4, pc}
 378              	.L39:
 379              		.align	2
 380              	.L38:
 381 001c 00408F40 		.word	1083129856
 382              		.cfi_endproc
 383              	.LFE81:
 384              		.size	current_second, .-current_second
 385              		.section	.text.print_uart,"ax",%progbits
 386              		.align	2
 387              		.global	print_uart
 388              		.thumb
 389              		.thumb_func
 390              		.type	print_uart, %function
 391              	print_uart:
 392              	.LFB82:
 514:main.c        ****     int num_digits = 0;
 393              		.loc 1 514 0
 394              		.cfi_startproc
 395              		@ args = 0, pretend = 0, frame = 0
 396              		@ frame_needed = 0, uses_anonymous_args = 0
 397              	.LVL11:
 398 0000 38B5     		push	{r3, r4, r5, lr}
 399              		.cfi_def_cfa_offset 16
 400              		.cfi_offset 3, -16
 401              		.cfi_offset 4, -12
 402              		.cfi_offset 5, -8
 403              		.cfi_offset 14, -4
 404              	.LVL12:
 516:main.c        ****     
 405              		.loc 1 516 0
 406 0002 0346     		mov	r3, r0
 515:main.c        ****     int temp = num;
 407              		.loc 1 515 0
 408 0004 0025     		movs	r5, #0
 519:main.c        ****         temp /= 10;
 409              		.loc 1 519 0
 410 0006 06E0     		b	.L41
ARM GAS  C:\Users\ANDREW~1\AppData\Local\Temp\ccsv3i4f.s 			page 19


 411              	.LVL13:
 412              	.L42:
 520:main.c        ****         num_digits++;
 413              		.loc 1 520 0
 414 0008 154A     		ldr	r2, .L48
 415 000a 82FB0312 		smull	r1, r2, r2, r3
 416 000e DB17     		asrs	r3, r3, #31
 417              	.LVL14:
 418 0010 C3EBA203 		rsb	r3, r3, r2, asr #2
 419              	.LVL15:
 521:main.c        ****     }
 420              		.loc 1 521 0
 421 0014 0135     		adds	r5, r5, #1
 422              	.LVL16:
 423              	.L41:
 519:main.c        ****         temp /= 10;
 424              		.loc 1 519 0
 425 0016 002B     		cmp	r3, #0
 426 0018 F6D1     		bne	.L42
 427              	.LBB2:
 524:main.c        ****         value_text[i] = num % 10;
 428              		.loc 1 524 0
 429 001a 6A1E     		subs	r2, r5, #1
 430              	.LVL17:
 431 001c 0EE0     		b	.L43
 432              	.LVL18:
 433              	.L44:
 525:main.c        ****         num /= 10;
 434              		.loc 1 525 0 discriminator 3
 435 001e 104B     		ldr	r3, .L48
 436 0020 83FB0031 		smull	r3, r1, r3, r0
 437 0024 C317     		asrs	r3, r0, #31
 438 0026 C3EBA103 		rsb	r3, r3, r1, asr #2
 439 002a 1C46     		mov	r4, r3
 440 002c 03EB8303 		add	r3, r3, r3, lsl #2
 441 0030 5900     		lsls	r1, r3, #1
 442 0032 431A     		subs	r3, r0, r1
 443 0034 0B49     		ldr	r1, .L48+4
 444 0036 8B54     		strb	r3, [r1, r2]
 526:main.c        ****     }
 445              		.loc 1 526 0 discriminator 3
 446 0038 2046     		mov	r0, r4
 447              	.LVL19:
 524:main.c        ****         value_text[i] = num % 10;
 448              		.loc 1 524 0 discriminator 3
 449 003a 013A     		subs	r2, r2, #1
 450              	.LVL20:
 451              	.L43:
 524:main.c        ****         value_text[i] = num % 10;
 452              		.loc 1 524 0 is_stmt 0 discriminator 1
 453 003c 002A     		cmp	r2, #0
 454 003e EEDA     		bge	.L44
 455 0040 0024     		movs	r4, #0
 456 0042 09E0     		b	.L45
 457              	.LVL21:
 458              	.L46:
 459              	.LBE2:
ARM GAS  C:\Users\ANDREW~1\AppData\Local\Temp\ccsv3i4f.s 			page 20


 460              	.LBB3:
 530:main.c        ****         CyDelay(5);
 461              		.loc 1 530 0 is_stmt 1 discriminator 3
 462 0044 074B     		ldr	r3, .L48+4
 463 0046 185D     		ldrb	r0, [r3, r4]	@ zero_extendqisi2
 464 0048 3030     		adds	r0, r0, #48
 465 004a C0B2     		uxtb	r0, r0
 466 004c FFF7FEFF 		bl	UART_1_WriteTxData
 467              	.LVL22:
 531:main.c        ****     }
 468              		.loc 1 531 0 discriminator 3
 469 0050 0520     		movs	r0, #5
 470 0052 FFF7FEFF 		bl	CyDelay
 471              	.LVL23:
 529:main.c        ****         UART_1_WriteTxData(value_text[i]+0x30); //display number
 472              		.loc 1 529 0 discriminator 3
 473 0056 0134     		adds	r4, r4, #1
 474              	.LVL24:
 475              	.L45:
 529:main.c        ****         UART_1_WriteTxData(value_text[i]+0x30); //display number
 476              		.loc 1 529 0 is_stmt 0 discriminator 1
 477 0058 A542     		cmp	r5, r4
 478 005a F3DC     		bgt	.L46
 479              	.LBE3:
 534:main.c        **** 
 480              		.loc 1 534 0 is_stmt 1
 481 005c 38BD     		pop	{r3, r4, r5, pc}
 482              	.LVL25:
 483              	.L49:
 484 005e 00BF     		.align	2
 485              	.L48:
 486 0060 67666666 		.word	1717986919
 487 0064 00000000 		.word	value_text
 488              		.cfi_endproc
 489              	.LFE82:
 490              		.size	print_uart, .-print_uart
 491              		.section	.text.BuzzerSound,"ax",%progbits
 492              		.align	2
 493              		.global	BuzzerSound
 494              		.thumb
 495              		.thumb_func
 496              		.type	BuzzerSound, %function
 497              	BuzzerSound:
 498              	.LFB83:
 539:main.c        ****     previous_buzz = current_second();
 499              		.loc 1 539 0
 500              		.cfi_startproc
 501              		@ args = 0, pretend = 0, frame = 0
 502              		@ frame_needed = 0, uses_anonymous_args = 0
 503              	.LVL26:
 504 0000 38B5     		push	{r3, r4, r5, lr}
 505              		.cfi_def_cfa_offset 16
 506              		.cfi_offset 3, -16
 507              		.cfi_offset 4, -12
 508              		.cfi_offset 5, -8
 509              		.cfi_offset 14, -4
 510 0002 0446     		mov	r4, r0
ARM GAS  C:\Users\ANDREW~1\AppData\Local\Temp\ccsv3i4f.s 			page 21


 511 0004 0D46     		mov	r5, r1
 540:main.c        ****     buzz_duration= duration;
 512              		.loc 1 540 0
 513 0006 FFF7FEFF 		bl	current_second
 514              	.LVL27:
 515 000a 034B     		ldr	r3, .L52
 516 000c C3E90201 		strd	r0, [r3, #8]
 541:main.c        **** }
 517              		.loc 1 541 0
 518 0010 C3E90445 		strd	r4, [r3, #16]
 519 0014 38BD     		pop	{r3, r4, r5, pc}
 520              	.L53:
 521 0016 00BF     		.align	2
 522              	.L52:
 523 0018 00000000 		.word	.LANCHOR1
 524              		.cfi_endproc
 525              	.LFE83:
 526              		.size	BuzzerSound, .-BuzzerSound
 527              		.global	__aeabi_dsub
 528              		.global	__aeabi_dcmplt
 529              		.section	.text.BuzzerRuntime,"ax",%progbits
 530              		.align	2
 531              		.global	BuzzerRuntime
 532              		.thumb
 533              		.thumb_func
 534              		.type	BuzzerRuntime, %function
 535              	BuzzerRuntime:
 536              	.LFB84:
 544:main.c        ****     double time_diff = current_second()-previous_buzz;
 537              		.loc 1 544 0
 538              		.cfi_startproc
 539              		@ args = 0, pretend = 0, frame = 0
 540              		@ frame_needed = 0, uses_anonymous_args = 0
 541              	.LVL28:
 542 0000 38B5     		push	{r3, r4, r5, lr}
 543              		.cfi_def_cfa_offset 16
 544              		.cfi_offset 3, -16
 545              		.cfi_offset 4, -12
 546              		.cfi_offset 5, -8
 547              		.cfi_offset 14, -4
 548 0002 0446     		mov	r4, r0
 549 0004 0D46     		mov	r5, r1
 545:main.c        ****     
 550              		.loc 1 545 0
 551 0006 FFF7FEFF 		bl	current_second
 552              	.LVL29:
 553 000a 094B     		ldr	r3, .L61
 554 000c D3E90223 		ldrd	r2, [r3, #8]
 555 0010 FFF7FEFF 		bl	__aeabi_dsub
 556              	.LVL30:
 547:main.c        ****     else Buzzer_Write(1); // Turn off buzzer
 557              		.loc 1 547 0
 558 0014 2246     		mov	r2, r4
 559 0016 2B46     		mov	r3, r5
 560 0018 FFF7FEFF 		bl	__aeabi_dcmplt
 561              	.LVL31:
 562 001c 18B1     		cbz	r0, .L59
ARM GAS  C:\Users\ANDREW~1\AppData\Local\Temp\ccsv3i4f.s 			page 22


 547:main.c        ****     else Buzzer_Write(1); // Turn off buzzer
 563              		.loc 1 547 0 is_stmt 0 discriminator 1
 564 001e 0020     		movs	r0, #0
 565 0020 FFF7FEFF 		bl	Buzzer_Write
 566              	.LVL32:
 567 0024 38BD     		pop	{r3, r4, r5, pc}
 568              	.L59:
 548:main.c        **** }
 569              		.loc 1 548 0 is_stmt 1
 570 0026 0120     		movs	r0, #1
 571 0028 FFF7FEFF 		bl	Buzzer_Write
 572              	.LVL33:
 573 002c 38BD     		pop	{r3, r4, r5, pc}
 574              	.L62:
 575 002e 00BF     		.align	2
 576              	.L61:
 577 0030 00000000 		.word	.LANCHOR1
 578              		.cfi_endproc
 579              	.LFE84:
 580              		.size	BuzzerRuntime, .-BuzzerRuntime
 581              		.section	.text.send_ultra_pulse,"ax",%progbits
 582              		.align	2
 583              		.global	send_ultra_pulse
 584              		.thumb
 585              		.thumb_func
 586              		.type	send_ultra_pulse, %function
 587              	send_ultra_pulse:
 588              	.LFB86:
 570:main.c        ****     Control_Reg_1_Write(1); // Reset counter to do more pulses
 589              		.loc 1 570 0
 590              		.cfi_startproc
 591              		@ args = 0, pretend = 0, frame = 0
 592              		@ frame_needed = 0, uses_anonymous_args = 0
 593 0000 08B5     		push	{r3, lr}
 594              		.cfi_def_cfa_offset 8
 595              		.cfi_offset 3, -8
 596              		.cfi_offset 14, -4
 571:main.c        ****     Timer_1_Start();        // Start receiver timer
 597              		.loc 1 571 0
 598 0002 0120     		movs	r0, #1
 599 0004 FFF7FEFF 		bl	Control_Reg_1_Write
 600              	.LVL34:
 572:main.c        ****     Control_Reg_1_Write(0);
 601              		.loc 1 572 0
 602 0008 FFF7FEFF 		bl	Timer_1_Start
 603              	.LVL35:
 573:main.c        **** }
 604              		.loc 1 573 0
 605 000c 0020     		movs	r0, #0
 606 000e FFF7FEFF 		bl	Control_Reg_1_Write
 607              	.LVL36:
 608 0012 08BD     		pop	{r3, pc}
 609              		.cfi_endproc
 610              	.LFE86:
 611              		.size	send_ultra_pulse, .-send_ultra_pulse
 612              		.global	__aeabi_i2d
 613              		.global	__aeabi_dmul
ARM GAS  C:\Users\ANDREW~1\AppData\Local\Temp\ccsv3i4f.s 			page 23


 614              		.section	.text.ultra_reading,"ax",%progbits
 615              		.align	2
 616              		.global	ultra_reading
 617              		.thumb
 618              		.thumb_func
 619              		.type	ultra_reading, %function
 620              	ultra_reading:
 621              	.LFB85:
 560:main.c        ****     send_ultra_pulse();
 622              		.loc 1 560 0
 623              		.cfi_startproc
 624              		@ args = 0, pretend = 0, frame = 0
 625              		@ frame_needed = 0, uses_anonymous_args = 0
 626 0000 10B5     		push	{r4, lr}
 627              		.cfi_def_cfa_offset 8
 628              		.cfi_offset 4, -8
 629              		.cfi_offset 14, -4
 561:main.c        ****     
 630              		.loc 1 561 0
 631 0002 FFF7FEFF 		bl	send_ultra_pulse
 632              	.LVL37:
 564:main.c        ****     distance = (34*value)/2;
 633              		.loc 1 564 0
 634 0006 104C     		ldr	r4, .L67+8
 635 0008 6068     		ldr	r0, [r4, #4]
 636 000a FFF7FEFF 		bl	__aeabi_i2d
 637              	.LVL38:
 638 000e 0CA3     		adr	r3, .L67
 639 0010 D3E90023 		ldrd	r2, [r3]
 640 0014 FFF7FEFF 		bl	__aeabi_ddiv
 641              	.LVL39:
 642 0018 0022     		movs	r2, #0
 643 001a 0C4B     		ldr	r3, .L67+12
 644 001c FFF7FEFF 		bl	__aeabi_dsub
 645              	.LVL40:
 646 0020 C4E90601 		strd	r0, [r4, #24]
 565:main.c        ****     
 647              		.loc 1 565 0
 648 0024 0022     		movs	r2, #0
 649 0026 0A4B     		ldr	r3, .L67+16
 650 0028 FFF7FEFF 		bl	__aeabi_dmul
 651              	.LVL41:
 652 002c 0022     		movs	r2, #0
 653 002e 074B     		ldr	r3, .L67+12
 654 0030 FFF7FEFF 		bl	__aeabi_dmul
 655              	.LVL42:
 656 0034 C4E90801 		strd	r0, [r4, #32]
 568:main.c        **** void send_ultra_pulse()
 657              		.loc 1 568 0
 658 0038 10BD     		pop	{r4, pc}
 659              	.L68:
 660 003a 00BFAFF3 		.align	3
 660      0080
 661              	.L67:
 662 0040 00000000 		.word	0
 663 0044 0088C340 		.word	1086556160
 664 0048 00000000 		.word	.LANCHOR1
ARM GAS  C:\Users\ANDREW~1\AppData\Local\Temp\ccsv3i4f.s 			page 24


 665 004c 0000E03F 		.word	1071644672
 666 0050 00004140 		.word	1078001664
 667              		.cfi_endproc
 668              	.LFE85:
 669              		.size	ultra_reading, .-ultra_reading
 670              		.section	.text.display_num,"ax",%progbits
 671              		.align	2
 672              		.global	display_num
 673              		.thumb
 674              		.thumb_func
 675              		.type	display_num, %function
 676              	display_num:
 677              	.LFB89:
 594:main.c        **** }
 595:main.c        **** 
 596:main.c        **** double old_dis_val=0;
 597:main.c        **** 
 598:main.c        **** int D[4]= {0,0,0,0};
 599:main.c        **** int dp[4]={0,0,0,0};
 600:main.c        **** unsigned long count = 0;
 601:main.c        **** 
 602:main.c        **** void display_num(double value)
 603:main.c        **** {
 678              		.loc 1 603 0
 679              		.cfi_startproc
 680              		@ args = 0, pretend = 0, frame = 0
 681              		@ frame_needed = 0, uses_anonymous_args = 0
 682              		@ link register save eliminated.
 683              	.LVL43:
 604:main.c        ****     seg_num = value;
 684              		.loc 1 604 0
 685 0000 014B     		ldr	r3, .L70
 686 0002 C3E90A01 		strd	r0, [r3, #40]
 687 0006 7047     		bx	lr
 688              	.L71:
 689              		.align	2
 690              	.L70:
 691 0008 00000000 		.word	.LANCHOR1
 692              		.cfi_endproc
 693              	.LFE89:
 694              		.size	display_num, .-display_num
 695              		.section	.text.draw_7Seg,"ax",%progbits
 696              		.align	2
 697              		.global	draw_7Seg
 698              		.thumb
 699              		.thumb_func
 700              		.type	draw_7Seg, %function
 701              	draw_7Seg:
 702              	.LFB91:
 605:main.c        **** }
 606:main.c        **** void seg_runtime(double value){
 607:main.c        ****       
 608:main.c        ****     if (run_7_Seg==0) return; // Ignore the rest of the code when interrupt is not triggered
 609:main.c        ****     
 610:main.c        ****     if(value>0)
 611:main.c        ****     {
 612:main.c        ****     
ARM GAS  C:\Users\ANDREW~1\AppData\Local\Temp\ccsv3i4f.s 			page 25


 613:main.c        ****         //////////////// Code after this would only run once per interrupt////////////////
 614:main.c        ****         // Only update the value when it gets a new value (for consistency and save computation for
 615:main.c        ****         if((value != old_dis_val)){ 
 616:main.c        ****             // Convert double to d1,d2,d3,d4,dp_pos
 617:main.c        ****             int dp_pos = 0;
 618:main.c        ****             
 619:main.c        ****             if (value>=1){ // For values above 1
 620:main.c        ****             while(value<1000){
 621:main.c        ****                 value=value*10;
 622:main.c        ****                  dp_pos+=1;
 623:main.c        ****             }
 624:main.c        ****                     
 625:main.c        ****             // Extract integer and decimal parts
 626:main.c        ****             int digits = (int)value;
 627:main.c        ****                     
 628:main.c        ****             D[0] = (int)(digits/1000)%10;
 629:main.c        ****             D[1] = (int)(digits/100)%10;
 630:main.c        ****             D[2] = (int)(digits/10)%10;
 631:main.c        ****             D[3] = (int)(digits/1) %10;
 632:main.c        ****             }
 633:main.c        ****             else { //For below 1, fix decimal point to always show 4 significant figure (eg. 0.900,
 634:main.c        ****             dp_pos=3;
 635:main.c        ****             int digits = (int) (value*1000);
 636:main.c        ****                     
 637:main.c        ****             D[0] = (int)(digits/1000)%10;
 638:main.c        ****             D[1] = (int)(digits/100)%10;
 639:main.c        ****             D[2] = (int)(digits/10)%10;
 640:main.c        ****             D[3] = (int)(digits/1) %10;
 641:main.c        ****             }
 642:main.c        ****             
 643:main.c        ****         ////////////////////////////////////////////
 644:main.c        ****         // fill each segments of the display
 645:main.c        ****         for (int i = 0; i < 4; ++i) dp[i] = 0; // Reset all 0 
 646:main.c        ****             dp[dp_pos]=1;
 647:main.c        ****                 
 648:main.c        ****             old_dis_val = value;
 649:main.c        ****         }
 650:main.c        ****             
 651:main.c        ****     }
 652:main.c        ****     else if(value==0)
 653:main.c        ****     {
 654:main.c        ****         D[0] = 0; //C
 655:main.c        ****         D[1] = 0; //E
 656:main.c        ****         D[2] = 0; //N
 657:main.c        ****         D[3] = 0; //t
 658:main.c        ****     }
 659:main.c        ****     
 660:main.c        ****     else if(value== -1) //Show cm icon
 661:main.c        ****     {
 662:main.c        ****         D[0] = 15; //C
 663:main.c        ****         D[1] = 16; //E
 664:main.c        ****         D[2] = 18; //N
 665:main.c        ****         D[3] = 17; //t
 666:main.c        ****     }
 667:main.c        ****     else if(value== -2) //Show inch icon
 668:main.c        ****     {
 669:main.c        ****         D[0] = 13; //i 
ARM GAS  C:\Users\ANDREW~1\AppData\Local\Temp\ccsv3i4f.s 			page 26


 670:main.c        ****         D[1] = 12; //n 
 671:main.c        ****         D[2] = 11; //c
 672:main.c        ****         D[3] = 14; //h
 673:main.c        ****         
 674:main.c        ****     }
 675:main.c        ****     else if(value== -3) // Dot
 676:main.c        ****     {
 677:main.c        ****         D[0] = 10; //space
 678:main.c        ****         D[1] = 10; //space
 679:main.c        ****         D[2] = 10; //space
 680:main.c        ****         D[3] = 10; //space
 681:main.c        ****         dp[1]=1;
 682:main.c        ****     }
 683:main.c        ****     else if(value== -4) // Nothing
 684:main.c        ****     {
 685:main.c        ****         D[0] = 10; //space
 686:main.c        ****         D[1] = 10; //space
 687:main.c        ****         D[2] = 10; //space
 688:main.c        ****         D[3] = 10; //space
 689:main.c        ****     }
 690:main.c        ****     else // reserve for startup
 691:main.c        ****     {
 692:main.c        ****         D[0] = 10; //space
 693:main.c        ****         D[1] = 10; //space
 694:main.c        ****         D[2] = 10; //space
 695:main.c        ****         D[3] = 10; //space
 696:main.c        ****         
 697:main.c        ****         if(value ==-5) D[0] = 8; 
 698:main.c        ****         if(value ==-6) D[1] = 8; 
 699:main.c        ****         if(value ==-7) D[2] = 8; 
 700:main.c        ****         if(value ==-8) D[3] = 8; 
 701:main.c        ****     }
 702:main.c        ****     
 703:main.c        ****         
 704:main.c        ****     
 705:main.c        ****     
 706:main.c        ****     // Loop through each display each time we run 7_seg display function
 707:main.c        ****     count++;
 708:main.c        ****     count = count %4; //limit count between 0 to 3
 709:main.c        ****         
 710:main.c        ****     // Turn off all sections
 711:main.c        ****     Dis_D1_Write(1);
 712:main.c        ****     Dis_D2_Write(1);
 713:main.c        ****     Dis_D3_Write(1);
 714:main.c        ****     Dis_D4_Write(1);
 715:main.c        ****         
 716:main.c        ****     // Update to show a specific value
 717:main.c        ****     draw_7Seg(D[count],dp[3-count]);
 718:main.c        ****         
 719:main.c        ****     // Only show on specified section
 720:main.c        ****     if     (count==0)Dis_D1_Write(0);
 721:main.c        ****     else if(count==1)Dis_D2_Write(0);
 722:main.c        ****     else if(count==2)Dis_D3_Write(0);
 723:main.c        ****     else if(count==3)Dis_D4_Write(0);
 724:main.c        ****         
 725:main.c        ****     run_7_Seg =0;
 726:main.c        ****     
ARM GAS  C:\Users\ANDREW~1\AppData\Local\Temp\ccsv3i4f.s 			page 27


 727:main.c        **** }
 728:main.c        **** 
 729:main.c        **** // ================================================================================================
 730:main.c        **** /* Low level 7 segment display conversion code*/
 731:main.c        **** // Lookup table for 0 to 9
 732:main.c        **** const char charLookup[][8] = {
 733:main.c        ****   "1111110", // 0
 734:main.c        ****   "0110000", // 1
 735:main.c        ****   "1101101", // 2
 736:main.c        ****   "1111001", // 3
 737:main.c        ****   "0110011", // 4
 738:main.c        ****   "1011011", // 5
 739:main.c        ****   "1011111", // 6
 740:main.c        ****   "1110000", // 7
 741:main.c        ****   "1111111", // 8
 742:main.c        ****   "1111011", // 9
 743:main.c        ****   "0000000", // Space - 10
 744:main.c        ****   "0001101", // c -11
 745:main.c        ****   "0010101", // n -12
 746:main.c        ****   "0010000", // i -13
 747:main.c        ****   "0010111", // h -14
 748:main.c        ****   "1001110", // big C -15
 749:main.c        ****   "1001111", // big E -16
 750:main.c        ****   "0001111", // t -17
 751:main.c        ****   "1110110", // big N -18
 752:main.c        **** };
 753:main.c        **** 
 754:main.c        **** // update pins to show a specific number and turn on the decimal point if required
 755:main.c        **** int segmentPattern_array[7];  // Array to store the converted 1s and 0s (7 elements for 7 segments)
 756:main.c        **** void draw_7Seg(int number,int dp)
 757:main.c        **** {
 703              		.loc 1 757 0
 704              		.cfi_startproc
 705              		@ args = 0, pretend = 0, frame = 0
 706              		@ frame_needed = 0, uses_anonymous_args = 0
 707              	.LVL44:
 708 0000 38B5     		push	{r3, r4, r5, lr}
 709              		.cfi_def_cfa_offset 16
 710              		.cfi_offset 3, -16
 711              		.cfi_offset 4, -12
 712              		.cfi_offset 5, -8
 713              		.cfi_offset 14, -4
 714 0002 0D46     		mov	r5, r1
 758:main.c        ****     const char* segmentPattern = charLookup[number];
 715              		.loc 1 758 0
 716 0004 1E4B     		ldr	r3, .L76
 717 0006 03EBC000 		add	r0, r3, r0, lsl #3
 718              	.LVL45:
 719              	.LBB4:
 759:main.c        ****     
 760:main.c        ****     // Convert string to integer
 761:main.c        ****     for (int i = 0; i < 7; i++) {
 720              		.loc 1 761 0
 721 000a 0023     		movs	r3, #0
 722 000c 05E0     		b	.L73
 723              	.LVL46:
 724              	.L74:
ARM GAS  C:\Users\ANDREW~1\AppData\Local\Temp\ccsv3i4f.s 			page 28


 762:main.c        ****         segmentPattern_array[i] = segmentPattern[i]-'0';
 725              		.loc 1 762 0 discriminator 3
 726 000e C25C     		ldrb	r2, [r0, r3]	@ zero_extendqisi2
 727 0010 303A     		subs	r2, r2, #48
 728 0012 1C49     		ldr	r1, .L76+4
 729 0014 41F82320 		str	r2, [r1, r3, lsl #2]
 761:main.c        ****         segmentPattern_array[i] = segmentPattern[i]-'0';
 730              		.loc 1 761 0 discriminator 3
 731 0018 0133     		adds	r3, r3, #1
 732              	.LVL47:
 733              	.L73:
 761:main.c        ****         segmentPattern_array[i] = segmentPattern[i]-'0';
 734              		.loc 1 761 0 is_stmt 0 discriminator 1
 735 001a 062B     		cmp	r3, #6
 736 001c F7DD     		ble	.L74
 737              	.LBE4:
 763:main.c        ****     }
 764:main.c        ****     
 765:main.c        ****     Dis_A_Write(!segmentPattern_array[0]);
 738              		.loc 1 765 0 is_stmt 1
 739 001e 194C     		ldr	r4, .L76+4
 740 0020 2068     		ldr	r0, [r4]
 741              	.LVL48:
 742 0022 B0FA80F0 		clz	r0, r0
 743 0026 4009     		lsrs	r0, r0, #5
 744 0028 FFF7FEFF 		bl	Dis_A_Write
 745              	.LVL49:
 766:main.c        ****     Dis_B_Write(!segmentPattern_array[1]);
 746              		.loc 1 766 0
 747 002c 6068     		ldr	r0, [r4, #4]
 748 002e B0FA80F0 		clz	r0, r0
 749 0032 4009     		lsrs	r0, r0, #5
 750 0034 FFF7FEFF 		bl	Dis_B_Write
 751              	.LVL50:
 767:main.c        ****     Dis_C_Write(!segmentPattern_array[2]);
 752              		.loc 1 767 0
 753 0038 A068     		ldr	r0, [r4, #8]
 754 003a B0FA80F0 		clz	r0, r0
 755 003e 4009     		lsrs	r0, r0, #5
 756 0040 FFF7FEFF 		bl	Dis_C_Write
 757              	.LVL51:
 768:main.c        ****     Dis_D_Write(!segmentPattern_array[3]);
 758              		.loc 1 768 0
 759 0044 E068     		ldr	r0, [r4, #12]
 760 0046 B0FA80F0 		clz	r0, r0
 761 004a 4009     		lsrs	r0, r0, #5
 762 004c FFF7FEFF 		bl	Dis_D_Write
 763              	.LVL52:
 769:main.c        ****     Dis_E_Write(!segmentPattern_array[4]);
 764              		.loc 1 769 0
 765 0050 2069     		ldr	r0, [r4, #16]
 766 0052 B0FA80F0 		clz	r0, r0
 767 0056 4009     		lsrs	r0, r0, #5
 768 0058 FFF7FEFF 		bl	Dis_E_Write
 769              	.LVL53:
 770:main.c        ****     Dis_F_Write(!segmentPattern_array[5]);
 770              		.loc 1 770 0
ARM GAS  C:\Users\ANDREW~1\AppData\Local\Temp\ccsv3i4f.s 			page 29


 771 005c 6069     		ldr	r0, [r4, #20]
 772 005e B0FA80F0 		clz	r0, r0
 773 0062 4009     		lsrs	r0, r0, #5
 774 0064 FFF7FEFF 		bl	Dis_F_Write
 775              	.LVL54:
 771:main.c        ****     Dis_G_Write(!segmentPattern_array[6]);
 776              		.loc 1 771 0
 777 0068 A069     		ldr	r0, [r4, #24]
 778 006a B0FA80F0 		clz	r0, r0
 779 006e 4009     		lsrs	r0, r0, #5
 780 0070 FFF7FEFF 		bl	Dis_G_Write
 781              	.LVL55:
 772:main.c        ****     Dis_DP_Write(!dp);
 782              		.loc 1 772 0
 783 0074 B5FA85F0 		clz	r0, r5
 784 0078 4009     		lsrs	r0, r0, #5
 785 007a FFF7FEFF 		bl	Dis_DP_Write
 786              	.LVL56:
 787 007e 38BD     		pop	{r3, r4, r5, pc}
 788              	.LVL57:
 789              	.L77:
 790              		.align	2
 791              	.L76:
 792 0080 00000000 		.word	.LANCHOR2
 793 0084 00000000 		.word	segmentPattern_array
 794              		.cfi_endproc
 795              	.LFE91:
 796              		.size	draw_7Seg, .-draw_7Seg
 797              		.global	__aeabi_dcmpgt
 798              		.global	__aeabi_dcmpeq
 799              		.global	__aeabi_dcmpge
 800              		.global	__aeabi_d2iz
 801              		.section	.text.seg_runtime,"ax",%progbits
 802              		.align	2
 803              		.global	seg_runtime
 804              		.thumb
 805              		.thumb_func
 806              		.type	seg_runtime, %function
 807              	seg_runtime:
 808              	.LFB90:
 606:main.c        ****       
 809              		.loc 1 606 0
 810              		.cfi_startproc
 811              		@ args = 0, pretend = 0, frame = 0
 812              		@ frame_needed = 0, uses_anonymous_args = 0
 813              	.LVL58:
 814 0000 F8B5     		push	{r3, r4, r5, r6, r7, lr}
 815              		.cfi_def_cfa_offset 24
 816              		.cfi_offset 3, -24
 817              		.cfi_offset 4, -20
 818              		.cfi_offset 5, -16
 819              		.cfi_offset 6, -12
 820              		.cfi_offset 7, -8
 821              		.cfi_offset 14, -4
 608:main.c        ****     
 822              		.loc 1 608 0
 823 0002 B44B     		ldr	r3, .L131
ARM GAS  C:\Users\ANDREW~1\AppData\Local\Temp\ccsv3i4f.s 			page 30


 824 0004 1B68     		ldr	r3, [r3]
 825 0006 002B     		cmp	r3, #0
 826 0008 00F08881 		beq	.L78
 827 000c 0446     		mov	r4, r0
 828 000e 0D46     		mov	r5, r1
 610:main.c        ****     {
 829              		.loc 1 610 0
 830 0010 0022     		movs	r2, #0
 831 0012 0023     		movs	r3, #0
 832 0014 FFF7FEFF 		bl	__aeabi_dcmpgt
 833              	.LVL59:
 834 0018 0028     		cmp	r0, #0
 835 001a 00F0AE80 		beq	.L123
 615:main.c        ****             // Convert double to d1,d2,d3,d4,dp_pos
 836              		.loc 1 615 0
 837 001e AD4B     		ldr	r3, .L131
 838 0020 D3E90C23 		ldrd	r2, [r3, #48]
 839 0024 2046     		mov	r0, r4
 840 0026 2946     		mov	r1, r5
 841 0028 FFF7FEFF 		bl	__aeabi_dcmpeq
 842              	.LVL60:
 843 002c 0028     		cmp	r0, #0
 844 002e 40F02181 		bne	.L82
 845              	.LVL61:
 846              	.LBB5:
 619:main.c        ****             while(value<1000){
 847              		.loc 1 619 0
 848 0032 0022     		movs	r2, #0
 849 0034 A84B     		ldr	r3, .L131+4
 850 0036 2046     		mov	r0, r4
 851 0038 2946     		mov	r1, r5
 852 003a FFF7FEFF 		bl	__aeabi_dcmpge
 853              	.LVL62:
 854 003e 50B9     		cbnz	r0, .L111
 855 0040 4CE0     		b	.L124
 856              	.LVL63:
 857              	.L86:
 858              	.LBB6:
 621:main.c        ****                  dp_pos+=1;
 859              		.loc 1 621 0
 860 0042 0022     		movs	r2, #0
 861 0044 A54B     		ldr	r3, .L131+8
 862 0046 2046     		mov	r0, r4
 863 0048 2946     		mov	r1, r5
 864 004a FFF7FEFF 		bl	__aeabi_dmul
 865              	.LVL64:
 866 004e 0446     		mov	r4, r0
 867              	.LVL65:
 868 0050 0D46     		mov	r5, r1
 869              	.LVL66:
 622:main.c        ****             }
 870              		.loc 1 622 0
 871 0052 0136     		adds	r6, r6, #1
 872              	.LVL67:
 873 0054 00E0     		b	.L84
 874              	.LVL68:
 875              	.L111:
ARM GAS  C:\Users\ANDREW~1\AppData\Local\Temp\ccsv3i4f.s 			page 31


 876              	.LBE6:
 877 0056 0026     		movs	r6, #0
 878              	.LVL69:
 879              	.L84:
 880              	.LBB7:
 620:main.c        ****                 value=value*10;
 881              		.loc 1 620 0
 882 0058 0022     		movs	r2, #0
 883 005a A14B     		ldr	r3, .L131+12
 884 005c 2046     		mov	r0, r4
 885 005e 2946     		mov	r1, r5
 886 0060 FFF7FEFF 		bl	__aeabi_dcmplt
 887              	.LVL70:
 888 0064 0028     		cmp	r0, #0
 889 0066 ECD1     		bne	.L86
 626:main.c        ****                     
 890              		.loc 1 626 0
 891 0068 2046     		mov	r0, r4
 892 006a 2946     		mov	r1, r5
 893 006c FFF7FEFF 		bl	__aeabi_d2iz
 894              	.LVL71:
 628:main.c        ****             D[1] = (int)(digits/100)%10;
 895              		.loc 1 628 0
 896 0070 9C49     		ldr	r1, .L131+16
 897 0072 81FB0031 		smull	r3, r1, r1, r0
 898 0076 C217     		asrs	r2, r0, #31
 899 0078 C2EBA111 		rsb	r1, r2, r1, asr #6
 900 007c DFF86CE2 		ldr	lr, .L131+24
 901 0080 8EFB0137 		smull	r3, r7, lr, r1
 902 0084 CB17     		asrs	r3, r1, #31
 903 0086 C3EBA703 		rsb	r3, r3, r7, asr #2
 904 008a 03EB8303 		add	r3, r3, r3, lsl #2
 905 008e A1EB4303 		sub	r3, r1, r3, lsl #1
 906 0092 904F     		ldr	r7, .L131
 907 0094 BB63     		str	r3, [r7, #56]
 629:main.c        ****             D[2] = (int)(digits/10)%10;
 908              		.loc 1 629 0
 909 0096 944B     		ldr	r3, .L131+20
 910 0098 83FB0013 		smull	r1, r3, r3, r0
 911 009c C2EB6313 		rsb	r3, r2, r3, asr #5
 912 00a0 8EFB031C 		smull	r1, ip, lr, r3
 913 00a4 D917     		asrs	r1, r3, #31
 914 00a6 C1EBAC01 		rsb	r1, r1, ip, asr #2
 915 00aa 01EB8101 		add	r1, r1, r1, lsl #2
 916 00ae A3EB4101 		sub	r1, r3, r1, lsl #1
 917 00b2 F963     		str	r1, [r7, #60]
 630:main.c        ****             D[3] = (int)(digits/1) %10;
 918              		.loc 1 630 0
 919 00b4 8EFB0013 		smull	r1, r3, lr, r0
 920 00b8 C2EBA303 		rsb	r3, r2, r3, asr #2
 921 00bc 8EFB032E 		smull	r2, lr, lr, r3
 922 00c0 DA17     		asrs	r2, r3, #31
 923 00c2 C2EBAE02 		rsb	r2, r2, lr, asr #2
 924 00c6 02EB8202 		add	r2, r2, r2, lsl #2
 925 00ca A3EB4202 		sub	r2, r3, r2, lsl #1
 926 00ce 3A64     		str	r2, [r7, #64]
 631:main.c        ****             }
ARM GAS  C:\Users\ANDREW~1\AppData\Local\Temp\ccsv3i4f.s 			page 32


 927              		.loc 1 631 0
 928 00d0 03EB8303 		add	r3, r3, r3, lsl #2
 929 00d4 A0EB4303 		sub	r3, r0, r3, lsl #1
 930 00d8 7B64     		str	r3, [r7, #68]
 931              	.LBE7:
 932 00da 3CE0     		b	.L87
 933              	.LVL72:
 934              	.L124:
 935              	.LBB8:
 635:main.c        ****                     
 936              		.loc 1 635 0
 937 00dc 0022     		movs	r2, #0
 938 00de 804B     		ldr	r3, .L131+12
 939 00e0 2046     		mov	r0, r4
 940 00e2 2946     		mov	r1, r5
 941 00e4 FFF7FEFF 		bl	__aeabi_dmul
 942              	.LVL73:
 943 00e8 FFF7FEFF 		bl	__aeabi_d2iz
 944              	.LVL74:
 637:main.c        ****             D[1] = (int)(digits/100)%10;
 945              		.loc 1 637 0
 946 00ec 7D4E     		ldr	r6, .L131+16
 947 00ee 86FB0036 		smull	r3, r6, r6, r0
 948 00f2 C317     		asrs	r3, r0, #31
 949 00f4 C3EBA616 		rsb	r6, r3, r6, asr #6
 950 00f8 7C4A     		ldr	r2, .L131+24
 951 00fa 82FB0617 		smull	r1, r7, r2, r6
 952 00fe F117     		asrs	r1, r6, #31
 953 0100 C1EBA701 		rsb	r1, r1, r7, asr #2
 954 0104 01EB8101 		add	r1, r1, r1, lsl #2
 955 0108 A6EB4101 		sub	r1, r6, r1, lsl #1
 956 010c 714E     		ldr	r6, .L131
 957 010e B163     		str	r1, [r6, #56]
 638:main.c        ****             D[2] = (int)(digits/10)%10;
 958              		.loc 1 638 0
 959 0110 754F     		ldr	r7, .L131+20
 960 0112 87FB0017 		smull	r1, r7, r7, r0
 961 0116 C3EB6717 		rsb	r7, r3, r7, asr #5
 962 011a 82FB071E 		smull	r1, lr, r2, r7
 963 011e F917     		asrs	r1, r7, #31
 964 0120 C1EBAE01 		rsb	r1, r1, lr, asr #2
 965 0124 01EB8101 		add	r1, r1, r1, lsl #2
 966 0128 A7EB4101 		sub	r1, r7, r1, lsl #1
 967 012c F163     		str	r1, [r6, #60]
 639:main.c        ****             D[3] = (int)(digits/1) %10;
 968              		.loc 1 639 0
 969 012e 82FB0071 		smull	r7, r1, r2, r0
 970 0132 C3EBA103 		rsb	r3, r3, r1, asr #2
 971 0136 82FB0321 		smull	r2, r1, r2, r3
 972 013a DA17     		asrs	r2, r3, #31
 973 013c C2EBA102 		rsb	r2, r2, r1, asr #2
 974 0140 02EB8202 		add	r2, r2, r2, lsl #2
 975 0144 A3EB4202 		sub	r2, r3, r2, lsl #1
 976 0148 3264     		str	r2, [r6, #64]
 640:main.c        ****             }
 977              		.loc 1 640 0
 978 014a 03EB8303 		add	r3, r3, r3, lsl #2
ARM GAS  C:\Users\ANDREW~1\AppData\Local\Temp\ccsv3i4f.s 			page 33


 979 014e A0EB4303 		sub	r3, r0, r3, lsl #1
 980 0152 7364     		str	r3, [r6, #68]
 634:main.c        ****             int digits = (int) (value*1000);
 981              		.loc 1 634 0
 982 0154 0326     		movs	r6, #3
 983              	.LVL75:
 984              	.L87:
 985              	.LBE8:
 986              	.LBB9:
 645:main.c        ****             dp[dp_pos]=1;
 987              		.loc 1 645 0
 988 0156 0023     		movs	r3, #0
 989 0158 05E0     		b	.L88
 990              	.LVL76:
 991              	.L89:
 645:main.c        ****             dp[dp_pos]=1;
 992              		.loc 1 645 0 is_stmt 0 discriminator 3
 993 015a 5E4A     		ldr	r2, .L131
 994 015c 02EB8302 		add	r2, r2, r3, lsl #2
 995 0160 0021     		movs	r1, #0
 996 0162 9164     		str	r1, [r2, #72]
 997 0164 0133     		adds	r3, r3, #1
 998              	.LVL77:
 999              	.L88:
 645:main.c        ****             dp[dp_pos]=1;
 1000              		.loc 1 645 0 discriminator 1
 1001 0166 032B     		cmp	r3, #3
 1002 0168 F7DD     		ble	.L89
 1003              	.LBE9:
 646:main.c        ****                 
 1004              		.loc 1 646 0 is_stmt 1
 1005 016a 5A4B     		ldr	r3, .L131
 1006              	.LVL78:
 1007 016c 03EB8606 		add	r6, r3, r6, lsl #2
 1008              	.LVL79:
 1009 0170 0122     		movs	r2, #1
 1010 0172 B264     		str	r2, [r6, #72]
 648:main.c        ****         }
 1011              		.loc 1 648 0
 1012 0174 C3E90C45 		strd	r4, [r3, #48]
 1013 0178 7CE0     		b	.L82
 1014              	.LVL80:
 1015              	.L123:
 1016              	.LBE5:
 652:main.c        ****     {
 1017              		.loc 1 652 0
 1018 017a 0022     		movs	r2, #0
 1019 017c 0023     		movs	r3, #0
 1020 017e 2046     		mov	r0, r4
 1021 0180 2946     		mov	r1, r5
 1022 0182 FFF7FEFF 		bl	__aeabi_dcmpeq
 1023              	.LVL81:
 1024 0186 30B1     		cbz	r0, .L125
 654:main.c        ****         D[1] = 0; //E
 1025              		.loc 1 654 0
 1026 0188 524B     		ldr	r3, .L131
 1027 018a 0022     		movs	r2, #0
ARM GAS  C:\Users\ANDREW~1\AppData\Local\Temp\ccsv3i4f.s 			page 34


 1028 018c 9A63     		str	r2, [r3, #56]
 655:main.c        ****         D[2] = 0; //N
 1029              		.loc 1 655 0
 1030 018e DA63     		str	r2, [r3, #60]
 656:main.c        ****         D[3] = 0; //t
 1031              		.loc 1 656 0
 1032 0190 1A64     		str	r2, [r3, #64]
 657:main.c        ****     }
 1033              		.loc 1 657 0
 1034 0192 5A64     		str	r2, [r3, #68]
 1035 0194 6EE0     		b	.L82
 1036              	.L125:
 660:main.c        ****     {
 1037              		.loc 1 660 0
 1038 0196 0022     		movs	r2, #0
 1039 0198 554B     		ldr	r3, .L131+28
 1040 019a 2046     		mov	r0, r4
 1041 019c 2946     		mov	r1, r5
 1042 019e FFF7FEFF 		bl	__aeabi_dcmpeq
 1043              	.LVL82:
 1044 01a2 48B1     		cbz	r0, .L126
 662:main.c        ****         D[1] = 16; //E
 1045              		.loc 1 662 0
 1046 01a4 4B4B     		ldr	r3, .L131
 1047 01a6 0F22     		movs	r2, #15
 1048 01a8 9A63     		str	r2, [r3, #56]
 663:main.c        ****         D[2] = 18; //N
 1049              		.loc 1 663 0
 1050 01aa 1022     		movs	r2, #16
 1051 01ac DA63     		str	r2, [r3, #60]
 664:main.c        ****         D[3] = 17; //t
 1052              		.loc 1 664 0
 1053 01ae 1222     		movs	r2, #18
 1054 01b0 1A64     		str	r2, [r3, #64]
 665:main.c        ****     }
 1055              		.loc 1 665 0
 1056 01b2 1122     		movs	r2, #17
 1057 01b4 5A64     		str	r2, [r3, #68]
 1058 01b6 5DE0     		b	.L82
 1059              	.L126:
 667:main.c        ****     {
 1060              		.loc 1 667 0
 1061 01b8 0022     		movs	r2, #0
 1062 01ba 4FF04043 		mov	r3, #-1073741824
 1063 01be 2046     		mov	r0, r4
 1064 01c0 2946     		mov	r1, r5
 1065 01c2 FFF7FEFF 		bl	__aeabi_dcmpeq
 1066              	.LVL83:
 1067 01c6 48B1     		cbz	r0, .L127
 669:main.c        ****         D[1] = 12; //n 
 1068              		.loc 1 669 0
 1069 01c8 424B     		ldr	r3, .L131
 1070 01ca 0D22     		movs	r2, #13
 1071 01cc 9A63     		str	r2, [r3, #56]
 670:main.c        ****         D[2] = 11; //c
 1072              		.loc 1 670 0
 1073 01ce 0C22     		movs	r2, #12
ARM GAS  C:\Users\ANDREW~1\AppData\Local\Temp\ccsv3i4f.s 			page 35


 1074 01d0 DA63     		str	r2, [r3, #60]
 671:main.c        ****         D[3] = 14; //h
 1075              		.loc 1 671 0
 1076 01d2 0B22     		movs	r2, #11
 1077 01d4 1A64     		str	r2, [r3, #64]
 672:main.c        ****         
 1078              		.loc 1 672 0
 1079 01d6 0E22     		movs	r2, #14
 1080 01d8 5A64     		str	r2, [r3, #68]
 1081 01da 4BE0     		b	.L82
 1082              	.L127:
 675:main.c        ****     {
 1083              		.loc 1 675 0
 1084 01dc 0022     		movs	r2, #0
 1085 01de 454B     		ldr	r3, .L131+32
 1086 01e0 2046     		mov	r0, r4
 1087 01e2 2946     		mov	r1, r5
 1088 01e4 FFF7FEFF 		bl	__aeabi_dcmpeq
 1089              	.LVL84:
 1090 01e8 40B1     		cbz	r0, .L128
 677:main.c        ****         D[1] = 10; //space
 1091              		.loc 1 677 0
 1092 01ea 3A4B     		ldr	r3, .L131
 1093 01ec 0A22     		movs	r2, #10
 1094 01ee 9A63     		str	r2, [r3, #56]
 678:main.c        ****         D[2] = 10; //space
 1095              		.loc 1 678 0
 1096 01f0 DA63     		str	r2, [r3, #60]
 679:main.c        ****         D[3] = 10; //space
 1097              		.loc 1 679 0
 1098 01f2 1A64     		str	r2, [r3, #64]
 680:main.c        ****         dp[1]=1;
 1099              		.loc 1 680 0
 1100 01f4 5A64     		str	r2, [r3, #68]
 681:main.c        ****     }
 1101              		.loc 1 681 0
 1102 01f6 0122     		movs	r2, #1
 1103 01f8 DA64     		str	r2, [r3, #76]
 1104 01fa 3BE0     		b	.L82
 1105              	.L128:
 683:main.c        ****     {
 1106              		.loc 1 683 0
 1107 01fc 0022     		movs	r2, #0
 1108 01fe 3E4B     		ldr	r3, .L131+36
 1109 0200 2046     		mov	r0, r4
 1110 0202 2946     		mov	r1, r5
 1111 0204 FFF7FEFF 		bl	__aeabi_dcmpeq
 1112              	.LVL85:
 1113 0208 30B1     		cbz	r0, .L129
 685:main.c        ****         D[1] = 10; //space
 1114              		.loc 1 685 0
 1115 020a 324B     		ldr	r3, .L131
 1116 020c 0A22     		movs	r2, #10
 1117 020e 9A63     		str	r2, [r3, #56]
 686:main.c        ****         D[2] = 10; //space
 1118              		.loc 1 686 0
 1119 0210 DA63     		str	r2, [r3, #60]
ARM GAS  C:\Users\ANDREW~1\AppData\Local\Temp\ccsv3i4f.s 			page 36


 687:main.c        ****         D[3] = 10; //space
 1120              		.loc 1 687 0
 1121 0212 1A64     		str	r2, [r3, #64]
 688:main.c        ****     }
 1122              		.loc 1 688 0
 1123 0214 5A64     		str	r2, [r3, #68]
 1124 0216 2DE0     		b	.L82
 1125              	.L129:
 692:main.c        ****         D[1] = 10; //space
 1126              		.loc 1 692 0
 1127 0218 2E4B     		ldr	r3, .L131
 1128 021a 0A22     		movs	r2, #10
 1129 021c 9A63     		str	r2, [r3, #56]
 693:main.c        ****         D[2] = 10; //space
 1130              		.loc 1 693 0
 1131 021e DA63     		str	r2, [r3, #60]
 694:main.c        ****         D[3] = 10; //space
 1132              		.loc 1 694 0
 1133 0220 1A64     		str	r2, [r3, #64]
 695:main.c        ****         
 1134              		.loc 1 695 0
 1135 0222 5A64     		str	r2, [r3, #68]
 697:main.c        ****         if(value ==-6) D[1] = 8; 
 1136              		.loc 1 697 0
 1137 0224 0022     		movs	r2, #0
 1138 0226 354B     		ldr	r3, .L131+40
 1139 0228 2046     		mov	r0, r4
 1140 022a 2946     		mov	r1, r5
 1141 022c FFF7FEFF 		bl	__aeabi_dcmpeq
 1142              	.LVL86:
 1143 0230 10B1     		cbz	r0, .L100
 697:main.c        ****         if(value ==-6) D[1] = 8; 
 1144              		.loc 1 697 0 is_stmt 0 discriminator 1
 1145 0232 0822     		movs	r2, #8
 1146 0234 274B     		ldr	r3, .L131
 1147 0236 9A63     		str	r2, [r3, #56]
 1148              	.L100:
 698:main.c        ****         if(value ==-7) D[2] = 8; 
 1149              		.loc 1 698 0 is_stmt 1
 1150 0238 0022     		movs	r2, #0
 1151 023a 314B     		ldr	r3, .L131+44
 1152 023c 2046     		mov	r0, r4
 1153 023e 2946     		mov	r1, r5
 1154 0240 FFF7FEFF 		bl	__aeabi_dcmpeq
 1155              	.LVL87:
 1156 0244 10B1     		cbz	r0, .L102
 698:main.c        ****         if(value ==-7) D[2] = 8; 
 1157              		.loc 1 698 0 is_stmt 0 discriminator 1
 1158 0246 0822     		movs	r2, #8
 1159 0248 224B     		ldr	r3, .L131
 1160 024a DA63     		str	r2, [r3, #60]
 1161              	.L102:
 699:main.c        ****         if(value ==-8) D[3] = 8; 
 1162              		.loc 1 699 0 is_stmt 1
 1163 024c 0022     		movs	r2, #0
 1164 024e 2D4B     		ldr	r3, .L131+48
 1165 0250 2046     		mov	r0, r4
ARM GAS  C:\Users\ANDREW~1\AppData\Local\Temp\ccsv3i4f.s 			page 37


 1166 0252 2946     		mov	r1, r5
 1167 0254 FFF7FEFF 		bl	__aeabi_dcmpeq
 1168              	.LVL88:
 1169 0258 10B1     		cbz	r0, .L104
 699:main.c        ****         if(value ==-8) D[3] = 8; 
 1170              		.loc 1 699 0 is_stmt 0 discriminator 1
 1171 025a 0822     		movs	r2, #8
 1172 025c 1D4B     		ldr	r3, .L131
 1173 025e 1A64     		str	r2, [r3, #64]
 1174              	.L104:
 700:main.c        ****     }
 1175              		.loc 1 700 0 is_stmt 1
 1176 0260 0022     		movs	r2, #0
 1177 0262 294B     		ldr	r3, .L131+52
 1178 0264 2046     		mov	r0, r4
 1179 0266 2946     		mov	r1, r5
 1180 0268 FFF7FEFF 		bl	__aeabi_dcmpeq
 1181              	.LVL89:
 1182 026c 10B1     		cbz	r0, .L82
 700:main.c        ****     }
 1183              		.loc 1 700 0 is_stmt 0 discriminator 1
 1184 026e 0822     		movs	r2, #8
 1185 0270 184B     		ldr	r3, .L131
 1186 0272 5A64     		str	r2, [r3, #68]
 1187              	.LVL90:
 1188              	.L82:
 707:main.c        ****     count = count %4; //limit count between 0 to 3
 1189              		.loc 1 707 0 is_stmt 1
 1190 0274 174C     		ldr	r4, .L131
 1191 0276 A36D     		ldr	r3, [r4, #88]
 1192 0278 0133     		adds	r3, r3, #1
 708:main.c        ****         
 1193              		.loc 1 708 0
 1194 027a 03F00303 		and	r3, r3, #3
 1195 027e A365     		str	r3, [r4, #88]
 711:main.c        ****     Dis_D2_Write(1);
 1196              		.loc 1 711 0
 1197 0280 0120     		movs	r0, #1
 1198 0282 FFF7FEFF 		bl	Dis_D1_Write
 1199              	.LVL91:
 712:main.c        ****     Dis_D3_Write(1);
 1200              		.loc 1 712 0
 1201 0286 0120     		movs	r0, #1
 1202 0288 FFF7FEFF 		bl	Dis_D2_Write
 1203              	.LVL92:
 713:main.c        ****     Dis_D4_Write(1);
 1204              		.loc 1 713 0
 1205 028c 0120     		movs	r0, #1
 1206 028e FFF7FEFF 		bl	Dis_D3_Write
 1207              	.LVL93:
 714:main.c        ****         
 1208              		.loc 1 714 0
 1209 0292 0120     		movs	r0, #1
 1210 0294 FFF7FEFF 		bl	Dis_D4_Write
 1211              	.LVL94:
 717:main.c        ****         
 1212              		.loc 1 717 0
ARM GAS  C:\Users\ANDREW~1\AppData\Local\Temp\ccsv3i4f.s 			page 38


 1213 0298 A36D     		ldr	r3, [r4, #88]
 1214 029a C3F10302 		rsb	r2, r3, #3
 1215 029e 04EB8202 		add	r2, r4, r2, lsl #2
 1216 02a2 04EB8303 		add	r3, r4, r3, lsl #2
 1217 02a6 916C     		ldr	r1, [r2, #72]
 1218 02a8 986B     		ldr	r0, [r3, #56]
 1219 02aa FFF7FEFF 		bl	draw_7Seg
 1220              	.LVL95:
 720:main.c        ****     else if(count==1)Dis_D2_Write(0);
 1221              		.loc 1 720 0
 1222 02ae A36D     		ldr	r3, [r4, #88]
 1223 02b0 1BB9     		cbnz	r3, .L107
 720:main.c        ****     else if(count==1)Dis_D2_Write(0);
 1224              		.loc 1 720 0 is_stmt 0 discriminator 1
 1225 02b2 0020     		movs	r0, #0
 1226 02b4 FFF7FEFF 		bl	Dis_D1_Write
 1227              	.LVL96:
 1228 02b8 2DE0     		b	.L108
 1229              	.L107:
 721:main.c        ****     else if(count==2)Dis_D3_Write(0);
 1230              		.loc 1 721 0 is_stmt 1
 1231 02ba 012B     		cmp	r3, #1
 1232 02bc 03D1     		bne	.L109
 721:main.c        ****     else if(count==2)Dis_D3_Write(0);
 1233              		.loc 1 721 0 is_stmt 0 discriminator 1
 1234 02be 0020     		movs	r0, #0
 1235 02c0 FFF7FEFF 		bl	Dis_D2_Write
 1236              	.LVL97:
 1237 02c4 27E0     		b	.L108
 1238              	.L109:
 722:main.c        ****     else if(count==3)Dis_D4_Write(0);
 1239              		.loc 1 722 0 is_stmt 1
 1240 02c6 022B     		cmp	r3, #2
 1241 02c8 20D1     		bne	.L110
 722:main.c        ****     else if(count==3)Dis_D4_Write(0);
 1242              		.loc 1 722 0 is_stmt 0 discriminator 1
 1243 02ca 0020     		movs	r0, #0
 1244 02cc FFF7FEFF 		bl	Dis_D3_Write
 1245              	.LVL98:
 1246 02d0 21E0     		b	.L108
 1247              	.L132:
 1248 02d2 00BF     		.align	2
 1249              	.L131:
 1250 02d4 00000000 		.word	.LANCHOR1
 1251 02d8 0000F03F 		.word	1072693248
 1252 02dc 00002440 		.word	1076101120
 1253 02e0 00408F40 		.word	1083129856
 1254 02e4 D34D6210 		.word	274877907
 1255 02e8 1F85EB51 		.word	1374389535
 1256 02ec 67666666 		.word	1717986919
 1257 02f0 0000F0BF 		.word	-1074790400
 1258 02f4 000008C0 		.word	-1073217536
 1259 02f8 000010C0 		.word	-1072693248
 1260 02fc 000014C0 		.word	-1072431104
 1261 0300 000018C0 		.word	-1072168960
 1262 0304 00001CC0 		.word	-1071906816
 1263 0308 000020C0 		.word	-1071644672
ARM GAS  C:\Users\ANDREW~1\AppData\Local\Temp\ccsv3i4f.s 			page 39


 1264              	.L110:
 723:main.c        ****         
 1265              		.loc 1 723 0 is_stmt 1
 1266 030c 032B     		cmp	r3, #3
 1267 030e 02D1     		bne	.L108
 723:main.c        ****         
 1268              		.loc 1 723 0 is_stmt 0 discriminator 1
 1269 0310 0020     		movs	r0, #0
 1270 0312 FFF7FEFF 		bl	Dis_D4_Write
 1271              	.LVL99:
 1272              	.L108:
 725:main.c        ****     
 1273              		.loc 1 725 0 is_stmt 1
 1274 0316 0022     		movs	r2, #0
 1275 0318 014B     		ldr	r3, .L133
 1276 031a 1A60     		str	r2, [r3]
 1277              	.L78:
 1278 031c F8BD     		pop	{r3, r4, r5, r6, r7, pc}
 1279              	.L134:
 1280 031e 00BF     		.align	2
 1281              	.L133:
 1282 0320 00000000 		.word	.LANCHOR1
 1283              		.cfi_endproc
 1284              	.LFE90:
 1285              		.size	seg_runtime, .-seg_runtime
 1286              		.section	.text.runtime,"ax",%progbits
 1287              		.align	2
 1288              		.global	runtime
 1289              		.thumb
 1290              		.thumb_func
 1291              		.type	runtime, %function
 1292              	runtime:
 1293              	.LFB80:
 448:main.c        ****     BuzzerRuntime(buzz_duration);
 1294              		.loc 1 448 0
 1295              		.cfi_startproc
 1296              		@ args = 0, pretend = 0, frame = 0
 1297              		@ frame_needed = 0, uses_anonymous_args = 0
 1298 0000 10B5     		push	{r4, lr}
 1299              		.cfi_def_cfa_offset 8
 1300              		.cfi_offset 4, -8
 1301              		.cfi_offset 14, -4
 449:main.c        ****     seg_runtime(seg_num);
 1302              		.loc 1 449 0
 1303 0002 054C     		ldr	r4, .L137
 1304 0004 D4E90401 		ldrd	r0, [r4, #16]
 1305 0008 FFF7FEFF 		bl	BuzzerRuntime
 1306              	.LVL100:
 450:main.c        ****     
 1307              		.loc 1 450 0
 1308 000c D4E90A01 		ldrd	r0, [r4, #40]
 1309 0010 FFF7FEFF 		bl	seg_runtime
 1310              	.LVL101:
 1311 0014 10BD     		pop	{r4, pc}
 1312              	.L138:
 1313 0016 00BF     		.align	2
 1314              	.L137:
ARM GAS  C:\Users\ANDREW~1\AppData\Local\Temp\ccsv3i4f.s 			page 40


 1315 0018 00000000 		.word	.LANCHOR1
 1316              		.cfi_endproc
 1317              	.LFE80:
 1318              		.size	runtime, .-runtime
 1319              		.global	__aeabi_dcmple
 1320              		.section	.text.main,"ax",%progbits
 1321              		.align	2
 1322              		.global	main
 1323              		.thumb
 1324              		.thumb_func
 1325              		.type	main, %function
 1326              	main:
 1327              	.LFB68:
 101:main.c        ****     // Enable interrupts
 1328              		.loc 1 101 0
 1329              		.cfi_startproc
 1330              		@ args = 0, pretend = 0, frame = 0
 1331              		@ frame_needed = 0, uses_anonymous_args = 0
 1332 0000 38B5     		push	{r3, r4, r5, lr}
 1333              		.cfi_def_cfa_offset 16
 1334              		.cfi_offset 3, -16
 1335              		.cfi_offset 4, -12
 1336              		.cfi_offset 5, -8
 1337              		.cfi_offset 14, -4
 103:main.c        ****     
 1338              		.loc 1 103 0
 1339              		.syntax unified
 1340              	@ 103 "main.c" 1
 1341 0002 62B6     		CPSIE   i
 1342              	@ 0 "" 2
 106:main.c        ****     isr_2_ClearPending(); 
 1343              		.loc 1 106 0
 1344              		.thumb
 1345              		.syntax unified
 1346 0004 FFF7FEFF 		bl	isr_1_ClearPending
 1347              	.LVL102:
 107:main.c        ****     isr_3_ClearPending(); 
 1348              		.loc 1 107 0
 1349 0008 FFF7FEFF 		bl	isr_2_ClearPending
 1350              	.LVL103:
 108:main.c        ****     isr_4_ClearPending(); 
 1351              		.loc 1 108 0
 1352 000c FFF7FEFF 		bl	isr_3_ClearPending
 1353              	.LVL104:
 109:main.c        ****     isr_5_ClearPending(); 
 1354              		.loc 1 109 0
 1355 0010 FFF7FEFF 		bl	isr_4_ClearPending
 1356              	.LVL105:
 110:main.c        ****     
 1357              		.loc 1 110 0
 1358 0014 FFF7FEFF 		bl	isr_5_ClearPending
 1359              	.LVL106:
 112:main.c        ****     isr_2_StartEx(button2ISR);  
 1360              		.loc 1 112 0
 1361 0018 4648     		ldr	r0, .L148
 1362 001a FFF7FEFF 		bl	isr_1_StartEx
 1363              	.LVL107:
ARM GAS  C:\Users\ANDREW~1\AppData\Local\Temp\ccsv3i4f.s 			page 41


 113:main.c        ****     isr_3_StartEx(button3ISR);  
 1364              		.loc 1 113 0
 1365 001e 4648     		ldr	r0, .L148+4
 1366 0020 FFF7FEFF 		bl	isr_2_StartEx
 1367              	.LVL108:
 114:main.c        ****     isr_4_StartEx(button4ISR);  
 1368              		.loc 1 114 0
 1369 0024 4548     		ldr	r0, .L148+8
 1370 0026 FFF7FEFF 		bl	isr_3_StartEx
 1371              	.LVL109:
 115:main.c        ****     isr_5_StartEx(button5ISR);  
 1372              		.loc 1 115 0
 1373 002a 4548     		ldr	r0, .L148+12
 1374 002c FFF7FEFF 		bl	isr_4_StartEx
 1375              	.LVL110:
 116:main.c        ****     
 1376              		.loc 1 116 0
 1377 0030 4448     		ldr	r0, .L148+16
 1378 0032 FFF7FEFF 		bl	isr_5_StartEx
 1379              	.LVL111:
 119:main.c        ****     isr_7Seg_StartEx(seg7_ISR);  
 1380              		.loc 1 119 0
 1381 0036 FFF7FEFF 		bl	isr_7Seg_ClearPending
 1382              	.LVL112:
 120:main.c        ****     
 1383              		.loc 1 120 0
 1384 003a 4348     		ldr	r0, .L148+20
 1385 003c FFF7FEFF 		bl	isr_7Seg_StartEx
 1386              	.LVL113:
 123:main.c        ****     Timer_1_SetInterruptMode(3);
 1387              		.loc 1 123 0
 1388 0040 FFF7FEFF 		bl	isr_6_ClearPending
 1389              	.LVL114:
 124:main.c        ****     isr_6_StartEx(Receive_Ultra);  
 1390              		.loc 1 124 0
 1391 0044 0320     		movs	r0, #3
 1392 0046 FFF7FEFF 		bl	Timer_1_SetInterruptMode
 1393              	.LVL115:
 125:main.c        ****     
 1394              		.loc 1 125 0
 1395 004a 4048     		ldr	r0, .L148+24
 1396 004c FFF7FEFF 		bl	isr_6_StartEx
 1397              	.LVL116:
 128:main.c        ****     Opamp_1_Start();
 1398              		.loc 1 128 0
 1399 0050 FFF7FEFF 		bl	PGA_1_Start
 1400              	.LVL117:
 129:main.c        ****     Comp_1_Start();
 1401              		.loc 1 129 0
 1402 0054 FFF7FEFF 		bl	Opamp_1_Start
 1403              	.LVL118:
 130:main.c        ****     VDAC8_1_Start();
 1404              		.loc 1 130 0
 1405 0058 FFF7FEFF 		bl	Comp_1_Start
 1406              	.LVL119:
 131:main.c        ****     Count7_1_Start(); 
 1407              		.loc 1 131 0
ARM GAS  C:\Users\ANDREW~1\AppData\Local\Temp\ccsv3i4f.s 			page 42


 1408 005c FFF7FEFF 		bl	VDAC8_1_Start
 1409              	.LVL120:
 132:main.c        ****     
 1410              		.loc 1 132 0
 1411 0060 FFF7FEFF 		bl	Count7_1_Start
 1412              	.LVL121:
 135:main.c        ****     Timer_2_Start();
 1413              		.loc 1 135 0
 1414 0064 0320     		movs	r0, #3
 1415 0066 FFF7FEFF 		bl	Timer_2_SetInterruptMode
 1416              	.LVL122:
 136:main.c        ****     
 1417              		.loc 1 136 0
 1418 006a FFF7FEFF 		bl	Timer_2_Start
 1419              	.LVL123:
 139:main.c        ****     
 1420              		.loc 1 139 0
 1421 006e FFF7FEFF 		bl	EEPROM_Start
 1422              	.LVL124:
 142:main.c        ****     UART_1_PutString("Start UART");
 1423              		.loc 1 142 0
 1424 0072 FFF7FEFF 		bl	UART_1_Start
 1425              	.LVL125:
 143:main.c        ****     
 1426              		.loc 1 143 0
 1427 0076 3648     		ldr	r0, .L148+28
 1428 0078 FFF7FEFF 		bl	UART_1_PutString
 1429              	.LVL126:
 146:main.c        ****     while((current_second()-setup_previous_time)<=4)
 1430              		.loc 1 146 0
 1431 007c FFF7FEFF 		bl	current_second
 1432              	.LVL127:
 1433 0080 0446     		mov	r4, r0
 1434 0082 0D46     		mov	r5, r1
 1435              	.LVL128:
 147:main.c        ****     {
 1436              		.loc 1 147 0
 1437 0084 38E0     		b	.L140
 1438              	.L145:
 149:main.c        ****         if((int)(current_second()-setup_previous_time) ==1) display_num(-6);
 1439              		.loc 1 149 0
 1440 0086 FFF7FEFF 		bl	current_second
 1441              	.LVL129:
 1442 008a 2246     		mov	r2, r4
 1443 008c 2B46     		mov	r3, r5
 1444 008e FFF7FEFF 		bl	__aeabi_dsub
 1445              	.LVL130:
 1446 0092 FFF7FEFF 		bl	__aeabi_d2iz
 1447              	.LVL131:
 1448 0096 18B9     		cbnz	r0, .L141
 149:main.c        ****         if((int)(current_second()-setup_previous_time) ==1) display_num(-6);
 1449              		.loc 1 149 0 is_stmt 0 discriminator 1
 1450 0098 0020     		movs	r0, #0
 1451 009a 2E49     		ldr	r1, .L148+32
 1452 009c FFF7FEFF 		bl	display_num
 1453              	.LVL132:
 1454              	.L141:
ARM GAS  C:\Users\ANDREW~1\AppData\Local\Temp\ccsv3i4f.s 			page 43


 150:main.c        ****         if((int)(current_second()-setup_previous_time) ==2) display_num(-7);
 1455              		.loc 1 150 0 is_stmt 1
 1456 00a0 FFF7FEFF 		bl	current_second
 1457              	.LVL133:
 1458 00a4 2246     		mov	r2, r4
 1459 00a6 2B46     		mov	r3, r5
 1460 00a8 FFF7FEFF 		bl	__aeabi_dsub
 1461              	.LVL134:
 1462 00ac FFF7FEFF 		bl	__aeabi_d2iz
 1463              	.LVL135:
 1464 00b0 0128     		cmp	r0, #1
 1465 00b2 03D1     		bne	.L142
 150:main.c        ****         if((int)(current_second()-setup_previous_time) ==2) display_num(-7);
 1466              		.loc 1 150 0 is_stmt 0 discriminator 1
 1467 00b4 0020     		movs	r0, #0
 1468 00b6 2849     		ldr	r1, .L148+36
 1469 00b8 FFF7FEFF 		bl	display_num
 1470              	.LVL136:
 1471              	.L142:
 151:main.c        ****         if((int)(current_second()-setup_previous_time) ==3) display_num(-8);
 1472              		.loc 1 151 0 is_stmt 1
 1473 00bc FFF7FEFF 		bl	current_second
 1474              	.LVL137:
 1475 00c0 2246     		mov	r2, r4
 1476 00c2 2B46     		mov	r3, r5
 1477 00c4 FFF7FEFF 		bl	__aeabi_dsub
 1478              	.LVL138:
 1479 00c8 FFF7FEFF 		bl	__aeabi_d2iz
 1480              	.LVL139:
 1481 00cc 0228     		cmp	r0, #2
 1482 00ce 03D1     		bne	.L143
 151:main.c        ****         if((int)(current_second()-setup_previous_time) ==3) display_num(-8);
 1483              		.loc 1 151 0 is_stmt 0 discriminator 1
 1484 00d0 0020     		movs	r0, #0
 1485 00d2 2249     		ldr	r1, .L148+40
 1486 00d4 FFF7FEFF 		bl	display_num
 1487              	.LVL140:
 1488              	.L143:
 152:main.c        ****         runtime();
 1489              		.loc 1 152 0 is_stmt 1
 1490 00d8 FFF7FEFF 		bl	current_second
 1491              	.LVL141:
 1492 00dc 2246     		mov	r2, r4
 1493 00de 2B46     		mov	r3, r5
 1494 00e0 FFF7FEFF 		bl	__aeabi_dsub
 1495              	.LVL142:
 1496 00e4 FFF7FEFF 		bl	__aeabi_d2iz
 1497              	.LVL143:
 1498 00e8 0328     		cmp	r0, #3
 1499 00ea 03D1     		bne	.L144
 152:main.c        ****         runtime();
 1500              		.loc 1 152 0 is_stmt 0 discriminator 1
 1501 00ec 0020     		movs	r0, #0
 1502 00ee 1C49     		ldr	r1, .L148+44
 1503 00f0 FFF7FEFF 		bl	display_num
 1504              	.LVL144:
 1505              	.L144:
ARM GAS  C:\Users\ANDREW~1\AppData\Local\Temp\ccsv3i4f.s 			page 44


 153:main.c        ****     }
 1506              		.loc 1 153 0 is_stmt 1
 1507 00f4 FFF7FEFF 		bl	runtime
 1508              	.LVL145:
 1509              	.L140:
 147:main.c        ****     {
 1510              		.loc 1 147 0
 1511 00f8 FFF7FEFF 		bl	current_second
 1512              	.LVL146:
 1513 00fc 2246     		mov	r2, r4
 1514 00fe 2B46     		mov	r3, r5
 1515 0100 FFF7FEFF 		bl	__aeabi_dsub
 1516              	.LVL147:
 1517 0104 0022     		movs	r2, #0
 1518 0106 174B     		ldr	r3, .L148+48
 1519 0108 FFF7FEFF 		bl	__aeabi_dcmple
 1520              	.LVL148:
 1521 010c 0028     		cmp	r0, #0
 1522 010e BAD1     		bne	.L145
 175:main.c        ****     cm_or_inch = EEPROM_ReadByte(sizeof(int));
 1523              		.loc 1 175 0
 1524 0110 FFF7FEFF 		bl	EEPROM_ReadByte
 1525              	.LVL149:
 1526 0114 144B     		ldr	r3, .L148+52
 1527 0116 D865     		str	r0, [r3, #92]
 176:main.c        ****     
 1528              		.loc 1 176 0
 1529 0118 0420     		movs	r0, #4
 1530 011a FFF7FEFF 		bl	EEPROM_ReadByte
 1531              	.LVL150:
 1532 011e 134B     		ldr	r3, .L148+56
 1533 0120 1870     		strb	r0, [r3]
 1534              	.L146:
 215:main.c        ****         //display_num(-3);
 1535              		.loc 1 215 0 discriminator 1
 1536 0122 FFF7FEFF 		bl	Button_S5_Select_State_Read
 1537              	.LVL151:
 1538 0126 FFF7FEFF 		bl	__aeabi_ui2d
 1539              	.LVL152:
 1540 012a FFF7FEFF 		bl	display_num
 1541              	.LVL153:
 218:main.c        ****         
 1542              		.loc 1 218 0 discriminator 1
 1543 012e FFF7FEFF 		bl	runtime
 1544              	.LVL154:
 1545 0132 F6E7     		b	.L146
 1546              	.L149:
 1547              		.align	2
 1548              	.L148:
 1549 0134 00000000 		.word	button1ISR
 1550 0138 00000000 		.word	button2ISR
 1551 013c 00000000 		.word	button3ISR
 1552 0140 00000000 		.word	button4ISR
 1553 0144 00000000 		.word	button5ISR
 1554 0148 00000000 		.word	seg7_ISR
 1555 014c 00000000 		.word	Receive_Ultra
 1556 0150 00000000 		.word	.LC0
ARM GAS  C:\Users\ANDREW~1\AppData\Local\Temp\ccsv3i4f.s 			page 45


 1557 0154 000014C0 		.word	-1072431104
 1558 0158 000018C0 		.word	-1072168960
 1559 015c 00001CC0 		.word	-1071906816
 1560 0160 000020C0 		.word	-1071644672
 1561 0164 00001040 		.word	1074790400
 1562 0168 00000000 		.word	.LANCHOR1
 1563 016c 00000000 		.word	cm_or_inch
 1564              		.cfi_endproc
 1565              	.LFE68:
 1566              		.size	main, .-main
 1567              		.section	.text.mode_0,"ax",%progbits
 1568              		.align	2
 1569              		.global	mode_0
 1570              		.thumb
 1571              		.thumb_func
 1572              		.type	mode_0, %function
 1573              	mode_0:
 1574              	.LFB72:
 230:main.c        ****     double previous_second=current_second();
 1575              		.loc 1 230 0
 1576              		.cfi_startproc
 1577              		@ args = 0, pretend = 0, frame = 0
 1578              		@ frame_needed = 0, uses_anonymous_args = 0
 1579 0000 F8B5     		push	{r3, r4, r5, r6, r7, lr}
 1580              		.cfi_def_cfa_offset 24
 1581              		.cfi_offset 3, -24
 1582              		.cfi_offset 4, -20
 1583              		.cfi_offset 5, -16
 1584              		.cfi_offset 6, -12
 1585              		.cfi_offset 7, -8
 1586              		.cfi_offset 14, -4
 231:main.c        ****     while (mode == 0) {
 1587              		.loc 1 231 0
 1588 0002 FFF7FEFF 		bl	current_second
 1589              	.LVL155:
 1590 0006 0646     		mov	r6, r0
 1591 0008 0F46     		mov	r7, r1
 1592              	.LVL156:
 232:main.c        ****         runtime();
 1593              		.loc 1 232 0
 1594 000a 78E0     		b	.L151
 1595              	.L166:
 1596              	.LBB10:
 233:main.c        ****         //flash decimal point 1 second on, off
 1597              		.loc 1 233 0
 1598 000c FFF7FEFF 		bl	runtime
 1599              	.LVL157:
 235:main.c        ****         if (time_diff<=1)
 1600              		.loc 1 235 0
 1601 0010 FFF7FEFF 		bl	current_second
 1602              	.LVL158:
 1603 0014 3246     		mov	r2, r6
 1604 0016 3B46     		mov	r3, r7
 1605 0018 FFF7FEFF 		bl	__aeabi_dsub
 1606              	.LVL159:
 1607 001c 0446     		mov	r4, r0
 1608 001e 0D46     		mov	r5, r1
ARM GAS  C:\Users\ANDREW~1\AppData\Local\Temp\ccsv3i4f.s 			page 46


 1609              	.LVL160:
 236:main.c        ****         {
 1610              		.loc 1 236 0
 1611 0020 0022     		movs	r2, #0
 1612 0022 3B4B     		ldr	r3, .L172+8
 1613 0024 FFF7FEFF 		bl	__aeabi_dcmple
 1614              	.LVL161:
 1615 0028 20B1     		cbz	r0, .L169
 238:main.c        ****         }
 1616              		.loc 1 238 0
 1617 002a 0020     		movs	r0, #0
 1618 002c 3949     		ldr	r1, .L172+12
 1619 002e FFF7FEFF 		bl	display_num
 1620              	.LVL162:
 1621 0032 17E0     		b	.L154
 1622              	.L169:
 240:main.c        ****         {
 1623              		.loc 1 240 0
 1624 0034 0022     		movs	r2, #0
 1625 0036 364B     		ldr	r3, .L172+8
 1626 0038 2046     		mov	r0, r4
 1627 003a 2946     		mov	r1, r5
 1628 003c FFF7FEFF 		bl	__aeabi_dcmpgt
 1629              	.LVL163:
 1630 0040 38B9     		cbnz	r0, .L155
 240:main.c        ****         {
 1631              		.loc 1 240 0 is_stmt 0 discriminator 1
 1632 0042 0022     		movs	r2, #0
 1633 0044 4FF08043 		mov	r3, #1073741824
 1634 0048 2046     		mov	r0, r4
 1635 004a 2946     		mov	r1, r5
 1636 004c FFF7FEFF 		bl	__aeabi_dcmple
 1637              	.LVL164:
 1638 0050 20B1     		cbz	r0, .L170
 1639              	.L155:
 242:main.c        ****         }
 1640              		.loc 1 242 0 is_stmt 1
 1641 0052 0020     		movs	r0, #0
 1642 0054 3049     		ldr	r1, .L172+16
 1643 0056 FFF7FEFF 		bl	display_num
 1644              	.LVL165:
 1645 005a 03E0     		b	.L154
 1646              	.L170:
 246:main.c        ****         }
 1647              		.loc 1 246 0
 1648 005c FFF7FEFF 		bl	current_second
 1649              	.LVL166:
 1650 0060 0646     		mov	r6, r0
 1651              	.LVL167:
 1652 0062 0F46     		mov	r7, r1
 1653              	.LVL168:
 1654              	.L154:
 251:main.c        ****         {
 1655              		.loc 1 251 0
 1656 0064 FFF7FEFF 		bl	Button_S5_Select
 1657              	.LVL169:
 1658 0068 18B1     		cbz	r0, .L158
ARM GAS  C:\Users\ANDREW~1\AppData\Local\Temp\ccsv3i4f.s 			page 47


 251:main.c        ****         {
 1659              		.loc 1 251 0 is_stmt 0 discriminator 1
 1660 006a FFF7FEFF 		bl	Button_S2_Left
 1661              	.LVL170:
 1662 006e 0028     		cmp	r0, #0
 1663 0070 45D1     		bne	.L151
 1664              	.L158:
 1665              	.LBB11:
 254:main.c        ****             while (current_second() - check_second <0.2)
 1666              		.loc 1 254 0 is_stmt 1
 1667 0072 FFF7FEFF 		bl	current_second
 1668              	.LVL171:
 1669 0076 0446     		mov	r4, r0
 1670              	.LVL172:
 1671 0078 0D46     		mov	r5, r1
 1672              	.LVL173:
 255:main.c        ****             {
 1673              		.loc 1 255 0
 1674 007a 01E0     		b	.L160
 1675              	.L161:
 257:main.c        ****             }
 1676              		.loc 1 257 0
 1677 007c FFF7FEFF 		bl	runtime
 1678              	.LVL174:
 1679              	.L160:
 255:main.c        ****             {
 1680              		.loc 1 255 0
 1681 0080 FFF7FEFF 		bl	current_second
 1682              	.LVL175:
 1683 0084 2246     		mov	r2, r4
 1684 0086 2B46     		mov	r3, r5
 1685 0088 FFF7FEFF 		bl	__aeabi_dsub
 1686              	.LVL176:
 1687 008c 1EA3     		adr	r3, .L172
 1688 008e D3E90023 		ldrd	r2, [r3]
 1689 0092 FFF7FEFF 		bl	__aeabi_dcmplt
 1690              	.LVL177:
 1691 0096 0028     		cmp	r0, #0
 1692 0098 F0D1     		bne	.L161
 261:main.c        ****             {
 1693              		.loc 1 261 0
 1694 009a FFF7FEFF 		bl	Button_S5_Select
 1695              	.LVL178:
 1696 009e 0446     		mov	r4, r0
 1697              	.LVL179:
 1698 00a0 28BB     		cbnz	r0, .L162
 261:main.c        ****             {
 1699              		.loc 1 261 0 is_stmt 0 discriminator 1
 1700 00a2 FFF7FEFF 		bl	Button_S2_Left
 1701              	.LVL180:
 1702 00a6 10BB     		cbnz	r0, .L162
 263:main.c        ****                 check_second = current_second();        
 1703              		.loc 1 263 0 is_stmt 1
 1704 00a8 17A1     		adr	r1, .L172
 1705 00aa D1E90001 		ldrd	r0, [r1]
 1706 00ae FFF7FEFF 		bl	BuzzerSound
 1707              	.LVL181:
ARM GAS  C:\Users\ANDREW~1\AppData\Local\Temp\ccsv3i4f.s 			page 48


 264:main.c        ****                 while (Button_S5_Select() == 0 && Button_S2_Left() == 0)
 1708              		.loc 1 264 0
 1709 00b2 FFF7FEFF 		bl	current_second
 1710              	.LVL182:
 1711 00b6 0446     		mov	r4, r0
 1712 00b8 0D46     		mov	r5, r1
 1713              	.LVL183:
 265:main.c        ****                 {
 1714              		.loc 1 265 0
 1715 00ba 10E0     		b	.L163
 1716              	.L165:
 267:main.c        ****                     if (current_second()-check_second==1)
 1717              		.loc 1 267 0
 1718 00bc FFF7FEFF 		bl	runtime
 1719              	.LVL184:
 268:main.c        ****                     {
 1720              		.loc 1 268 0
 1721 00c0 FFF7FEFF 		bl	current_second
 1722              	.LVL185:
 1723 00c4 2246     		mov	r2, r4
 1724 00c6 2B46     		mov	r3, r5
 1725 00c8 FFF7FEFF 		bl	__aeabi_dsub
 1726              	.LVL186:
 1727 00cc 0022     		movs	r2, #0
 1728 00ce 104B     		ldr	r3, .L172+8
 1729 00d0 FFF7FEFF 		bl	__aeabi_dcmpeq
 1730              	.LVL187:
 1731 00d4 18B1     		cbz	r0, .L163
 270:main.c        ****                         break;
 1732              		.loc 1 270 0
 1733 00d6 0122     		movs	r2, #1
 1734 00d8 104B     		ldr	r3, .L172+20
 1735 00da 1A66     		str	r2, [r3, #96]
 271:main.c        ****                     }
 1736              		.loc 1 271 0
 1737 00dc 0FE0     		b	.L151
 1738              	.L163:
 265:main.c        ****                 {
 1739              		.loc 1 265 0
 1740 00de FFF7FEFF 		bl	Button_S5_Select
 1741              	.LVL188:
 1742 00e2 60B9     		cbnz	r0, .L151
 265:main.c        ****                 {
 1743              		.loc 1 265 0 is_stmt 0 discriminator 1
 1744 00e4 FFF7FEFF 		bl	Button_S2_Left
 1745              	.LVL189:
 1746 00e8 0028     		cmp	r0, #0
 1747 00ea E7D0     		beq	.L165
 1748 00ec 07E0     		b	.L151
 1749              	.LVL190:
 1750              	.L162:
 276:main.c        ****             {
 1751              		.loc 1 276 0 is_stmt 1
 1752 00ee 34B9     		cbnz	r4, .L151
 276:main.c        ****             {
 1753              		.loc 1 276 0 is_stmt 0 discriminator 1
 1754 00f0 FFF7FEFF 		bl	Button_S2_Left
ARM GAS  C:\Users\ANDREW~1\AppData\Local\Temp\ccsv3i4f.s 			page 49


 1755              	.LVL191:
 1756 00f4 0128     		cmp	r0, #1
 1757 00f6 02D1     		bne	.L151
 278:main.c        ****             }
 1758              		.loc 1 278 0 is_stmt 1
 1759 00f8 0322     		movs	r2, #3
 1760 00fa 084B     		ldr	r3, .L172+20
 1761 00fc 1A66     		str	r2, [r3, #96]
 1762              	.L151:
 1763              	.LBE11:
 1764              	.LBE10:
 232:main.c        ****         runtime();
 1765              		.loc 1 232 0
 1766 00fe 074B     		ldr	r3, .L172+20
 1767 0100 1B6E     		ldr	r3, [r3, #96]
 1768 0102 002B     		cmp	r3, #0
 1769 0104 82D0     		beq	.L166
 282:main.c        **** 
 1770              		.loc 1 282 0
 1771 0106 F8BD     		pop	{r3, r4, r5, r6, r7, pc}
 1772              	.LVL192:
 1773              	.L173:
 1774              		.align	3
 1775              	.L172:
 1776 0108 9A999999 		.word	-1717986918
 1777 010c 9999C93F 		.word	1070176665
 1778 0110 0000F03F 		.word	1072693248
 1779 0114 000008C0 		.word	-1073217536
 1780 0118 000010C0 		.word	-1072693248
 1781 011c 00000000 		.word	.LANCHOR1
 1782              		.cfi_endproc
 1783              	.LFE72:
 1784              		.size	mode_0, .-mode_0
 1785              		.section	.text.mode_3,"ax",%progbits
 1786              		.align	2
 1787              		.global	mode_3
 1788              		.thumb
 1789              		.thumb_func
 1790              		.type	mode_3, %function
 1791              	mode_3:
 1792              	.LFB75:
 377:main.c        ****    
 1793              		.loc 1 377 0
 1794              		.cfi_startproc
 1795              		@ args = 0, pretend = 0, frame = 0
 1796              		@ frame_needed = 0, uses_anonymous_args = 0
 1797 0000 70B5     		push	{r4, r5, r6, lr}
 1798              		.cfi_def_cfa_offset 16
 1799              		.cfi_offset 4, -16
 1800              		.cfi_offset 5, -12
 1801              		.cfi_offset 6, -8
 1802              		.cfi_offset 14, -4
 1803              	.LVL193:
 379:main.c        ****     double previous_second;
 1804              		.loc 1 379 0
 1805 0002 0126     		movs	r6, #1
 381:main.c        ****     {
ARM GAS  C:\Users\ANDREW~1\AppData\Local\Temp\ccsv3i4f.s 			page 50


 1806              		.loc 1 381 0
 1807 0004 2AE0     		b	.L175
 1808              	.LVL194:
 1809              	.L180:
 383:main.c        ****         //check if first time entering loop
 1810              		.loc 1 383 0
 1811 0006 FFF7FEFF 		bl	runtime
 1812              	.LVL195:
 385:main.c        ****         {
 1813              		.loc 1 385 0
 1814 000a 4EB1     		cbz	r6, .L176
 387:main.c        ****             previous_second= current_second();
 1815              		.loc 1 387 0
 1816 000c FFF7FEFF 		bl	ultra_reading
 1817              	.LVL196:
 1818 0010 174B     		ldr	r3, .L183+8
 1819 0012 C3E90801 		strd	r0, [r3, #32]
 388:main.c        ****             flag_read = 0;
 1820              		.loc 1 388 0
 1821 0016 FFF7FEFF 		bl	current_second
 1822              	.LVL197:
 1823 001a 0446     		mov	r4, r0
 1824              	.LVL198:
 1825 001c 0D46     		mov	r5, r1
 1826              	.LVL199:
 389:main.c        ****         }
 1827              		.loc 1 389 0
 1828 001e 0026     		movs	r6, #0
 1829              	.LVL200:
 1830              	.L176:
 392:main.c        ****        
 1831              		.loc 1 392 0
 1832 0020 134B     		ldr	r3, .L183+8
 1833 0022 D3E90801 		ldrd	r0, [r3, #32]
 1834 0026 FFF7FEFF 		bl	display_num
 1835              	.LVL201:
 395:main.c        ****         {
 1836              		.loc 1 395 0
 1837 002a FFF7FEFF 		bl	current_second
 1838              	.LVL202:
 1839 002e 2246     		mov	r2, r4
 1840 0030 2B46     		mov	r3, r5
 1841 0032 FFF7FEFF 		bl	__aeabi_dsub
 1842              	.LVL203:
 1843 0036 0022     		movs	r2, #0
 1844 0038 4FF08043 		mov	r3, #1073741824
 1845 003c FFF7FEFF 		bl	__aeabi_dcmpge
 1846              	.LVL204:
 1847 0040 60B1     		cbz	r0, .L175
 398:main.c        ****             {
 1848              		.loc 1 398 0
 1849 0042 FFF7FEFF 		bl	Button_S5_Select
 1850              	.LVL205:
 1851 0046 30B9     		cbnz	r0, .L179
 400:main.c        ****                 flag_read=1;
 1852              		.loc 1 400 0
 1853 0048 07A1     		adr	r1, .L183
ARM GAS  C:\Users\ANDREW~1\AppData\Local\Temp\ccsv3i4f.s 			page 51


 1854 004a D1E90001 		ldrd	r0, [r1]
 1855 004e FFF7FEFF 		bl	BuzzerSound
 1856              	.LVL206:
 401:main.c        ****             }
 1857              		.loc 1 401 0
 1858 0052 0126     		movs	r6, #1
 1859 0054 02E0     		b	.L175
 1860              	.LVL207:
 1861              	.L179:
 405:main.c        ****             }
 1862              		.loc 1 405 0
 1863 0056 0022     		movs	r2, #0
 1864 0058 054B     		ldr	r3, .L183+8
 1865 005a 1A66     		str	r2, [r3, #96]
 1866              	.LVL208:
 1867              	.L175:
 381:main.c        ****     {
 1868              		.loc 1 381 0
 1869 005c 044B     		ldr	r3, .L183+8
 1870 005e 1B6E     		ldr	r3, [r3, #96]
 1871 0060 032B     		cmp	r3, #3
 1872 0062 D0D0     		beq	.L180
 411:main.c        **** 
 1873              		.loc 1 411 0
 1874 0064 70BD     		pop	{r4, r5, r6, pc}
 1875              	.LVL209:
 1876              	.L184:
 1877 0066 00BF     		.align	3
 1878              	.L183:
 1879 0068 9A999999 		.word	-1717986918
 1880 006c 9999C93F 		.word	1070176665
 1881 0070 00000000 		.word	.LANCHOR1
 1882              		.cfi_endproc
 1883              	.LFE75:
 1884              		.size	mode_3, .-mode_3
 1885              		.section	.text.SingleButtonWait,"ax",%progbits
 1886              		.align	2
 1887              		.global	SingleButtonWait
 1888              		.thumb
 1889              		.thumb_func
 1890              		.type	SingleButtonWait, %function
 1891              	SingleButtonWait:
 1892              	.LFB78:
 430:main.c        ****     while (Button_S4_Right()==0 || Button_S5_Select()==0 || Button_S2_Left()==0)
 1893              		.loc 1 430 0
 1894              		.cfi_startproc
 1895              		@ args = 0, pretend = 0, frame = 0
 1896              		@ frame_needed = 0, uses_anonymous_args = 0
 1897 0000 08B5     		push	{r3, lr}
 1898              		.cfi_def_cfa_offset 8
 1899              		.cfi_offset 3, -8
 1900              		.cfi_offset 14, -4
 431:main.c        ****     {
 1901              		.loc 1 431 0
 1902 0002 01E0     		b	.L186
 1903              	.L187:
 433:main.c        ****     }
ARM GAS  C:\Users\ANDREW~1\AppData\Local\Temp\ccsv3i4f.s 			page 52


 1904              		.loc 1 433 0
 1905 0004 FFF7FEFF 		bl	runtime
 1906              	.LVL210:
 1907              	.L186:
 431:main.c        ****     {
 1908              		.loc 1 431 0
 1909 0008 FFF7FEFF 		bl	Button_S4_Right
 1910              	.LVL211:
 1911 000c 0028     		cmp	r0, #0
 1912 000e F9D0     		beq	.L187
 431:main.c        ****     {
 1913              		.loc 1 431 0 is_stmt 0 discriminator 1
 1914 0010 FFF7FEFF 		bl	Button_S5_Select
 1915              	.LVL212:
 1916 0014 0028     		cmp	r0, #0
 1917 0016 F5D0     		beq	.L187
 431:main.c        ****     {
 1918              		.loc 1 431 0 discriminator 2
 1919 0018 FFF7FEFF 		bl	Button_S2_Left
 1920              	.LVL213:
 1921 001c 0028     		cmp	r0, #0
 1922 001e F1D0     		beq	.L187
 435:main.c        **** 
 1923              		.loc 1 435 0 is_stmt 1
 1924 0020 08BD     		pop	{r3, pc}
 1925              		.cfi_endproc
 1926              	.LFE78:
 1927              		.size	SingleButtonWait, .-SingleButtonWait
 1928 0022 00BF     		.section	.text.mode_1,"ax",%progbits
 1929              		.align	2
 1930              		.global	mode_1
 1931              		.thumb
 1932              		.thumb_func
 1933              		.type	mode_1, %function
 1934              	mode_1:
 1935              	.LFB73:
 286:main.c        ****     double previous_second=0;
 1936              		.loc 1 286 0
 1937              		.cfi_startproc
 1938              		@ args = 0, pretend = 0, frame = 0
 1939              		@ frame_needed = 0, uses_anonymous_args = 0
 1940 0000 F8B5     		push	{r3, r4, r5, r6, r7, lr}
 1941              		.cfi_def_cfa_offset 24
 1942              		.cfi_offset 3, -24
 1943              		.cfi_offset 4, -20
 1944              		.cfi_offset 5, -16
 1945              		.cfi_offset 6, -12
 1946              		.cfi_offset 7, -8
 1947              		.cfi_offset 14, -4
 1948              	.LVL214:
 287:main.c        ****     while (mode == 1) {
 1949              		.loc 1 287 0
 1950 0002 0026     		movs	r6, #0
 1951 0004 0027     		movs	r7, #0
 288:main.c        ****        
 1952              		.loc 1 288 0
 1953 0006 55E0     		b	.L190
ARM GAS  C:\Users\ANDREW~1\AppData\Local\Temp\ccsv3i4f.s 			page 53


 1954              	.LVL215:
 1955              	.L200:
 1956              	.LBB12:
 290:main.c        ****         //flash group number
 1957              		.loc 1 290 0
 1958 0008 FFF7FEFF 		bl	runtime
 1959              	.LVL216:
 292:main.c        ****         if (time_diff<=1)
 1960              		.loc 1 292 0
 1961 000c FFF7FEFF 		bl	current_second
 1962              	.LVL217:
 1963 0010 3246     		mov	r2, r6
 1964 0012 3B46     		mov	r3, r7
 1965 0014 FFF7FEFF 		bl	__aeabi_dsub
 1966              	.LVL218:
 1967 0018 0446     		mov	r4, r0
 1968 001a 0D46     		mov	r5, r1
 1969              	.LVL219:
 293:main.c        ****         {
 1970              		.loc 1 293 0
 1971 001c 0022     		movs	r2, #0
 1972 001e 2A4B     		ldr	r3, .L205+8
 1973 0020 FFF7FEFF 		bl	__aeabi_dcmple
 1974              	.LVL220:
 1975 0024 30B1     		cbz	r0, .L202
 295:main.c        ****         }
 1976              		.loc 1 295 0
 1977 0026 294B     		ldr	r3, .L205+12
 1978 0028 D86D     		ldr	r0, [r3, #92]
 1979 002a FFF7FEFF 		bl	__aeabi_i2d
 1980              	.LVL221:
 1981 002e FFF7FEFF 		bl	display_num
 1982              	.LVL222:
 1983 0032 16E0     		b	.L193
 1984              	.L202:
 297:main.c        ****         {
 1985              		.loc 1 297 0
 1986 0034 0022     		movs	r2, #0
 1987 0036 244B     		ldr	r3, .L205+8
 1988 0038 2046     		mov	r0, r4
 1989 003a 2946     		mov	r1, r5
 1990 003c FFF7FEFF 		bl	__aeabi_dcmpgt
 1991              	.LVL223:
 1992 0040 30B9     		cbnz	r0, .L194
 297:main.c        ****         {
 1993              		.loc 1 297 0 is_stmt 0 discriminator 1
 1994 0042 0022     		movs	r2, #0
 1995 0044 224B     		ldr	r3, .L205+16
 1996 0046 2046     		mov	r0, r4
 1997 0048 2946     		mov	r1, r5
 1998 004a FFF7FEFF 		bl	__aeabi_dcmple
 1999              	.LVL224:
 2000 004e 20B1     		cbz	r0, .L203
 2001              	.L194:
 299:main.c        ****         }
 2002              		.loc 1 299 0 is_stmt 1
 2003 0050 0020     		movs	r0, #0
ARM GAS  C:\Users\ANDREW~1\AppData\Local\Temp\ccsv3i4f.s 			page 54


 2004 0052 2049     		ldr	r1, .L205+20
 2005 0054 FFF7FEFF 		bl	display_num
 2006              	.LVL225:
 2007 0058 03E0     		b	.L193
 2008              	.L203:
 303:main.c        ****         }
 2009              		.loc 1 303 0
 2010 005a FFF7FEFF 		bl	current_second
 2011              	.LVL226:
 2012 005e 0646     		mov	r6, r0
 2013              	.LVL227:
 2014 0060 0F46     		mov	r7, r1
 2015              	.LVL228:
 2016              	.L193:
 308:main.c        ****         {
 2017              		.loc 1 308 0
 2018 0062 FFF7FEFF 		bl	Button_S4_Right
 2019              	.LVL229:
 2020 0066 48B9     		cbnz	r0, .L197
 310:main.c        ****             BuzzerSound(0.2);
 2021              		.loc 1 310 0
 2022 0068 FFF7FEFF 		bl	SingleButtonWait
 2023              	.LVL230:
 311:main.c        ****             mode = 2;
 2024              		.loc 1 311 0
 2025 006c 14A1     		adr	r1, .L205
 2026 006e D1E90001 		ldrd	r0, [r1]
 2027 0072 FFF7FEFF 		bl	BuzzerSound
 2028              	.LVL231:
 312:main.c        ****         }
 2029              		.loc 1 312 0
 2030 0076 0222     		movs	r2, #2
 2031 0078 144B     		ldr	r3, .L205+12
 2032 007a 1A66     		str	r2, [r3, #96]
 2033              	.L197:
 315:main.c        ****         {
 2034              		.loc 1 315 0
 2035 007c FFF7FEFF 		bl	Button_S5_Select
 2036              	.LVL232:
 2037 0080 50B9     		cbnz	r0, .L198
 317:main.c        ****             BuzzerSound(0.2);
 2038              		.loc 1 317 0
 2039 0082 FFF7FEFF 		bl	SingleButtonWait
 2040              	.LVL233:
 318:main.c        ****             group_num ++;
 2041              		.loc 1 318 0
 2042 0086 0EA1     		adr	r1, .L205
 2043 0088 D1E90001 		ldrd	r0, [r1]
 2044 008c FFF7FEFF 		bl	BuzzerSound
 2045              	.LVL234:
 319:main.c        ****         }
 2046              		.loc 1 319 0
 2047 0090 0E4A     		ldr	r2, .L205+12
 2048 0092 D36D     		ldr	r3, [r2, #92]
 2049 0094 0133     		adds	r3, r3, #1
 2050 0096 D365     		str	r3, [r2, #92]
 2051              	.L198:
ARM GAS  C:\Users\ANDREW~1\AppData\Local\Temp\ccsv3i4f.s 			page 55


 322:main.c        ****         {
 2052              		.loc 1 322 0
 2053 0098 FFF7FEFF 		bl	Button_S2_Left
 2054              	.LVL235:
 2055 009c 50B9     		cbnz	r0, .L190
 324:main.c        ****             BuzzerSound(0.2);
 2056              		.loc 1 324 0
 2057 009e FFF7FEFF 		bl	SingleButtonWait
 2058              	.LVL236:
 325:main.c        ****             group_num --;
 2059              		.loc 1 325 0
 2060 00a2 07A1     		adr	r1, .L205
 2061 00a4 D1E90001 		ldrd	r0, [r1]
 2062 00a8 FFF7FEFF 		bl	BuzzerSound
 2063              	.LVL237:
 326:main.c        ****         }
 2064              		.loc 1 326 0
 2065 00ac 074A     		ldr	r2, .L205+12
 2066 00ae D36D     		ldr	r3, [r2, #92]
 2067 00b0 013B     		subs	r3, r3, #1
 2068 00b2 D365     		str	r3, [r2, #92]
 2069              	.LVL238:
 2070              	.L190:
 2071              	.LBE12:
 288:main.c        ****        
 2072              		.loc 1 288 0
 2073 00b4 054B     		ldr	r3, .L205+12
 2074 00b6 1B6E     		ldr	r3, [r3, #96]
 2075 00b8 012B     		cmp	r3, #1
 2076 00ba A5D0     		beq	.L200
 329:main.c        **** 
 2077              		.loc 1 329 0
 2078 00bc F8BD     		pop	{r3, r4, r5, r6, r7, pc}
 2079              	.LVL239:
 2080              	.L206:
 2081 00be 00BF     		.align	3
 2082              	.L205:
 2083 00c0 9A999999 		.word	-1717986918
 2084 00c4 9999C93F 		.word	1070176665
 2085 00c8 0000F03F 		.word	1072693248
 2086 00cc 00000000 		.word	.LANCHOR1
 2087 00d0 0000F83F 		.word	1073217536
 2088 00d4 000010C0 		.word	-1072693248
 2089              		.cfi_endproc
 2090              	.LFE73:
 2091              		.size	mode_1, .-mode_1
 2092              		.section	.text.mode_2,"ax",%progbits
 2093              		.align	2
 2094              		.global	mode_2
 2095              		.thumb
 2096              		.thumb_func
 2097              		.type	mode_2, %function
 2098              	mode_2:
 2099              	.LFB74:
 333:main.c        ****     while (mode == 2)
 2100              		.loc 1 333 0
 2101              		.cfi_startproc
ARM GAS  C:\Users\ANDREW~1\AppData\Local\Temp\ccsv3i4f.s 			page 56


 2102              		@ args = 0, pretend = 0, frame = 0
 2103              		@ frame_needed = 0, uses_anonymous_args = 0
 2104 0000 08B5     		push	{r3, lr}
 2105              		.cfi_def_cfa_offset 8
 2106              		.cfi_offset 3, -8
 2107              		.cfi_offset 14, -4
 334:main.c        ****     {
 2108              		.loc 1 334 0
 2109 0002 3DE0     		b	.L213
 2110              	.L214:
 336:main.c        ****         
 2111              		.loc 1 336 0
 2112 0004 FFF7FEFF 		bl	runtime
 2113              	.LVL240:
 339:main.c        ****         if (cm_or_inch =='i') display_num(-2);
 2114              		.loc 1 339 0
 2115 0008 254B     		ldr	r3, .L216+8
 2116 000a 1B78     		ldrb	r3, [r3]	@ zero_extendqisi2
 2117 000c 632B     		cmp	r3, #99
 2118 000e 03D1     		bne	.L209
 339:main.c        ****         if (cm_or_inch =='i') display_num(-2);
 2119              		.loc 1 339 0 is_stmt 0 discriminator 1
 2120 0010 0020     		movs	r0, #0
 2121 0012 2449     		ldr	r1, .L216+12
 2122 0014 FFF7FEFF 		bl	display_num
 2123              	.LVL241:
 2124              	.L209:
 340:main.c        ****         
 2125              		.loc 1 340 0 is_stmt 1
 2126 0018 214B     		ldr	r3, .L216+8
 2127 001a 1B78     		ldrb	r3, [r3]	@ zero_extendqisi2
 2128 001c 692B     		cmp	r3, #105
 2129 001e 04D1     		bne	.L210
 340:main.c        ****         
 2130              		.loc 1 340 0 is_stmt 0 discriminator 1
 2131 0020 0020     		movs	r0, #0
 2132 0022 4FF04041 		mov	r1, #-1073741824
 2133 0026 FFF7FEFF 		bl	display_num
 2134              	.LVL242:
 2135              	.L210:
 343:main.c        ****         {
 2136              		.loc 1 343 0 is_stmt 1
 2137 002a FFF7FEFF 		bl	Button_S4_Right
 2138              	.LVL243:
 2139 002e 48B9     		cbnz	r0, .L211
 345:main.c        ****             BuzzerSound(0.2);
 2140              		.loc 1 345 0
 2141 0030 FFF7FEFF 		bl	SingleButtonWait
 2142              	.LVL244:
 346:main.c        ****             mode = 0;
 2143              		.loc 1 346 0
 2144 0034 18A1     		adr	r1, .L216
 2145 0036 D1E90001 		ldrd	r0, [r1]
 2146 003a FFF7FEFF 		bl	BuzzerSound
 2147              	.LVL245:
 347:main.c        ****         }
 2148              		.loc 1 347 0
ARM GAS  C:\Users\ANDREW~1\AppData\Local\Temp\ccsv3i4f.s 			page 57


 2149 003e 0022     		movs	r2, #0
 2150 0040 194B     		ldr	r3, .L216+16
 2151 0042 1A66     		str	r2, [r3, #96]
 2152              	.L211:
 350:main.c        ****         {
 2153              		.loc 1 350 0
 2154 0044 FFF7FEFF 		bl	Button_S5_Select
 2155              	.LVL246:
 2156 0048 58B9     		cbnz	r0, .L212
 352:main.c        ****             BuzzerSound(0.2);
 2157              		.loc 1 352 0
 2158 004a FFF7FEFF 		bl	SingleButtonWait
 2159              	.LVL247:
 353:main.c        ****             MetricLedOn();
 2160              		.loc 1 353 0
 2161 004e 12A1     		adr	r1, .L216
 2162 0050 D1E90001 		ldrd	r0, [r1]
 2163 0054 FFF7FEFF 		bl	BuzzerSound
 2164              	.LVL248:
 354:main.c        ****             
 2165              		.loc 1 354 0
 2166 0058 FFF7FEFF 		bl	MetricLedOn
 2167              	.LVL249:
 356:main.c        ****         }
 2168              		.loc 1 356 0
 2169 005c 6322     		movs	r2, #99
 2170 005e 104B     		ldr	r3, .L216+8
 2171 0060 1A70     		strb	r2, [r3]
 2172              	.L212:
 359:main.c        ****         {
 2173              		.loc 1 359 0
 2174 0062 FFF7FEFF 		bl	Button_S2_Left
 2175              	.LVL250:
 2176 0066 58B9     		cbnz	r0, .L213
 361:main.c        ****             BuzzerSound(0.2);
 2177              		.loc 1 361 0
 2178 0068 FFF7FEFF 		bl	SingleButtonWait
 2179              	.LVL251:
 362:main.c        ****             ImperialLedOn();
 2180              		.loc 1 362 0
 2181 006c 0AA1     		adr	r1, .L216
 2182 006e D1E90001 		ldrd	r0, [r1]
 2183 0072 FFF7FEFF 		bl	BuzzerSound
 2184              	.LVL252:
 363:main.c        ****             
 2185              		.loc 1 363 0
 2186 0076 FFF7FEFF 		bl	ImperialLedOn
 2187              	.LVL253:
 365:main.c        ****             
 2188              		.loc 1 365 0
 2189 007a 6922     		movs	r2, #105
 2190 007c 084B     		ldr	r3, .L216+8
 2191 007e 1A70     		strb	r2, [r3]
 2192              	.L213:
 334:main.c        ****     {
 2193              		.loc 1 334 0
 2194 0080 094B     		ldr	r3, .L216+16
ARM GAS  C:\Users\ANDREW~1\AppData\Local\Temp\ccsv3i4f.s 			page 58


 2195 0082 1B6E     		ldr	r3, [r3, #96]
 2196 0084 022B     		cmp	r3, #2
 2197 0086 BDD0     		beq	.L214
 371:main.c        **** 
 2198              		.loc 1 371 0
 2199 0088 0421     		movs	r1, #4
 2200 008a 054B     		ldr	r3, .L216+8
 2201 008c 1878     		ldrb	r0, [r3]	@ zero_extendqisi2
 2202 008e FFF7FEFF 		bl	EEPROM_WriteByte
 2203              	.LVL254:
 2204 0092 08BD     		pop	{r3, pc}
 2205              	.L217:
 2206 0094 AFF30080 		.align	3
 2207              	.L216:
 2208 0098 9A999999 		.word	-1717986918
 2209 009c 9999C93F 		.word	1070176665
 2210 00a0 00000000 		.word	cm_or_inch
 2211 00a4 0000F0BF 		.word	-1074790400
 2212 00a8 00000000 		.word	.LANCHOR1
 2213              		.cfi_endproc
 2214              	.LFE74:
 2215              		.size	mode_2, .-mode_2
 2216              		.section	.text.DoubleButtonWait,"ax",%progbits
 2217              		.align	2
 2218              		.global	DoubleButtonWait
 2219              		.thumb
 2220              		.thumb_func
 2221              		.type	DoubleButtonWait, %function
 2222              	DoubleButtonWait:
 2223              	.LFB79:
 438:main.c        ****     while (Button_S5_Select() == 0 && Button_S2_Left() == 0)
 2224              		.loc 1 438 0
 2225              		.cfi_startproc
 2226              		@ args = 0, pretend = 0, frame = 0
 2227              		@ frame_needed = 0, uses_anonymous_args = 0
 2228 0000 08B5     		push	{r3, lr}
 2229              		.cfi_def_cfa_offset 8
 2230              		.cfi_offset 3, -8
 2231              		.cfi_offset 14, -4
 439:main.c        ****     {
 2232              		.loc 1 439 0
 2233 0002 01E0     		b	.L219
 2234              	.L221:
 441:main.c        ****     }
 2235              		.loc 1 441 0
 2236 0004 FFF7FEFF 		bl	runtime
 2237              	.LVL255:
 2238              	.L219:
 439:main.c        ****     {
 2239              		.loc 1 439 0
 2240 0008 FFF7FEFF 		bl	Button_S5_Select
 2241              	.LVL256:
 2242 000c 18B9     		cbnz	r0, .L218
 439:main.c        ****     {
 2243              		.loc 1 439 0 is_stmt 0 discriminator 1
 2244 000e FFF7FEFF 		bl	Button_S2_Left
 2245              	.LVL257:
ARM GAS  C:\Users\ANDREW~1\AppData\Local\Temp\ccsv3i4f.s 			page 59


 2246 0012 0028     		cmp	r0, #0
 2247 0014 F6D0     		beq	.L221
 2248              	.L218:
 2249 0016 08BD     		pop	{r3, pc}
 2250              		.cfi_endproc
 2251              	.LFE79:
 2252              		.size	DoubleButtonWait, .-DoubleButtonWait
 2253              		.comm	segmentPattern_array,28,4
 2254              		.global	charLookup
 2255              		.global	count
 2256              		.global	dp
 2257              		.global	D
 2258              		.global	old_dis_val
 2259              		.global	run_7_Seg
 2260              		.comm	InterruptCnt,1,1
 2261              		.global	value
 2262              		.comm	value_text,16,4
 2263              		.global	distance
 2264              		.comm	cm_or_inch,1,1
 2265              		.global	group_num
 2266              		.global	mode
 2267              		.global	button5
 2268              		.global	button4
 2269              		.global	button3
 2270              		.global	button2
 2271              		.global	button1
 2272              		.global	seg_num
 2273              		.global	buzz_duration
 2274              		.global	previous_buzz
 2275              		.global	time_passed_step
 2276              		.global	counter
 2277              		.section	.rodata
 2278              		.align	2
 2279              		.set	.LANCHOR2,. + 0
 2280              		.type	charLookup, %object
 2281              		.size	charLookup, 152
 2282              	charLookup:
 2283 0000 31313131 		.ascii	"1111110\000"
 2283      31313000 
 2284 0008 30313130 		.ascii	"0110000\000"
 2284      30303000 
 2285 0010 31313031 		.ascii	"1101101\000"
 2285      31303100 
 2286 0018 31313131 		.ascii	"1111001\000"
 2286      30303100 
 2287 0020 30313130 		.ascii	"0110011\000"
 2287      30313100 
 2288 0028 31303131 		.ascii	"1011011\000"
 2288      30313100 
 2289 0030 31303131 		.ascii	"1011111\000"
 2289      31313100 
 2290 0038 31313130 		.ascii	"1110000\000"
 2290      30303000 
 2291 0040 31313131 		.ascii	"1111111\000"
 2291      31313100 
 2292 0048 31313131 		.ascii	"1111011\000"
 2292      30313100 
ARM GAS  C:\Users\ANDREW~1\AppData\Local\Temp\ccsv3i4f.s 			page 60


 2293 0050 30303030 		.ascii	"0000000\000"
 2293      30303000 
 2294 0058 30303031 		.ascii	"0001101\000"
 2294      31303100 
 2295 0060 30303130 		.ascii	"0010101\000"
 2295      31303100 
 2296 0068 30303130 		.ascii	"0010000\000"
 2296      30303000 
 2297 0070 30303130 		.ascii	"0010111\000"
 2297      31313100 
 2298 0078 31303031 		.ascii	"1001110\000"
 2298      31313000 
 2299 0080 31303031 		.ascii	"1001111\000"
 2299      31313100 
 2300 0088 30303031 		.ascii	"0001111\000"
 2300      31313100 
 2301 0090 31313130 		.ascii	"1110110\000"
 2301      31313000 
 2302              		.data
 2303              		.align	2
 2304              		.set	.LANCHOR0,. + 0
 2305              		.type	button1, %object
 2306              		.size	button1, 4
 2307              	button1:
 2308 0000 01000000 		.word	1
 2309              		.type	button2, %object
 2310              		.size	button2, 4
 2311              	button2:
 2312 0004 01000000 		.word	1
 2313              		.type	button3, %object
 2314              		.size	button3, 4
 2315              	button3:
 2316 0008 01000000 		.word	1
 2317              		.type	button4, %object
 2318              		.size	button4, 4
 2319              	button4:
 2320 000c 01000000 		.word	1
 2321              		.type	button5, %object
 2322              		.size	button5, 4
 2323              	button5:
 2324 0010 01000000 		.word	1
 2325              		.section	.rodata.str1.4,"aMS",%progbits,1
 2326              		.align	2
 2327              	.LC0:
 2328 0000 53746172 		.ascii	"Start UART\000"
 2328      74205541 
 2328      525400
 2329              		.bss
 2330              		.align	3
 2331              		.set	.LANCHOR1,. + 0
 2332              		.type	run_7_Seg, %object
 2333              		.size	run_7_Seg, 4
 2334              	run_7_Seg:
 2335 0000 00000000 		.space	4
 2336              		.type	time_passed_step, %object
 2337              		.size	time_passed_step, 4
 2338              	time_passed_step:
ARM GAS  C:\Users\ANDREW~1\AppData\Local\Temp\ccsv3i4f.s 			page 61


 2339 0004 00000000 		.space	4
 2340              		.type	previous_buzz, %object
 2341              		.size	previous_buzz, 8
 2342              	previous_buzz:
 2343 0008 00000000 		.space	8
 2343      00000000 
 2344              		.type	buzz_duration, %object
 2345              		.size	buzz_duration, 8
 2346              	buzz_duration:
 2347 0010 00000000 		.space	8
 2347      00000000 
 2348              		.type	value, %object
 2349              		.size	value, 8
 2350              	value:
 2351 0018 00000000 		.space	8
 2351      00000000 
 2352              		.type	distance, %object
 2353              		.size	distance, 8
 2354              	distance:
 2355 0020 00000000 		.space	8
 2355      00000000 
 2356              		.type	seg_num, %object
 2357              		.size	seg_num, 8
 2358              	seg_num:
 2359 0028 00000000 		.space	8
 2359      00000000 
 2360              		.type	old_dis_val, %object
 2361              		.size	old_dis_val, 8
 2362              	old_dis_val:
 2363 0030 00000000 		.space	8
 2363      00000000 
 2364              		.type	D, %object
 2365              		.size	D, 16
 2366              	D:
 2367 0038 00000000 		.space	16
 2367      00000000 
 2367      00000000 
 2367      00000000 
 2368              		.type	dp, %object
 2369              		.size	dp, 16
 2370              	dp:
 2371 0048 00000000 		.space	16
 2371      00000000 
 2371      00000000 
 2371      00000000 
 2372              		.type	count, %object
 2373              		.size	count, 4
 2374              	count:
 2375 0058 00000000 		.space	4
 2376              		.type	group_num, %object
 2377              		.size	group_num, 4
 2378              	group_num:
 2379 005c 00000000 		.space	4
 2380              		.type	mode, %object
 2381              		.size	mode, 4
 2382              	mode:
 2383 0060 00000000 		.space	4
ARM GAS  C:\Users\ANDREW~1\AppData\Local\Temp\ccsv3i4f.s 			page 62


 2384 0064 00000000 		.space	4
 2385              		.type	counter, %object
 2386              		.size	counter, 8
 2387              	counter:
 2388 0068 00000000 		.space	8
 2388      00000000 
 2389              		.text
 2390              	.Letext0:
 2391              		.file 2 "d:\\monash_apps\\psoc creator\\4.4\\psoc creator\\import\\gnu\\arm\\5.4.1\\arm-none-eabi\
 2392              		.file 3 "d:\\monash_apps\\psoc creator\\4.4\\psoc creator\\import\\gnu\\arm\\5.4.1\\arm-none-eabi\
 2393              		.file 4 "Generated_Source\\PSoC5/cytypes.h"
 2394              		.file 5 "Generated_Source\\PSoC5/core_cm3.h"
 2395              		.file 6 "Generated_Source\\PSoC5/Timer_1.h"
 2396              		.file 7 "Generated_Source\\PSoC5/LED2_Yellow.h"
 2397              		.file 8 "Generated_Source\\PSoC5/LED3_Green.h"
 2398              		.file 9 "Generated_Source\\PSoC5/Timer_2.h"
 2399              		.file 10 "Generated_Source\\PSoC5/UART_1.h"
 2400              		.file 11 "Generated_Source\\PSoC5/CyLib.h"
 2401              		.file 12 "Generated_Source\\PSoC5/Buzzer.h"
 2402              		.file 13 "Generated_Source\\PSoC5/Control_Reg_1.h"
 2403              		.file 14 "Generated_Source\\PSoC5/Dis_A.h"
 2404              		.file 15 "Generated_Source\\PSoC5/Dis_B.h"
 2405              		.file 16 "Generated_Source\\PSoC5/Dis_C.h"
 2406              		.file 17 "Generated_Source\\PSoC5/Dis_D.h"
 2407              		.file 18 "Generated_Source\\PSoC5/Dis_E.h"
 2408              		.file 19 "Generated_Source\\PSoC5/Dis_F.h"
 2409              		.file 20 "Generated_Source\\PSoC5/Dis_G.h"
 2410              		.file 21 "Generated_Source\\PSoC5/Dis_DP.h"
 2411              		.file 22 "Generated_Source\\PSoC5/Dis_D1.h"
 2412              		.file 23 "Generated_Source\\PSoC5/Dis_D2.h"
 2413              		.file 24 "Generated_Source\\PSoC5/Dis_D3.h"
 2414              		.file 25 "Generated_Source\\PSoC5/Dis_D4.h"
 2415              		.file 26 "Generated_Source\\PSoC5/isr_1.h"
 2416              		.file 27 "Generated_Source\\PSoC5/isr_2.h"
 2417              		.file 28 "Generated_Source\\PSoC5/isr_3.h"
 2418              		.file 29 "Generated_Source\\PSoC5/isr_4.h"
 2419              		.file 30 "Generated_Source\\PSoC5/isr_5.h"
 2420              		.file 31 "Generated_Source\\PSoC5/isr_7Seg.h"
 2421              		.file 32 "Generated_Source\\PSoC5/isr_6.h"
 2422              		.file 33 "Generated_Source\\PSoC5/PGA_1.h"
 2423              		.file 34 "Generated_Source\\PSoC5/Opamp_1.h"
 2424              		.file 35 "Generated_Source\\PSoC5/Comp_1.h"
 2425              		.file 36 "Generated_Source\\PSoC5/VDAC8_1.h"
 2426              		.file 37 "Generated_Source\\PSoC5/Count7_1.h"
 2427              		.file 38 "Generated_Source\\PSoC5/EEPROM.h"
 2428              		.file 39 "Generated_Source\\PSoC5/Button_S5_Select_State.h"
 2429              		.section	.debug_info,"",%progbits
 2430              	.Ldebug_info0:
 2431 0000 7D100000 		.4byte	0x107d
 2432 0004 0400     		.2byte	0x4
 2433 0006 00000000 		.4byte	.Ldebug_abbrev0
 2434 000a 04       		.byte	0x4
 2435 000b 01       		.uleb128 0x1
 2436 000c AB010000 		.4byte	.LASF133
 2437 0010 0C       		.byte	0xc
 2438 0011 30000000 		.4byte	.LASF134
 2439 0015 6A050000 		.4byte	.LASF135
ARM GAS  C:\Users\ANDREW~1\AppData\Local\Temp\ccsv3i4f.s 			page 63


 2440 0019 18000000 		.4byte	.Ldebug_ranges0+0x18
 2441 001d 00000000 		.4byte	0
 2442 0021 00000000 		.4byte	.Ldebug_line0
 2443 0025 02       		.uleb128 0x2
 2444 0026 08       		.byte	0x8
 2445 0027 04       		.byte	0x4
 2446 0028 96070000 		.4byte	.LASF0
 2447 002c 02       		.uleb128 0x2
 2448 002d 01       		.byte	0x1
 2449 002e 06       		.byte	0x6
 2450 002f 21070000 		.4byte	.LASF1
 2451 0033 02       		.uleb128 0x2
 2452 0034 01       		.byte	0x1
 2453 0035 08       		.byte	0x8
 2454 0036 6F060000 		.4byte	.LASF2
 2455 003a 02       		.uleb128 0x2
 2456 003b 02       		.byte	0x2
 2457 003c 05       		.byte	0x5
 2458 003d DB040000 		.4byte	.LASF3
 2459 0041 02       		.uleb128 0x2
 2460 0042 02       		.byte	0x2
 2461 0043 07       		.byte	0x7
 2462 0044 4E070000 		.4byte	.LASF4
 2463 0048 03       		.uleb128 0x3
 2464 0049 B9000000 		.4byte	.LASF10
 2465 004d 02       		.byte	0x2
 2466 004e 3F       		.byte	0x3f
 2467 004f 53000000 		.4byte	0x53
 2468 0053 02       		.uleb128 0x2
 2469 0054 04       		.byte	0x4
 2470 0055 05       		.byte	0x5
 2471 0056 E5040000 		.4byte	.LASF5
 2472 005a 02       		.uleb128 0x2
 2473 005b 04       		.byte	0x4
 2474 005c 07       		.byte	0x7
 2475 005d 10060000 		.4byte	.LASF6
 2476 0061 02       		.uleb128 0x2
 2477 0062 08       		.byte	0x8
 2478 0063 05       		.byte	0x5
 2479 0064 92030000 		.4byte	.LASF7
 2480 0068 02       		.uleb128 0x2
 2481 0069 08       		.byte	0x8
 2482 006a 07       		.byte	0x7
 2483 006b 44010000 		.4byte	.LASF8
 2484 006f 04       		.uleb128 0x4
 2485 0070 04       		.byte	0x4
 2486 0071 05       		.byte	0x5
 2487 0072 696E7400 		.ascii	"int\000"
 2488 0076 02       		.uleb128 0x2
 2489 0077 04       		.byte	0x4
 2490 0078 07       		.byte	0x7
 2491 0079 88000000 		.4byte	.LASF9
 2492 007d 03       		.uleb128 0x3
 2493 007e 2E060000 		.4byte	.LASF11
 2494 0082 03       		.byte	0x3
 2495 0083 2C       		.byte	0x2c
 2496 0084 48000000 		.4byte	0x48
ARM GAS  C:\Users\ANDREW~1\AppData\Local\Temp\ccsv3i4f.s 			page 64


 2497 0088 05       		.uleb128 0x5
 2498 0089 90070000 		.4byte	.LASF12
 2499 008d 04       		.byte	0x4
 2500 008e E801     		.2byte	0x1e8
 2501 0090 33000000 		.4byte	0x33
 2502 0094 02       		.uleb128 0x2
 2503 0095 04       		.byte	0x4
 2504 0096 04       		.byte	0x4
 2505 0097 1D010000 		.4byte	.LASF13
 2506 009b 02       		.uleb128 0x2
 2507 009c 01       		.byte	0x1
 2508 009d 08       		.byte	0x8
 2509 009e D4020000 		.4byte	.LASF14
 2510 00a2 02       		.uleb128 0x2
 2511 00a3 08       		.byte	0x8
 2512 00a4 04       		.byte	0x4
 2513 00a5 4F040000 		.4byte	.LASF15
 2514 00a9 02       		.uleb128 0x2
 2515 00aa 04       		.byte	0x4
 2516 00ab 07       		.byte	0x7
 2517 00ac 07060000 		.4byte	.LASF16
 2518 00b0 06       		.uleb128 0x6
 2519 00b1 04       		.byte	0x4
 2520 00b2 B6000000 		.4byte	0xb6
 2521 00b6 07       		.uleb128 0x7
 2522 00b7 9B000000 		.4byte	0x9b
 2523 00bb 08       		.uleb128 0x8
 2524 00bc 0F030000 		.4byte	.LASF17
 2525 00c0 01       		.byte	0x1
 2526 00c1 57       		.byte	0x57
 2527 00c2 00000000 		.4byte	.LFB63
 2528 00c6 14000000 		.4byte	.LFE63-.LFB63
 2529 00ca 01       		.uleb128 0x1
 2530 00cb 9C       		.byte	0x9c
 2531 00cc 08       		.uleb128 0x8
 2532 00cd 15000000 		.4byte	.LASF18
 2533 00d1 01       		.byte	0x1
 2534 00d2 58       		.byte	0x58
 2535 00d3 00000000 		.4byte	.LFB64
 2536 00d7 14000000 		.4byte	.LFE64-.LFB64
 2537 00db 01       		.uleb128 0x1
 2538 00dc 9C       		.byte	0x9c
 2539 00dd 08       		.uleb128 0x8
 2540 00de F3030000 		.4byte	.LASF19
 2541 00e2 01       		.byte	0x1
 2542 00e3 59       		.byte	0x59
 2543 00e4 00000000 		.4byte	.LFB65
 2544 00e8 14000000 		.4byte	.LFE65-.LFB65
 2545 00ec 01       		.uleb128 0x1
 2546 00ed 9C       		.byte	0x9c
 2547 00ee 08       		.uleb128 0x8
 2548 00ef D2000000 		.4byte	.LASF20
 2549 00f3 01       		.byte	0x1
 2550 00f4 5A       		.byte	0x5a
 2551 00f5 00000000 		.4byte	.LFB66
 2552 00f9 14000000 		.4byte	.LFE66-.LFB66
 2553 00fd 01       		.uleb128 0x1
ARM GAS  C:\Users\ANDREW~1\AppData\Local\Temp\ccsv3i4f.s 			page 65


 2554 00fe 9C       		.byte	0x9c
 2555 00ff 08       		.uleb128 0x8
 2556 0100 E1050000 		.4byte	.LASF21
 2557 0104 01       		.byte	0x1
 2558 0105 5B       		.byte	0x5b
 2559 0106 00000000 		.4byte	.LFB67
 2560 010a 14000000 		.4byte	.LFE67-.LFB67
 2561 010e 01       		.uleb128 0x1
 2562 010f 9C       		.byte	0x9c
 2563 0110 09       		.uleb128 0x9
 2564 0111 CA070000 		.4byte	.LASF22
 2565 0115 01       		.byte	0x1
 2566 0116 4F02     		.2byte	0x24f
 2567 0118 00000000 		.4byte	.LFB88
 2568 011c 0C000000 		.4byte	.LFE88-.LFB88
 2569 0120 01       		.uleb128 0x1
 2570 0121 9C       		.byte	0x9c
 2571 0122 0A       		.uleb128 0xa
 2572 0123 0F010000 		.4byte	.LASF26
 2573 0127 01       		.byte	0x1
 2574 0128 4102     		.2byte	0x241
 2575 012a 00000000 		.4byte	.LFB87
 2576 012e 1C000000 		.4byte	.LFE87-.LFB87
 2577 0132 01       		.uleb128 0x1
 2578 0133 9C       		.byte	0x9c
 2579 0134 54010000 		.4byte	0x154
 2580 0138 0B       		.uleb128 0xb
 2581 0139 06000000 		.4byte	.LVL0
 2582 013d 440E0000 		.4byte	0xe44
 2583 0141 0B       		.uleb128 0xb
 2584 0142 0A000000 		.4byte	.LVL1
 2585 0146 4F0E0000 		.4byte	0xe4f
 2586 014a 0B       		.uleb128 0xb
 2587 014b 10000000 		.4byte	.LVL2
 2588 014f 5A0E0000 		.4byte	0xe5a
 2589 0153 00       		.byte	0
 2590 0154 0C       		.uleb128 0xc
 2591 0155 43000000 		.4byte	.LASF23
 2592 0159 01       		.byte	0x1
 2593 015a DF       		.byte	0xdf
 2594 015b 6F000000 		.4byte	0x6f
 2595 015f 00000000 		.4byte	.LFB69
 2596 0163 0C000000 		.4byte	.LFE69-.LFB69
 2597 0167 01       		.uleb128 0x1
 2598 0168 9C       		.byte	0x9c
 2599 0169 0C       		.uleb128 0xc
 2600 016a C8030000 		.4byte	.LASF24
 2601 016e 01       		.byte	0x1
 2602 016f E0       		.byte	0xe0
 2603 0170 6F000000 		.4byte	0x6f
 2604 0174 00000000 		.4byte	.LFB70
 2605 0178 0C000000 		.4byte	.LFE70-.LFB70
 2606 017c 01       		.uleb128 0x1
 2607 017d 9C       		.byte	0x9c
 2608 017e 0C       		.uleb128 0xc
 2609 017f D8030000 		.4byte	.LASF25
 2610 0183 01       		.byte	0x1
ARM GAS  C:\Users\ANDREW~1\AppData\Local\Temp\ccsv3i4f.s 			page 66


 2611 0184 E1       		.byte	0xe1
 2612 0185 6F000000 		.4byte	0x6f
 2613 0189 00000000 		.4byte	.LFB71
 2614 018d 0C000000 		.4byte	.LFE71-.LFB71
 2615 0191 01       		.uleb128 0x1
 2616 0192 9C       		.byte	0x9c
 2617 0193 0A       		.uleb128 0xa
 2618 0194 D9020000 		.4byte	.LASF27
 2619 0198 01       		.byte	0x1
 2620 0199 A001     		.2byte	0x1a0
 2621 019b 00000000 		.4byte	.LFB76
 2622 019f 10000000 		.4byte	.LFE76-.LFB76
 2623 01a3 01       		.uleb128 0x1
 2624 01a4 9C       		.byte	0x9c
 2625 01a5 CC010000 		.4byte	0x1cc
 2626 01a9 0D       		.uleb128 0xd
 2627 01aa 08000000 		.4byte	.LVL3
 2628 01ae 650E0000 		.4byte	0xe65
 2629 01b2 BC010000 		.4byte	0x1bc
 2630 01b6 0E       		.uleb128 0xe
 2631 01b7 01       		.uleb128 0x1
 2632 01b8 50       		.byte	0x50
 2633 01b9 01       		.uleb128 0x1
 2634 01ba 30       		.byte	0x30
 2635 01bb 00       		.byte	0
 2636 01bc 0F       		.uleb128 0xf
 2637 01bd 0E000000 		.4byte	.LVL4
 2638 01c1 700E0000 		.4byte	0xe70
 2639 01c5 0E       		.uleb128 0xe
 2640 01c6 01       		.uleb128 0x1
 2641 01c7 50       		.byte	0x50
 2642 01c8 01       		.uleb128 0x1
 2643 01c9 31       		.byte	0x31
 2644 01ca 00       		.byte	0
 2645 01cb 00       		.byte	0
 2646 01cc 0A       		.uleb128 0xa
 2647 01cd 98020000 		.4byte	.LASF28
 2648 01d1 01       		.byte	0x1
 2649 01d2 A601     		.2byte	0x1a6
 2650 01d4 00000000 		.4byte	.LFB77
 2651 01d8 10000000 		.4byte	.LFE77-.LFB77
 2652 01dc 01       		.uleb128 0x1
 2653 01dd 9C       		.byte	0x9c
 2654 01de 05020000 		.4byte	0x205
 2655 01e2 0D       		.uleb128 0xd
 2656 01e3 08000000 		.4byte	.LVL5
 2657 01e7 700E0000 		.4byte	0xe70
 2658 01eb F5010000 		.4byte	0x1f5
 2659 01ef 0E       		.uleb128 0xe
 2660 01f0 01       		.uleb128 0x1
 2661 01f1 50       		.byte	0x50
 2662 01f2 01       		.uleb128 0x1
 2663 01f3 30       		.byte	0x30
 2664 01f4 00       		.byte	0
 2665 01f5 0F       		.uleb128 0xf
 2666 01f6 0E000000 		.4byte	.LVL6
 2667 01fa 650E0000 		.4byte	0xe65
ARM GAS  C:\Users\ANDREW~1\AppData\Local\Temp\ccsv3i4f.s 			page 67


 2668 01fe 0E       		.uleb128 0xe
 2669 01ff 01       		.uleb128 0x1
 2670 0200 50       		.byte	0x50
 2671 0201 01       		.uleb128 0x1
 2672 0202 31       		.byte	0x31
 2673 0203 00       		.byte	0
 2674 0204 00       		.byte	0
 2675 0205 10       		.uleb128 0x10
 2676 0206 68000000 		.4byte	.LASF29
 2677 020a 01       		.byte	0x1
 2678 020b C601     		.2byte	0x1c6
 2679 020d 25000000 		.4byte	0x25
 2680 0211 00000000 		.4byte	.LFB81
 2681 0215 20000000 		.4byte	.LFE81-.LFB81
 2682 0219 01       		.uleb128 0x1
 2683 021a 9C       		.byte	0x9c
 2684 021b 42020000 		.4byte	0x242
 2685 021f 11       		.uleb128 0x11
 2686 0220 87010000 		.4byte	.LASF31
 2687 0224 01       		.byte	0x1
 2688 0225 C801     		.2byte	0x1c8
 2689 0227 25000000 		.4byte	0x25
 2690 022b 00000000 		.4byte	.LLST0
 2691 022f 0B       		.uleb128 0xb
 2692 0230 06000000 		.4byte	.LVL7
 2693 0234 7B0E0000 		.4byte	0xe7b
 2694 0238 0B       		.uleb128 0xb
 2695 0239 0C000000 		.4byte	.LVL8
 2696 023d 860E0000 		.4byte	0xe86
 2697 0241 00       		.byte	0
 2698 0242 0A       		.uleb128 0xa
 2699 0243 FB040000 		.4byte	.LASF30
 2700 0247 01       		.byte	0x1
 2701 0248 0102     		.2byte	0x201
 2702 024a 00000000 		.4byte	.LFB82
 2703 024e 68000000 		.4byte	.LFE82-.LFB82
 2704 0252 01       		.uleb128 0x1
 2705 0253 9C       		.byte	0x9c
 2706 0254 D5020000 		.4byte	0x2d5
 2707 0258 12       		.uleb128 0x12
 2708 0259 6E756D00 		.ascii	"num\000"
 2709 025d 01       		.byte	0x1
 2710 025e 0102     		.2byte	0x201
 2711 0260 6F000000 		.4byte	0x6f
 2712 0264 28000000 		.4byte	.LLST1
 2713 0268 11       		.uleb128 0x11
 2714 0269 EA000000 		.4byte	.LASF32
 2715 026d 01       		.byte	0x1
 2716 026e 0302     		.2byte	0x203
 2717 0270 6F000000 		.4byte	0x6f
 2718 0274 46000000 		.4byte	.LLST2
 2719 0278 11       		.uleb128 0x11
 2720 0279 22050000 		.4byte	.LASF33
 2721 027d 01       		.byte	0x1
 2722 027e 0402     		.2byte	0x204
 2723 0280 6F000000 		.4byte	0x6f
 2724 0284 65000000 		.4byte	.LLST3
ARM GAS  C:\Users\ANDREW~1\AppData\Local\Temp\ccsv3i4f.s 			page 68


 2725 0288 13       		.uleb128 0x13
 2726 0289 1A000000 		.4byte	.LBB2
 2727 028d 2A000000 		.4byte	.LBE2-.LBB2
 2728 0291 A4020000 		.4byte	0x2a4
 2729 0295 14       		.uleb128 0x14
 2730 0296 6900     		.ascii	"i\000"
 2731 0298 01       		.byte	0x1
 2732 0299 0C02     		.2byte	0x20c
 2733 029b 6F000000 		.4byte	0x6f
 2734 029f 8E000000 		.4byte	.LLST4
 2735 02a3 00       		.byte	0
 2736 02a4 15       		.uleb128 0x15
 2737 02a5 44000000 		.4byte	.LBB3
 2738 02a9 18000000 		.4byte	.LBE3-.LBB3
 2739 02ad 14       		.uleb128 0x14
 2740 02ae 6900     		.ascii	"i\000"
 2741 02b0 01       		.byte	0x1
 2742 02b1 1102     		.2byte	0x211
 2743 02b3 6F000000 		.4byte	0x6f
 2744 02b7 A1000000 		.4byte	.LLST5
 2745 02bb 0B       		.uleb128 0xb
 2746 02bc 50000000 		.4byte	.LVL22
 2747 02c0 910E0000 		.4byte	0xe91
 2748 02c4 0F       		.uleb128 0xf
 2749 02c5 56000000 		.4byte	.LVL23
 2750 02c9 9C0E0000 		.4byte	0xe9c
 2751 02cd 0E       		.uleb128 0xe
 2752 02ce 01       		.uleb128 0x1
 2753 02cf 50       		.byte	0x50
 2754 02d0 01       		.uleb128 0x1
 2755 02d1 35       		.byte	0x35
 2756 02d2 00       		.byte	0
 2757 02d3 00       		.byte	0
 2758 02d4 00       		.byte	0
 2759 02d5 0A       		.uleb128 0xa
 2760 02d6 8A040000 		.4byte	.LASF34
 2761 02da 01       		.byte	0x1
 2762 02db 1A02     		.2byte	0x21a
 2763 02dd 00000000 		.4byte	.LFB83
 2764 02e1 1C000000 		.4byte	.LFE83-.LFB83
 2765 02e5 01       		.uleb128 0x1
 2766 02e6 9C       		.byte	0x9c
 2767 02e7 05030000 		.4byte	0x305
 2768 02eb 16       		.uleb128 0x16
 2769 02ec 29010000 		.4byte	.LASF35
 2770 02f0 01       		.byte	0x1
 2771 02f1 1A02     		.2byte	0x21a
 2772 02f3 25000000 		.4byte	0x25
 2773 02f7 B4000000 		.4byte	.LLST6
 2774 02fb 0B       		.uleb128 0xb
 2775 02fc 0A000000 		.4byte	.LVL27
 2776 0300 05020000 		.4byte	0x205
 2777 0304 00       		.byte	0
 2778 0305 17       		.uleb128 0x17
 2779 0306 39020000 		.4byte	.LASF36
 2780 030a 01       		.byte	0x1
 2781 030b 1F02     		.2byte	0x21f
ARM GAS  C:\Users\ANDREW~1\AppData\Local\Temp\ccsv3i4f.s 			page 69


 2782 030d 00000000 		.4byte	.LFB84
 2783 0311 34000000 		.4byte	.LFE84-.LFB84
 2784 0315 01       		.uleb128 0x1
 2785 0316 9C       		.byte	0x9c
 2786 0317 67030000 		.4byte	0x367
 2787 031b 16       		.uleb128 0x16
 2788 031c 29010000 		.4byte	.LASF35
 2789 0320 01       		.byte	0x1
 2790 0321 1F02     		.2byte	0x21f
 2791 0323 25000000 		.4byte	0x25
 2792 0327 DC000000 		.4byte	.LLST7
 2793 032b 11       		.uleb128 0x11
 2794 032c 1A030000 		.4byte	.LASF37
 2795 0330 01       		.byte	0x1
 2796 0331 2102     		.2byte	0x221
 2797 0333 25000000 		.4byte	0x25
 2798 0337 04010000 		.4byte	.LLST8
 2799 033b 0B       		.uleb128 0xb
 2800 033c 0A000000 		.4byte	.LVL29
 2801 0340 05020000 		.4byte	0x205
 2802 0344 0D       		.uleb128 0xd
 2803 0345 24000000 		.4byte	.LVL32
 2804 0349 A70E0000 		.4byte	0xea7
 2805 034d 57030000 		.4byte	0x357
 2806 0351 0E       		.uleb128 0xe
 2807 0352 01       		.uleb128 0x1
 2808 0353 50       		.byte	0x50
 2809 0354 01       		.uleb128 0x1
 2810 0355 30       		.byte	0x30
 2811 0356 00       		.byte	0
 2812 0357 0F       		.uleb128 0xf
 2813 0358 2C000000 		.4byte	.LVL33
 2814 035c A70E0000 		.4byte	0xea7
 2815 0360 0E       		.uleb128 0xe
 2816 0361 01       		.uleb128 0x1
 2817 0362 50       		.byte	0x50
 2818 0363 01       		.uleb128 0x1
 2819 0364 31       		.byte	0x31
 2820 0365 00       		.byte	0
 2821 0366 00       		.byte	0
 2822 0367 18       		.uleb128 0x18
 2823 0368 F6060000 		.4byte	.LASF47
 2824 036c 01       		.byte	0x1
 2825 036d 3902     		.2byte	0x239
 2826 036f 00000000 		.4byte	.LFB86
 2827 0373 14000000 		.4byte	.LFE86-.LFB86
 2828 0377 01       		.uleb128 0x1
 2829 0378 9C       		.byte	0x9c
 2830 0379 A9030000 		.4byte	0x3a9
 2831 037d 0D       		.uleb128 0xd
 2832 037e 08000000 		.4byte	.LVL34
 2833 0382 B20E0000 		.4byte	0xeb2
 2834 0386 90030000 		.4byte	0x390
 2835 038a 0E       		.uleb128 0xe
 2836 038b 01       		.uleb128 0x1
 2837 038c 50       		.byte	0x50
 2838 038d 01       		.uleb128 0x1
ARM GAS  C:\Users\ANDREW~1\AppData\Local\Temp\ccsv3i4f.s 			page 70


 2839 038e 31       		.byte	0x31
 2840 038f 00       		.byte	0
 2841 0390 0B       		.uleb128 0xb
 2842 0391 0C000000 		.4byte	.LVL35
 2843 0395 BD0E0000 		.4byte	0xebd
 2844 0399 0F       		.uleb128 0xf
 2845 039a 12000000 		.4byte	.LVL36
 2846 039e B20E0000 		.4byte	0xeb2
 2847 03a2 0E       		.uleb128 0xe
 2848 03a3 01       		.uleb128 0x1
 2849 03a4 50       		.byte	0x50
 2850 03a5 01       		.uleb128 0x1
 2851 03a6 30       		.byte	0x30
 2852 03a7 00       		.byte	0
 2853 03a8 00       		.byte	0
 2854 03a9 10       		.uleb128 0x10
 2855 03aa AD060000 		.4byte	.LASF38
 2856 03ae 01       		.byte	0x1
 2857 03af 2F02     		.2byte	0x22f
 2858 03b1 25000000 		.4byte	0x25
 2859 03b5 00000000 		.4byte	.LFB85
 2860 03b9 54000000 		.4byte	.LFE85-.LFB85
 2861 03bd 01       		.uleb128 0x1
 2862 03be 9C       		.byte	0x9c
 2863 03bf CD030000 		.4byte	0x3cd
 2864 03c3 0B       		.uleb128 0xb
 2865 03c4 06000000 		.4byte	.LVL37
 2866 03c8 67030000 		.4byte	0x367
 2867 03cc 00       		.byte	0
 2868 03cd 0A       		.uleb128 0xa
 2869 03ce 37000000 		.4byte	.LASF39
 2870 03d2 01       		.byte	0x1
 2871 03d3 5A02     		.2byte	0x25a
 2872 03d5 00000000 		.4byte	.LFB89
 2873 03d9 0C000000 		.4byte	.LFE89-.LFB89
 2874 03dd 01       		.uleb128 0x1
 2875 03de 9C       		.byte	0x9c
 2876 03df F7030000 		.4byte	0x3f7
 2877 03e3 19       		.uleb128 0x19
 2878 03e4 8C010000 		.4byte	.LASF40
 2879 03e8 01       		.byte	0x1
 2880 03e9 5A02     		.2byte	0x25a
 2881 03eb 25000000 		.4byte	0x25
 2882 03ef 06       		.uleb128 0x6
 2883 03f0 50       		.byte	0x50
 2884 03f1 93       		.byte	0x93
 2885 03f2 04       		.uleb128 0x4
 2886 03f3 51       		.byte	0x51
 2887 03f4 93       		.byte	0x93
 2888 03f5 04       		.uleb128 0x4
 2889 03f6 00       		.byte	0
 2890 03f7 0A       		.uleb128 0xa
 2891 03f8 E9030000 		.4byte	.LASF41
 2892 03fc 01       		.byte	0x1
 2893 03fd F402     		.2byte	0x2f4
 2894 03ff 00000000 		.4byte	.LFB91
 2895 0403 88000000 		.4byte	.LFE91-.LFB91
ARM GAS  C:\Users\ANDREW~1\AppData\Local\Temp\ccsv3i4f.s 			page 71


 2896 0407 01       		.uleb128 0x1
 2897 0408 9C       		.byte	0x9c
 2898 0409 AA040000 		.4byte	0x4aa
 2899 040d 16       		.uleb128 0x16
 2900 040e EC050000 		.4byte	.LASF42
 2901 0412 01       		.byte	0x1
 2902 0413 F402     		.2byte	0x2f4
 2903 0415 6F000000 		.4byte	0x6f
 2904 0419 1C010000 		.4byte	.LLST9
 2905 041d 12       		.uleb128 0x12
 2906 041e 647000   		.ascii	"dp\000"
 2907 0421 01       		.byte	0x1
 2908 0422 F402     		.2byte	0x2f4
 2909 0424 6F000000 		.4byte	0x6f
 2910 0428 3D010000 		.4byte	.LLST10
 2911 042c 11       		.uleb128 0x11
 2912 042d FE030000 		.4byte	.LASF43
 2913 0431 01       		.byte	0x1
 2914 0432 F602     		.2byte	0x2f6
 2915 0434 B0000000 		.4byte	0xb0
 2916 0438 69010000 		.4byte	.LLST11
 2917 043c 13       		.uleb128 0x13
 2918 043d 0A000000 		.4byte	.LBB4
 2919 0441 14000000 		.4byte	.LBE4-.LBB4
 2920 0445 58040000 		.4byte	0x458
 2921 0449 14       		.uleb128 0x14
 2922 044a 6900     		.ascii	"i\000"
 2923 044c 01       		.byte	0x1
 2924 044d F902     		.2byte	0x2f9
 2925 044f 6F000000 		.4byte	0x6f
 2926 0453 92010000 		.4byte	.LLST12
 2927 0457 00       		.byte	0
 2928 0458 0B       		.uleb128 0xb
 2929 0459 2C000000 		.4byte	.LVL49
 2930 045d C80E0000 		.4byte	0xec8
 2931 0461 0B       		.uleb128 0xb
 2932 0462 38000000 		.4byte	.LVL50
 2933 0466 D30E0000 		.4byte	0xed3
 2934 046a 0B       		.uleb128 0xb
 2935 046b 44000000 		.4byte	.LVL51
 2936 046f DE0E0000 		.4byte	0xede
 2937 0473 0B       		.uleb128 0xb
 2938 0474 50000000 		.4byte	.LVL52
 2939 0478 E90E0000 		.4byte	0xee9
 2940 047c 0B       		.uleb128 0xb
 2941 047d 5C000000 		.4byte	.LVL53
 2942 0481 F40E0000 		.4byte	0xef4
 2943 0485 0B       		.uleb128 0xb
 2944 0486 68000000 		.4byte	.LVL54
 2945 048a FF0E0000 		.4byte	0xeff
 2946 048e 0B       		.uleb128 0xb
 2947 048f 74000000 		.4byte	.LVL55
 2948 0493 0A0F0000 		.4byte	0xf0a
 2949 0497 0F       		.uleb128 0xf
 2950 0498 7E000000 		.4byte	.LVL56
 2951 049c 150F0000 		.4byte	0xf15
 2952 04a0 0E       		.uleb128 0xe
ARM GAS  C:\Users\ANDREW~1\AppData\Local\Temp\ccsv3i4f.s 			page 72


 2953 04a1 01       		.uleb128 0x1
 2954 04a2 50       		.byte	0x50
 2955 04a3 04       		.uleb128 0x4
 2956 04a4 75       		.byte	0x75
 2957 04a5 00       		.sleb128 0
 2958 04a6 30       		.byte	0x30
 2959 04a7 29       		.byte	0x29
 2960 04a8 00       		.byte	0
 2961 04a9 00       		.byte	0
 2962 04aa 17       		.uleb128 0x17
 2963 04ab 43060000 		.4byte	.LASF44
 2964 04af 01       		.byte	0x1
 2965 04b0 5E02     		.2byte	0x25e
 2966 04b2 00000000 		.4byte	.LFB90
 2967 04b6 24030000 		.4byte	.LFE90-.LFB90
 2968 04ba 01       		.uleb128 0x1
 2969 04bb 9C       		.byte	0x9c
 2970 04bc DC050000 		.4byte	0x5dc
 2971 04c0 16       		.uleb128 0x16
 2972 04c1 8C010000 		.4byte	.LASF40
 2973 04c5 01       		.byte	0x1
 2974 04c6 5E02     		.2byte	0x25e
 2975 04c8 25000000 		.4byte	0x25
 2976 04cc B1010000 		.4byte	.LLST13
 2977 04d0 13       		.uleb128 0x13
 2978 04d1 32000000 		.4byte	.LBB5
 2979 04d5 48010000 		.4byte	.LBE5-.LBB5
 2980 04d9 3E050000 		.4byte	0x53e
 2981 04dd 11       		.uleb128 0x11
 2982 04de C1040000 		.4byte	.LASF45
 2983 04e2 01       		.byte	0x1
 2984 04e3 6902     		.2byte	0x269
 2985 04e5 6F000000 		.4byte	0x6f
 2986 04e9 49020000 		.4byte	.LLST14
 2987 04ed 1A       		.uleb128 0x1a
 2988 04ee 00000000 		.4byte	.Ldebug_ranges0+0
 2989 04f2 07050000 		.4byte	0x507
 2990 04f6 11       		.uleb128 0x11
 2991 04f7 6C010000 		.4byte	.LASF46
 2992 04fb 01       		.byte	0x1
 2993 04fc 7202     		.2byte	0x272
 2994 04fe 6F000000 		.4byte	0x6f
 2995 0502 96020000 		.4byte	.LLST15
 2996 0506 00       		.byte	0
 2997 0507 13       		.uleb128 0x13
 2998 0508 DC000000 		.4byte	.LBB8
 2999 050c 7A000000 		.4byte	.LBE8-.LBB8
 3000 0510 25050000 		.4byte	0x525
 3001 0514 11       		.uleb128 0x11
 3002 0515 6C010000 		.4byte	.LASF46
 3003 0519 01       		.byte	0x1
 3004 051a 7B02     		.2byte	0x27b
 3005 051c 6F000000 		.4byte	0x6f
 3006 0520 A9020000 		.4byte	.LLST16
 3007 0524 00       		.byte	0
 3008 0525 15       		.uleb128 0x15
 3009 0526 56010000 		.4byte	.LBB9
ARM GAS  C:\Users\ANDREW~1\AppData\Local\Temp\ccsv3i4f.s 			page 73


 3010 052a 14000000 		.4byte	.LBE9-.LBB9
 3011 052e 14       		.uleb128 0x14
 3012 052f 6900     		.ascii	"i\000"
 3013 0531 01       		.byte	0x1
 3014 0532 8502     		.2byte	0x285
 3015 0534 6F000000 		.4byte	0x6f
 3016 0538 BC020000 		.4byte	.LLST17
 3017 053c 00       		.byte	0
 3018 053d 00       		.byte	0
 3019 053e 0D       		.uleb128 0xd
 3020 053f 86020000 		.4byte	.LVL91
 3021 0543 200F0000 		.4byte	0xf20
 3022 0547 51050000 		.4byte	0x551
 3023 054b 0E       		.uleb128 0xe
 3024 054c 01       		.uleb128 0x1
 3025 054d 50       		.byte	0x50
 3026 054e 01       		.uleb128 0x1
 3027 054f 31       		.byte	0x31
 3028 0550 00       		.byte	0
 3029 0551 0D       		.uleb128 0xd
 3030 0552 8C020000 		.4byte	.LVL92
 3031 0556 2B0F0000 		.4byte	0xf2b
 3032 055a 64050000 		.4byte	0x564
 3033 055e 0E       		.uleb128 0xe
 3034 055f 01       		.uleb128 0x1
 3035 0560 50       		.byte	0x50
 3036 0561 01       		.uleb128 0x1
 3037 0562 31       		.byte	0x31
 3038 0563 00       		.byte	0
 3039 0564 0D       		.uleb128 0xd
 3040 0565 92020000 		.4byte	.LVL93
 3041 0569 360F0000 		.4byte	0xf36
 3042 056d 77050000 		.4byte	0x577
 3043 0571 0E       		.uleb128 0xe
 3044 0572 01       		.uleb128 0x1
 3045 0573 50       		.byte	0x50
 3046 0574 01       		.uleb128 0x1
 3047 0575 31       		.byte	0x31
 3048 0576 00       		.byte	0
 3049 0577 0D       		.uleb128 0xd
 3050 0578 98020000 		.4byte	.LVL94
 3051 057c 410F0000 		.4byte	0xf41
 3052 0580 8A050000 		.4byte	0x58a
 3053 0584 0E       		.uleb128 0xe
 3054 0585 01       		.uleb128 0x1
 3055 0586 50       		.byte	0x50
 3056 0587 01       		.uleb128 0x1
 3057 0588 31       		.byte	0x31
 3058 0589 00       		.byte	0
 3059 058a 0B       		.uleb128 0xb
 3060 058b AE020000 		.4byte	.LVL95
 3061 058f F7030000 		.4byte	0x3f7
 3062 0593 0D       		.uleb128 0xd
 3063 0594 B8020000 		.4byte	.LVL96
 3064 0598 200F0000 		.4byte	0xf20
 3065 059c A6050000 		.4byte	0x5a6
 3066 05a0 0E       		.uleb128 0xe
ARM GAS  C:\Users\ANDREW~1\AppData\Local\Temp\ccsv3i4f.s 			page 74


 3067 05a1 01       		.uleb128 0x1
 3068 05a2 50       		.byte	0x50
 3069 05a3 01       		.uleb128 0x1
 3070 05a4 30       		.byte	0x30
 3071 05a5 00       		.byte	0
 3072 05a6 0D       		.uleb128 0xd
 3073 05a7 C4020000 		.4byte	.LVL97
 3074 05ab 2B0F0000 		.4byte	0xf2b
 3075 05af B9050000 		.4byte	0x5b9
 3076 05b3 0E       		.uleb128 0xe
 3077 05b4 01       		.uleb128 0x1
 3078 05b5 50       		.byte	0x50
 3079 05b6 01       		.uleb128 0x1
 3080 05b7 30       		.byte	0x30
 3081 05b8 00       		.byte	0
 3082 05b9 0D       		.uleb128 0xd
 3083 05ba D0020000 		.4byte	.LVL98
 3084 05be 360F0000 		.4byte	0xf36
 3085 05c2 CC050000 		.4byte	0x5cc
 3086 05c6 0E       		.uleb128 0xe
 3087 05c7 01       		.uleb128 0x1
 3088 05c8 50       		.byte	0x50
 3089 05c9 01       		.uleb128 0x1
 3090 05ca 30       		.byte	0x30
 3091 05cb 00       		.byte	0
 3092 05cc 0F       		.uleb128 0xf
 3093 05cd 16030000 		.4byte	.LVL99
 3094 05d1 410F0000 		.4byte	0xf41
 3095 05d5 0E       		.uleb128 0xe
 3096 05d6 01       		.uleb128 0x1
 3097 05d7 50       		.byte	0x50
 3098 05d8 01       		.uleb128 0x1
 3099 05d9 30       		.byte	0x30
 3100 05da 00       		.byte	0
 3101 05db 00       		.byte	0
 3102 05dc 18       		.uleb128 0x18
 3103 05dd 76020000 		.4byte	.LASF48
 3104 05e1 01       		.byte	0x1
 3105 05e2 BF01     		.2byte	0x1bf
 3106 05e4 00000000 		.4byte	.LFB80
 3107 05e8 1C000000 		.4byte	.LFE80-.LFB80
 3108 05ec 01       		.uleb128 0x1
 3109 05ed 9C       		.byte	0x9c
 3110 05ee 05060000 		.4byte	0x605
 3111 05f2 0B       		.uleb128 0xb
 3112 05f3 0C000000 		.4byte	.LVL100
 3113 05f7 05030000 		.4byte	0x305
 3114 05fb 0B       		.uleb128 0xb
 3115 05fc 14000000 		.4byte	.LVL101
 3116 0600 AA040000 		.4byte	0x4aa
 3117 0604 00       		.byte	0
 3118 0605 1B       		.uleb128 0x1b
 3119 0606 7A070000 		.4byte	.LASF136
 3120 060a 01       		.byte	0x1
 3121 060b 64       		.byte	0x64
 3122 060c 6F000000 		.4byte	0x6f
 3123 0610 00000000 		.4byte	.LFB68
ARM GAS  C:\Users\ANDREW~1\AppData\Local\Temp\ccsv3i4f.s 			page 75


 3124 0614 70010000 		.4byte	.LFE68-.LFB68
 3125 0618 01       		.uleb128 0x1
 3126 0619 9C       		.byte	0x9c
 3127 061a 30080000 		.4byte	0x830
 3128 061e 1C       		.uleb128 0x1c
 3129 061f 73010000 		.4byte	.LASF49
 3130 0623 01       		.byte	0x1
 3131 0624 92       		.byte	0x92
 3132 0625 25000000 		.4byte	0x25
 3133 0629 06       		.uleb128 0x6
 3134 062a 54       		.byte	0x54
 3135 062b 93       		.byte	0x93
 3136 062c 04       		.uleb128 0x4
 3137 062d 55       		.byte	0x55
 3138 062e 93       		.byte	0x93
 3139 062f 04       		.uleb128 0x4
 3140 0630 0B       		.uleb128 0xb
 3141 0631 08000000 		.4byte	.LVL102
 3142 0635 4C0F0000 		.4byte	0xf4c
 3143 0639 0B       		.uleb128 0xb
 3144 063a 0C000000 		.4byte	.LVL103
 3145 063e 570F0000 		.4byte	0xf57
 3146 0642 0B       		.uleb128 0xb
 3147 0643 10000000 		.4byte	.LVL104
 3148 0647 620F0000 		.4byte	0xf62
 3149 064b 0B       		.uleb128 0xb
 3150 064c 14000000 		.4byte	.LVL105
 3151 0650 6D0F0000 		.4byte	0xf6d
 3152 0654 0B       		.uleb128 0xb
 3153 0655 18000000 		.4byte	.LVL106
 3154 0659 780F0000 		.4byte	0xf78
 3155 065d 0D       		.uleb128 0xd
 3156 065e 1E000000 		.4byte	.LVL107
 3157 0662 830F0000 		.4byte	0xf83
 3158 0666 74060000 		.4byte	0x674
 3159 066a 0E       		.uleb128 0xe
 3160 066b 01       		.uleb128 0x1
 3161 066c 50       		.byte	0x50
 3162 066d 05       		.uleb128 0x5
 3163 066e 03       		.byte	0x3
 3164 066f 00000000 		.4byte	button1ISR
 3165 0673 00       		.byte	0
 3166 0674 0D       		.uleb128 0xd
 3167 0675 24000000 		.4byte	.LVL108
 3168 0679 8E0F0000 		.4byte	0xf8e
 3169 067d 8B060000 		.4byte	0x68b
 3170 0681 0E       		.uleb128 0xe
 3171 0682 01       		.uleb128 0x1
 3172 0683 50       		.byte	0x50
 3173 0684 05       		.uleb128 0x5
 3174 0685 03       		.byte	0x3
 3175 0686 00000000 		.4byte	button2ISR
 3176 068a 00       		.byte	0
 3177 068b 0D       		.uleb128 0xd
 3178 068c 2A000000 		.4byte	.LVL109
 3179 0690 990F0000 		.4byte	0xf99
 3180 0694 A2060000 		.4byte	0x6a2
ARM GAS  C:\Users\ANDREW~1\AppData\Local\Temp\ccsv3i4f.s 			page 76


 3181 0698 0E       		.uleb128 0xe
 3182 0699 01       		.uleb128 0x1
 3183 069a 50       		.byte	0x50
 3184 069b 05       		.uleb128 0x5
 3185 069c 03       		.byte	0x3
 3186 069d 00000000 		.4byte	button3ISR
 3187 06a1 00       		.byte	0
 3188 06a2 0D       		.uleb128 0xd
 3189 06a3 30000000 		.4byte	.LVL110
 3190 06a7 A40F0000 		.4byte	0xfa4
 3191 06ab B9060000 		.4byte	0x6b9
 3192 06af 0E       		.uleb128 0xe
 3193 06b0 01       		.uleb128 0x1
 3194 06b1 50       		.byte	0x50
 3195 06b2 05       		.uleb128 0x5
 3196 06b3 03       		.byte	0x3
 3197 06b4 00000000 		.4byte	button4ISR
 3198 06b8 00       		.byte	0
 3199 06b9 0D       		.uleb128 0xd
 3200 06ba 36000000 		.4byte	.LVL111
 3201 06be AF0F0000 		.4byte	0xfaf
 3202 06c2 D0060000 		.4byte	0x6d0
 3203 06c6 0E       		.uleb128 0xe
 3204 06c7 01       		.uleb128 0x1
 3205 06c8 50       		.byte	0x50
 3206 06c9 05       		.uleb128 0x5
 3207 06ca 03       		.byte	0x3
 3208 06cb 00000000 		.4byte	button5ISR
 3209 06cf 00       		.byte	0
 3210 06d0 0B       		.uleb128 0xb
 3211 06d1 3A000000 		.4byte	.LVL112
 3212 06d5 BA0F0000 		.4byte	0xfba
 3213 06d9 0D       		.uleb128 0xd
 3214 06da 40000000 		.4byte	.LVL113
 3215 06de C50F0000 		.4byte	0xfc5
 3216 06e2 F0060000 		.4byte	0x6f0
 3217 06e6 0E       		.uleb128 0xe
 3218 06e7 01       		.uleb128 0x1
 3219 06e8 50       		.byte	0x50
 3220 06e9 05       		.uleb128 0x5
 3221 06ea 03       		.byte	0x3
 3222 06eb 00000000 		.4byte	seg7_ISR
 3223 06ef 00       		.byte	0
 3224 06f0 0B       		.uleb128 0xb
 3225 06f1 44000000 		.4byte	.LVL114
 3226 06f5 D00F0000 		.4byte	0xfd0
 3227 06f9 0D       		.uleb128 0xd
 3228 06fa 4A000000 		.4byte	.LVL115
 3229 06fe DB0F0000 		.4byte	0xfdb
 3230 0702 0C070000 		.4byte	0x70c
 3231 0706 0E       		.uleb128 0xe
 3232 0707 01       		.uleb128 0x1
 3233 0708 50       		.byte	0x50
 3234 0709 01       		.uleb128 0x1
 3235 070a 33       		.byte	0x33
 3236 070b 00       		.byte	0
 3237 070c 0D       		.uleb128 0xd
ARM GAS  C:\Users\ANDREW~1\AppData\Local\Temp\ccsv3i4f.s 			page 77


 3238 070d 50000000 		.4byte	.LVL116
 3239 0711 E60F0000 		.4byte	0xfe6
 3240 0715 23070000 		.4byte	0x723
 3241 0719 0E       		.uleb128 0xe
 3242 071a 01       		.uleb128 0x1
 3243 071b 50       		.byte	0x50
 3244 071c 05       		.uleb128 0x5
 3245 071d 03       		.byte	0x3
 3246 071e 00000000 		.4byte	Receive_Ultra
 3247 0722 00       		.byte	0
 3248 0723 0B       		.uleb128 0xb
 3249 0724 54000000 		.4byte	.LVL117
 3250 0728 F10F0000 		.4byte	0xff1
 3251 072c 0B       		.uleb128 0xb
 3252 072d 58000000 		.4byte	.LVL118
 3253 0731 FC0F0000 		.4byte	0xffc
 3254 0735 0B       		.uleb128 0xb
 3255 0736 5C000000 		.4byte	.LVL119
 3256 073a 07100000 		.4byte	0x1007
 3257 073e 0B       		.uleb128 0xb
 3258 073f 60000000 		.4byte	.LVL120
 3259 0743 12100000 		.4byte	0x1012
 3260 0747 0B       		.uleb128 0xb
 3261 0748 64000000 		.4byte	.LVL121
 3262 074c 1D100000 		.4byte	0x101d
 3263 0750 0D       		.uleb128 0xd
 3264 0751 6A000000 		.4byte	.LVL122
 3265 0755 28100000 		.4byte	0x1028
 3266 0759 63070000 		.4byte	0x763
 3267 075d 0E       		.uleb128 0xe
 3268 075e 01       		.uleb128 0x1
 3269 075f 50       		.byte	0x50
 3270 0760 01       		.uleb128 0x1
 3271 0761 33       		.byte	0x33
 3272 0762 00       		.byte	0
 3273 0763 0B       		.uleb128 0xb
 3274 0764 6E000000 		.4byte	.LVL123
 3275 0768 33100000 		.4byte	0x1033
 3276 076c 0B       		.uleb128 0xb
 3277 076d 72000000 		.4byte	.LVL124
 3278 0771 3E100000 		.4byte	0x103e
 3279 0775 0B       		.uleb128 0xb
 3280 0776 76000000 		.4byte	.LVL125
 3281 077a 49100000 		.4byte	0x1049
 3282 077e 0D       		.uleb128 0xd
 3283 077f 7C000000 		.4byte	.LVL126
 3284 0783 54100000 		.4byte	0x1054
 3285 0787 95070000 		.4byte	0x795
 3286 078b 0E       		.uleb128 0xe
 3287 078c 01       		.uleb128 0x1
 3288 078d 50       		.byte	0x50
 3289 078e 05       		.uleb128 0x5
 3290 078f 03       		.byte	0x3
 3291 0790 00000000 		.4byte	.LC0
 3292 0794 00       		.byte	0
 3293 0795 0B       		.uleb128 0xb
 3294 0796 80000000 		.4byte	.LVL127
ARM GAS  C:\Users\ANDREW~1\AppData\Local\Temp\ccsv3i4f.s 			page 78


 3295 079a 05020000 		.4byte	0x205
 3296 079e 0B       		.uleb128 0xb
 3297 079f 8A000000 		.4byte	.LVL129
 3298 07a3 05020000 		.4byte	0x205
 3299 07a7 0B       		.uleb128 0xb
 3300 07a8 A0000000 		.4byte	.LVL132
 3301 07ac CD030000 		.4byte	0x3cd
 3302 07b0 0B       		.uleb128 0xb
 3303 07b1 A4000000 		.4byte	.LVL133
 3304 07b5 05020000 		.4byte	0x205
 3305 07b9 0B       		.uleb128 0xb
 3306 07ba BC000000 		.4byte	.LVL136
 3307 07be CD030000 		.4byte	0x3cd
 3308 07c2 0B       		.uleb128 0xb
 3309 07c3 C0000000 		.4byte	.LVL137
 3310 07c7 05020000 		.4byte	0x205
 3311 07cb 0B       		.uleb128 0xb
 3312 07cc D8000000 		.4byte	.LVL140
 3313 07d0 CD030000 		.4byte	0x3cd
 3314 07d4 0B       		.uleb128 0xb
 3315 07d5 DC000000 		.4byte	.LVL141
 3316 07d9 05020000 		.4byte	0x205
 3317 07dd 0B       		.uleb128 0xb
 3318 07de F4000000 		.4byte	.LVL144
 3319 07e2 CD030000 		.4byte	0x3cd
 3320 07e6 0B       		.uleb128 0xb
 3321 07e7 F8000000 		.4byte	.LVL145
 3322 07eb DC050000 		.4byte	0x5dc
 3323 07ef 0B       		.uleb128 0xb
 3324 07f0 FC000000 		.4byte	.LVL146
 3325 07f4 05020000 		.4byte	0x205
 3326 07f8 0B       		.uleb128 0xb
 3327 07f9 14010000 		.4byte	.LVL149
 3328 07fd 5F100000 		.4byte	0x105f
 3329 0801 0D       		.uleb128 0xd
 3330 0802 1E010000 		.4byte	.LVL150
 3331 0806 5F100000 		.4byte	0x105f
 3332 080a 14080000 		.4byte	0x814
 3333 080e 0E       		.uleb128 0xe
 3334 080f 01       		.uleb128 0x1
 3335 0810 50       		.byte	0x50
 3336 0811 01       		.uleb128 0x1
 3337 0812 34       		.byte	0x34
 3338 0813 00       		.byte	0
 3339 0814 0B       		.uleb128 0xb
 3340 0815 26010000 		.4byte	.LVL151
 3341 0819 6A100000 		.4byte	0x106a
 3342 081d 0B       		.uleb128 0xb
 3343 081e 2E010000 		.4byte	.LVL153
 3344 0822 CD030000 		.4byte	0x3cd
 3345 0826 0B       		.uleb128 0xb
 3346 0827 32010000 		.4byte	.LVL154
 3347 082b DC050000 		.4byte	0x5dc
 3348 082f 00       		.byte	0
 3349 0830 1D       		.uleb128 0x1d
 3350 0831 9F060000 		.4byte	.LASF50
 3351 0835 01       		.byte	0x1
ARM GAS  C:\Users\ANDREW~1\AppData\Local\Temp\ccsv3i4f.s 			page 79


 3352 0836 E5       		.byte	0xe5
 3353 0837 00000000 		.4byte	.LFB72
 3354 083b 20010000 		.4byte	.LFE72-.LFB72
 3355 083f 01       		.uleb128 0x1
 3356 0840 9C       		.byte	0x9c
 3357 0841 5C090000 		.4byte	0x95c
 3358 0845 1E       		.uleb128 0x1e
 3359 0846 20000000 		.4byte	.LASF51
 3360 084a 01       		.byte	0x1
 3361 084b E7       		.byte	0xe7
 3362 084c 25000000 		.4byte	0x25
 3363 0850 DB020000 		.4byte	.LLST18
 3364 0854 13       		.uleb128 0x13
 3365 0855 0C000000 		.4byte	.LBB10
 3366 0859 F2000000 		.4byte	.LBE10-.LBB10
 3367 085d 52090000 		.4byte	0x952
 3368 0861 1E       		.uleb128 0x1e
 3369 0862 1A030000 		.4byte	.LASF37
 3370 0866 01       		.byte	0x1
 3371 0867 EB       		.byte	0xeb
 3372 0868 25000000 		.4byte	0x25
 3373 086c 03030000 		.4byte	.LLST19
 3374 0870 13       		.uleb128 0x13
 3375 0871 72000000 		.4byte	.LBB11
 3376 0875 8C000000 		.4byte	.LBE11-.LBB11
 3377 0879 12090000 		.4byte	0x912
 3378 087d 1E       		.uleb128 0x1e
 3379 087e 00000000 		.4byte	.LASF52
 3380 0882 01       		.byte	0x1
 3381 0883 FE       		.byte	0xfe
 3382 0884 25000000 		.4byte	0x25
 3383 0888 1B030000 		.4byte	.LLST20
 3384 088c 0B       		.uleb128 0xb
 3385 088d 76000000 		.4byte	.LVL171
 3386 0891 05020000 		.4byte	0x205
 3387 0895 0B       		.uleb128 0xb
 3388 0896 80000000 		.4byte	.LVL174
 3389 089a DC050000 		.4byte	0x5dc
 3390 089e 0B       		.uleb128 0xb
 3391 089f 84000000 		.4byte	.LVL175
 3392 08a3 05020000 		.4byte	0x205
 3393 08a7 0B       		.uleb128 0xb
 3394 08a8 9E000000 		.4byte	.LVL178
 3395 08ac 7E010000 		.4byte	0x17e
 3396 08b0 0B       		.uleb128 0xb
 3397 08b1 A6000000 		.4byte	.LVL180
 3398 08b5 54010000 		.4byte	0x154
 3399 08b9 0D       		.uleb128 0xd
 3400 08ba B2000000 		.4byte	.LVL181
 3401 08be D5020000 		.4byte	0x2d5
 3402 08c2 DB080000 		.4byte	0x8db
 3403 08c6 0E       		.uleb128 0xe
 3404 08c7 06       		.uleb128 0x6
 3405 08c8 50       		.byte	0x50
 3406 08c9 93       		.byte	0x93
 3407 08ca 04       		.uleb128 0x4
 3408 08cb 51       		.byte	0x51
ARM GAS  C:\Users\ANDREW~1\AppData\Local\Temp\ccsv3i4f.s 			page 80


 3409 08cc 93       		.byte	0x93
 3410 08cd 04       		.uleb128 0x4
 3411 08ce 0B       		.uleb128 0xb
 3412 08cf F4       		.byte	0xf4
 3413 08d0 25       		.uleb128 0x25
 3414 08d1 08       		.byte	0x8
 3415 08d2 9A999999 		.4byte	0x9999999a
 3416 08d6 9999C93F 		.4byte	0x3fc99999
 3417 08da 00       		.byte	0
 3418 08db 0B       		.uleb128 0xb
 3419 08dc B6000000 		.4byte	.LVL182
 3420 08e0 05020000 		.4byte	0x205
 3421 08e4 0B       		.uleb128 0xb
 3422 08e5 C0000000 		.4byte	.LVL184
 3423 08e9 DC050000 		.4byte	0x5dc
 3424 08ed 0B       		.uleb128 0xb
 3425 08ee C4000000 		.4byte	.LVL185
 3426 08f2 05020000 		.4byte	0x205
 3427 08f6 0B       		.uleb128 0xb
 3428 08f7 E2000000 		.4byte	.LVL188
 3429 08fb 7E010000 		.4byte	0x17e
 3430 08ff 0B       		.uleb128 0xb
 3431 0900 E8000000 		.4byte	.LVL189
 3432 0904 54010000 		.4byte	0x154
 3433 0908 0B       		.uleb128 0xb
 3434 0909 F4000000 		.4byte	.LVL191
 3435 090d 54010000 		.4byte	0x154
 3436 0911 00       		.byte	0
 3437 0912 0B       		.uleb128 0xb
 3438 0913 10000000 		.4byte	.LVL157
 3439 0917 DC050000 		.4byte	0x5dc
 3440 091b 0B       		.uleb128 0xb
 3441 091c 14000000 		.4byte	.LVL158
 3442 0920 05020000 		.4byte	0x205
 3443 0924 0B       		.uleb128 0xb
 3444 0925 32000000 		.4byte	.LVL162
 3445 0929 CD030000 		.4byte	0x3cd
 3446 092d 0B       		.uleb128 0xb
 3447 092e 5A000000 		.4byte	.LVL165
 3448 0932 CD030000 		.4byte	0x3cd
 3449 0936 0B       		.uleb128 0xb
 3450 0937 60000000 		.4byte	.LVL166
 3451 093b 05020000 		.4byte	0x205
 3452 093f 0B       		.uleb128 0xb
 3453 0940 68000000 		.4byte	.LVL169
 3454 0944 7E010000 		.4byte	0x17e
 3455 0948 0B       		.uleb128 0xb
 3456 0949 6E000000 		.4byte	.LVL170
 3457 094d 54010000 		.4byte	0x154
 3458 0951 00       		.byte	0
 3459 0952 0B       		.uleb128 0xb
 3460 0953 06000000 		.4byte	.LVL155
 3461 0957 05020000 		.4byte	0x205
 3462 095b 00       		.byte	0
 3463 095c 17       		.uleb128 0x17
 3464 095d BB060000 		.4byte	.LASF53
 3465 0961 01       		.byte	0x1
ARM GAS  C:\Users\ANDREW~1\AppData\Local\Temp\ccsv3i4f.s 			page 81


 3466 0962 7801     		.2byte	0x178
 3467 0964 00000000 		.4byte	.LFB75
 3468 0968 74000000 		.4byte	.LFE75-.LFB75
 3469 096c 01       		.uleb128 0x1
 3470 096d 9C       		.byte	0x9c
 3471 096e E7090000 		.4byte	0x9e7
 3472 0972 11       		.uleb128 0x11
 3473 0973 C3000000 		.4byte	.LASF54
 3474 0977 01       		.byte	0x1
 3475 0978 7B01     		.2byte	0x17b
 3476 097a 6F000000 		.4byte	0x6f
 3477 097e 43030000 		.4byte	.LLST21
 3478 0982 11       		.uleb128 0x11
 3479 0983 20000000 		.4byte	.LASF51
 3480 0987 01       		.byte	0x1
 3481 0988 7C01     		.2byte	0x17c
 3482 098a 25000000 		.4byte	0x25
 3483 098e 90030000 		.4byte	.LLST22
 3484 0992 0B       		.uleb128 0xb
 3485 0993 0A000000 		.4byte	.LVL195
 3486 0997 DC050000 		.4byte	0x5dc
 3487 099b 0B       		.uleb128 0xb
 3488 099c 10000000 		.4byte	.LVL196
 3489 09a0 A9030000 		.4byte	0x3a9
 3490 09a4 0B       		.uleb128 0xb
 3491 09a5 1A000000 		.4byte	.LVL197
 3492 09a9 05020000 		.4byte	0x205
 3493 09ad 0B       		.uleb128 0xb
 3494 09ae 2A000000 		.4byte	.LVL201
 3495 09b2 CD030000 		.4byte	0x3cd
 3496 09b6 0B       		.uleb128 0xb
 3497 09b7 2E000000 		.4byte	.LVL202
 3498 09bb 05020000 		.4byte	0x205
 3499 09bf 0B       		.uleb128 0xb
 3500 09c0 46000000 		.4byte	.LVL205
 3501 09c4 7E010000 		.4byte	0x17e
 3502 09c8 0F       		.uleb128 0xf
 3503 09c9 52000000 		.4byte	.LVL206
 3504 09cd D5020000 		.4byte	0x2d5
 3505 09d1 0E       		.uleb128 0xe
 3506 09d2 06       		.uleb128 0x6
 3507 09d3 50       		.byte	0x50
 3508 09d4 93       		.byte	0x93
 3509 09d5 04       		.uleb128 0x4
 3510 09d6 51       		.byte	0x51
 3511 09d7 93       		.byte	0x93
 3512 09d8 04       		.uleb128 0x4
 3513 09d9 0B       		.uleb128 0xb
 3514 09da F4       		.byte	0xf4
 3515 09db 25       		.uleb128 0x25
 3516 09dc 08       		.byte	0x8
 3517 09dd 9A999999 		.4byte	0x9999999a
 3518 09e1 9999C93F 		.4byte	0x3fc99999
 3519 09e5 00       		.byte	0
 3520 09e6 00       		.byte	0
 3521 09e7 0A       		.uleb128 0xa
 3522 09e8 FE020000 		.4byte	.LASF55
ARM GAS  C:\Users\ANDREW~1\AppData\Local\Temp\ccsv3i4f.s 			page 82


 3523 09ec 01       		.byte	0x1
 3524 09ed AD01     		.2byte	0x1ad
 3525 09ef 00000000 		.4byte	.LFB78
 3526 09f3 22000000 		.4byte	.LFE78-.LFB78
 3527 09f7 01       		.uleb128 0x1
 3528 09f8 9C       		.byte	0x9c
 3529 09f9 220A0000 		.4byte	0xa22
 3530 09fd 0B       		.uleb128 0xb
 3531 09fe 08000000 		.4byte	.LVL210
 3532 0a02 DC050000 		.4byte	0x5dc
 3533 0a06 0B       		.uleb128 0xb
 3534 0a07 0C000000 		.4byte	.LVL211
 3535 0a0b 69010000 		.4byte	0x169
 3536 0a0f 0B       		.uleb128 0xb
 3537 0a10 14000000 		.4byte	.LVL212
 3538 0a14 7E010000 		.4byte	0x17e
 3539 0a18 0B       		.uleb128 0xb
 3540 0a19 1C000000 		.4byte	.LVL213
 3541 0a1d 54010000 		.4byte	0x154
 3542 0a21 00       		.byte	0
 3543 0a22 17       		.uleb128 0x17
 3544 0a23 A6060000 		.4byte	.LASF56
 3545 0a27 01       		.byte	0x1
 3546 0a28 1D01     		.2byte	0x11d
 3547 0a2a 00000000 		.4byte	.LFB73
 3548 0a2e D8000000 		.4byte	.LFE73-.LFB73
 3549 0a32 01       		.uleb128 0x1
 3550 0a33 9C       		.byte	0x9c
 3551 0a34 280B0000 		.4byte	0xb28
 3552 0a38 11       		.uleb128 0x11
 3553 0a39 20000000 		.4byte	.LASF51
 3554 0a3d 01       		.byte	0x1
 3555 0a3e 1F01     		.2byte	0x11f
 3556 0a40 25000000 		.4byte	0x25
 3557 0a44 B8030000 		.4byte	.LLST23
 3558 0a48 15       		.uleb128 0x15
 3559 0a49 08000000 		.4byte	.LBB12
 3560 0a4d AC000000 		.4byte	.LBE12-.LBB12
 3561 0a51 11       		.uleb128 0x11
 3562 0a52 1A030000 		.4byte	.LASF37
 3563 0a56 01       		.byte	0x1
 3564 0a57 2401     		.2byte	0x124
 3565 0a59 25000000 		.4byte	0x25
 3566 0a5d F4030000 		.4byte	.LLST24
 3567 0a61 0B       		.uleb128 0xb
 3568 0a62 0C000000 		.4byte	.LVL216
 3569 0a66 DC050000 		.4byte	0x5dc
 3570 0a6a 0B       		.uleb128 0xb
 3571 0a6b 10000000 		.4byte	.LVL217
 3572 0a6f 05020000 		.4byte	0x205
 3573 0a73 0B       		.uleb128 0xb
 3574 0a74 32000000 		.4byte	.LVL222
 3575 0a78 CD030000 		.4byte	0x3cd
 3576 0a7c 0B       		.uleb128 0xb
 3577 0a7d 58000000 		.4byte	.LVL225
 3578 0a81 CD030000 		.4byte	0x3cd
 3579 0a85 0B       		.uleb128 0xb
ARM GAS  C:\Users\ANDREW~1\AppData\Local\Temp\ccsv3i4f.s 			page 83


 3580 0a86 5E000000 		.4byte	.LVL226
 3581 0a8a 05020000 		.4byte	0x205
 3582 0a8e 0B       		.uleb128 0xb
 3583 0a8f 66000000 		.4byte	.LVL229
 3584 0a93 69010000 		.4byte	0x169
 3585 0a97 0B       		.uleb128 0xb
 3586 0a98 6C000000 		.4byte	.LVL230
 3587 0a9c E7090000 		.4byte	0x9e7
 3588 0aa0 0D       		.uleb128 0xd
 3589 0aa1 76000000 		.4byte	.LVL231
 3590 0aa5 D5020000 		.4byte	0x2d5
 3591 0aa9 C20A0000 		.4byte	0xac2
 3592 0aad 0E       		.uleb128 0xe
 3593 0aae 06       		.uleb128 0x6
 3594 0aaf 50       		.byte	0x50
 3595 0ab0 93       		.byte	0x93
 3596 0ab1 04       		.uleb128 0x4
 3597 0ab2 51       		.byte	0x51
 3598 0ab3 93       		.byte	0x93
 3599 0ab4 04       		.uleb128 0x4
 3600 0ab5 0B       		.uleb128 0xb
 3601 0ab6 F4       		.byte	0xf4
 3602 0ab7 25       		.uleb128 0x25
 3603 0ab8 08       		.byte	0x8
 3604 0ab9 9A999999 		.4byte	0x9999999a
 3605 0abd 9999C93F 		.4byte	0x3fc99999
 3606 0ac1 00       		.byte	0
 3607 0ac2 0B       		.uleb128 0xb
 3608 0ac3 80000000 		.4byte	.LVL232
 3609 0ac7 7E010000 		.4byte	0x17e
 3610 0acb 0B       		.uleb128 0xb
 3611 0acc 86000000 		.4byte	.LVL233
 3612 0ad0 E7090000 		.4byte	0x9e7
 3613 0ad4 0D       		.uleb128 0xd
 3614 0ad5 90000000 		.4byte	.LVL234
 3615 0ad9 D5020000 		.4byte	0x2d5
 3616 0add F60A0000 		.4byte	0xaf6
 3617 0ae1 0E       		.uleb128 0xe
 3618 0ae2 06       		.uleb128 0x6
 3619 0ae3 50       		.byte	0x50
 3620 0ae4 93       		.byte	0x93
 3621 0ae5 04       		.uleb128 0x4
 3622 0ae6 51       		.byte	0x51
 3623 0ae7 93       		.byte	0x93
 3624 0ae8 04       		.uleb128 0x4
 3625 0ae9 0B       		.uleb128 0xb
 3626 0aea F4       		.byte	0xf4
 3627 0aeb 25       		.uleb128 0x25
 3628 0aec 08       		.byte	0x8
 3629 0aed 9A999999 		.4byte	0x9999999a
 3630 0af1 9999C93F 		.4byte	0x3fc99999
 3631 0af5 00       		.byte	0
 3632 0af6 0B       		.uleb128 0xb
 3633 0af7 9C000000 		.4byte	.LVL235
 3634 0afb 54010000 		.4byte	0x154
 3635 0aff 0B       		.uleb128 0xb
 3636 0b00 A2000000 		.4byte	.LVL236
ARM GAS  C:\Users\ANDREW~1\AppData\Local\Temp\ccsv3i4f.s 			page 84


 3637 0b04 E7090000 		.4byte	0x9e7
 3638 0b08 0F       		.uleb128 0xf
 3639 0b09 AC000000 		.4byte	.LVL237
 3640 0b0d D5020000 		.4byte	0x2d5
 3641 0b11 0E       		.uleb128 0xe
 3642 0b12 06       		.uleb128 0x6
 3643 0b13 50       		.byte	0x50
 3644 0b14 93       		.byte	0x93
 3645 0b15 04       		.uleb128 0x4
 3646 0b16 51       		.byte	0x51
 3647 0b17 93       		.byte	0x93
 3648 0b18 04       		.uleb128 0x4
 3649 0b19 0B       		.uleb128 0xb
 3650 0b1a F4       		.byte	0xf4
 3651 0b1b 25       		.uleb128 0x25
 3652 0b1c 08       		.byte	0x8
 3653 0b1d 9A999999 		.4byte	0x9999999a
 3654 0b21 9999C93F 		.4byte	0x3fc99999
 3655 0b25 00       		.byte	0
 3656 0b26 00       		.byte	0
 3657 0b27 00       		.byte	0
 3658 0b28 0A       		.uleb128 0xa
 3659 0b29 00060000 		.4byte	.LASF57
 3660 0b2d 01       		.byte	0x1
 3661 0b2e 4C01     		.2byte	0x14c
 3662 0b30 00000000 		.4byte	.LFB74
 3663 0b34 AC000000 		.4byte	.LFE74-.LFB74
 3664 0b38 01       		.uleb128 0x1
 3665 0b39 9C       		.byte	0x9c
 3666 0b3a 170C0000 		.4byte	0xc17
 3667 0b3e 0B       		.uleb128 0xb
 3668 0b3f 08000000 		.4byte	.LVL240
 3669 0b43 DC050000 		.4byte	0x5dc
 3670 0b47 0B       		.uleb128 0xb
 3671 0b48 18000000 		.4byte	.LVL241
 3672 0b4c CD030000 		.4byte	0x3cd
 3673 0b50 0B       		.uleb128 0xb
 3674 0b51 2A000000 		.4byte	.LVL242
 3675 0b55 CD030000 		.4byte	0x3cd
 3676 0b59 0B       		.uleb128 0xb
 3677 0b5a 2E000000 		.4byte	.LVL243
 3678 0b5e 69010000 		.4byte	0x169
 3679 0b62 0B       		.uleb128 0xb
 3680 0b63 34000000 		.4byte	.LVL244
 3681 0b67 E7090000 		.4byte	0x9e7
 3682 0b6b 0D       		.uleb128 0xd
 3683 0b6c 3E000000 		.4byte	.LVL245
 3684 0b70 D5020000 		.4byte	0x2d5
 3685 0b74 8D0B0000 		.4byte	0xb8d
 3686 0b78 0E       		.uleb128 0xe
 3687 0b79 06       		.uleb128 0x6
 3688 0b7a 50       		.byte	0x50
 3689 0b7b 93       		.byte	0x93
 3690 0b7c 04       		.uleb128 0x4
 3691 0b7d 51       		.byte	0x51
 3692 0b7e 93       		.byte	0x93
 3693 0b7f 04       		.uleb128 0x4
ARM GAS  C:\Users\ANDREW~1\AppData\Local\Temp\ccsv3i4f.s 			page 85


 3694 0b80 0B       		.uleb128 0xb
 3695 0b81 F4       		.byte	0xf4
 3696 0b82 25       		.uleb128 0x25
 3697 0b83 08       		.byte	0x8
 3698 0b84 9A999999 		.4byte	0x9999999a
 3699 0b88 9999C93F 		.4byte	0x3fc99999
 3700 0b8c 00       		.byte	0
 3701 0b8d 0B       		.uleb128 0xb
 3702 0b8e 48000000 		.4byte	.LVL246
 3703 0b92 7E010000 		.4byte	0x17e
 3704 0b96 0B       		.uleb128 0xb
 3705 0b97 4E000000 		.4byte	.LVL247
 3706 0b9b E7090000 		.4byte	0x9e7
 3707 0b9f 0D       		.uleb128 0xd
 3708 0ba0 58000000 		.4byte	.LVL248
 3709 0ba4 D5020000 		.4byte	0x2d5
 3710 0ba8 C10B0000 		.4byte	0xbc1
 3711 0bac 0E       		.uleb128 0xe
 3712 0bad 06       		.uleb128 0x6
 3713 0bae 50       		.byte	0x50
 3714 0baf 93       		.byte	0x93
 3715 0bb0 04       		.uleb128 0x4
 3716 0bb1 51       		.byte	0x51
 3717 0bb2 93       		.byte	0x93
 3718 0bb3 04       		.uleb128 0x4
 3719 0bb4 0B       		.uleb128 0xb
 3720 0bb5 F4       		.byte	0xf4
 3721 0bb6 25       		.uleb128 0x25
 3722 0bb7 08       		.byte	0x8
 3723 0bb8 9A999999 		.4byte	0x9999999a
 3724 0bbc 9999C93F 		.4byte	0x3fc99999
 3725 0bc0 00       		.byte	0
 3726 0bc1 0B       		.uleb128 0xb
 3727 0bc2 5C000000 		.4byte	.LVL249
 3728 0bc6 93010000 		.4byte	0x193
 3729 0bca 0B       		.uleb128 0xb
 3730 0bcb 66000000 		.4byte	.LVL250
 3731 0bcf 54010000 		.4byte	0x154
 3732 0bd3 0B       		.uleb128 0xb
 3733 0bd4 6C000000 		.4byte	.LVL251
 3734 0bd8 E7090000 		.4byte	0x9e7
 3735 0bdc 0D       		.uleb128 0xd
 3736 0bdd 76000000 		.4byte	.LVL252
 3737 0be1 D5020000 		.4byte	0x2d5
 3738 0be5 FE0B0000 		.4byte	0xbfe
 3739 0be9 0E       		.uleb128 0xe
 3740 0bea 06       		.uleb128 0x6
 3741 0beb 50       		.byte	0x50
 3742 0bec 93       		.byte	0x93
 3743 0bed 04       		.uleb128 0x4
 3744 0bee 51       		.byte	0x51
 3745 0bef 93       		.byte	0x93
 3746 0bf0 04       		.uleb128 0x4
 3747 0bf1 0B       		.uleb128 0xb
 3748 0bf2 F4       		.byte	0xf4
 3749 0bf3 25       		.uleb128 0x25
 3750 0bf4 08       		.byte	0x8
ARM GAS  C:\Users\ANDREW~1\AppData\Local\Temp\ccsv3i4f.s 			page 86


 3751 0bf5 9A999999 		.4byte	0x9999999a
 3752 0bf9 9999C93F 		.4byte	0x3fc99999
 3753 0bfd 00       		.byte	0
 3754 0bfe 0B       		.uleb128 0xb
 3755 0bff 7A000000 		.4byte	.LVL253
 3756 0c03 CC010000 		.4byte	0x1cc
 3757 0c07 0F       		.uleb128 0xf
 3758 0c08 92000000 		.4byte	.LVL254
 3759 0c0c 75100000 		.4byte	0x1075
 3760 0c10 0E       		.uleb128 0xe
 3761 0c11 01       		.uleb128 0x1
 3762 0c12 51       		.byte	0x51
 3763 0c13 01       		.uleb128 0x1
 3764 0c14 34       		.byte	0x34
 3765 0c15 00       		.byte	0
 3766 0c16 00       		.byte	0
 3767 0c17 0A       		.uleb128 0xa
 3768 0c18 7F070000 		.4byte	.LASF58
 3769 0c1c 01       		.byte	0x1
 3770 0c1d B501     		.2byte	0x1b5
 3771 0c1f 00000000 		.4byte	.LFB79
 3772 0c23 18000000 		.4byte	.LFE79-.LFB79
 3773 0c27 01       		.uleb128 0x1
 3774 0c28 9C       		.byte	0x9c
 3775 0c29 490C0000 		.4byte	0xc49
 3776 0c2d 0B       		.uleb128 0xb
 3777 0c2e 08000000 		.4byte	.LVL255
 3778 0c32 DC050000 		.4byte	0x5dc
 3779 0c36 0B       		.uleb128 0xb
 3780 0c37 0C000000 		.4byte	.LVL256
 3781 0c3b 7E010000 		.4byte	0x17e
 3782 0c3f 0B       		.uleb128 0xb
 3783 0c40 12000000 		.4byte	.LVL257
 3784 0c44 54010000 		.4byte	0x154
 3785 0c48 00       		.byte	0
 3786 0c49 1F       		.uleb128 0x1f
 3787 0c4a EE040000 		.4byte	.LASF59
 3788 0c4e 05       		.byte	0x5
 3789 0c4f 1207     		.2byte	0x712
 3790 0c51 550C0000 		.4byte	0xc55
 3791 0c55 20       		.uleb128 0x20
 3792 0c56 7D000000 		.4byte	0x7d
 3793 0c5a 21       		.uleb128 0x21
 3794 0c5b 47020000 		.4byte	.LASF60
 3795 0c5f 01       		.byte	0x1
 3796 0c60 37       		.byte	0x37
 3797 0c61 25000000 		.4byte	0x25
 3798 0c65 05       		.uleb128 0x5
 3799 0c66 03       		.byte	0x3
 3800 0c67 00000000 		.4byte	counter
 3801 0c6b 21       		.uleb128 0x21
 3802 0c6c 77000000 		.4byte	.LASF61
 3803 0c70 01       		.byte	0x1
 3804 0c71 39       		.byte	0x39
 3805 0c72 6F000000 		.4byte	0x6f
 3806 0c76 05       		.uleb128 0x5
 3807 0c77 03       		.byte	0x3
ARM GAS  C:\Users\ANDREW~1\AppData\Local\Temp\ccsv3i4f.s 			page 87


 3808 0c78 00000000 		.4byte	time_passed_step
 3809 0c7c 21       		.uleb128 0x21
 3810 0c7d 38030000 		.4byte	.LASF62
 3811 0c81 01       		.byte	0x1
 3812 0c82 3A       		.byte	0x3a
 3813 0c83 25000000 		.4byte	0x25
 3814 0c87 05       		.uleb128 0x5
 3815 0c88 03       		.byte	0x3
 3816 0c89 00000000 		.4byte	previous_buzz
 3817 0c8d 21       		.uleb128 0x21
 3818 0c8e 7C040000 		.4byte	.LASF63
 3819 0c92 01       		.byte	0x1
 3820 0c93 3C       		.byte	0x3c
 3821 0c94 25000000 		.4byte	0x25
 3822 0c98 05       		.uleb128 0x5
 3823 0c99 03       		.byte	0x3
 3824 0c9a 00000000 		.4byte	buzz_duration
 3825 0c9e 21       		.uleb128 0x21
 3826 0c9f 60000000 		.4byte	.LASF64
 3827 0ca3 01       		.byte	0x1
 3828 0ca4 3D       		.byte	0x3d
 3829 0ca5 25000000 		.4byte	0x25
 3830 0ca9 05       		.uleb128 0x5
 3831 0caa 03       		.byte	0x3
 3832 0cab 00000000 		.4byte	seg_num
 3833 0caf 21       		.uleb128 0x21
 3834 0cb0 27050000 		.4byte	.LASF65
 3835 0cb4 01       		.byte	0x1
 3836 0cb5 3F       		.byte	0x3f
 3837 0cb6 6F000000 		.4byte	0x6f
 3838 0cba 05       		.uleb128 0x5
 3839 0cbb 03       		.byte	0x3
 3840 0cbc 00000000 		.4byte	button1
 3841 0cc0 21       		.uleb128 0x21
 3842 0cc1 2F050000 		.4byte	.LASF66
 3843 0cc5 01       		.byte	0x1
 3844 0cc6 40       		.byte	0x40
 3845 0cc7 6F000000 		.4byte	0x6f
 3846 0ccb 05       		.uleb128 0x5
 3847 0ccc 03       		.byte	0x3
 3848 0ccd 00000000 		.4byte	button2
 3849 0cd1 21       		.uleb128 0x21
 3850 0cd2 37050000 		.4byte	.LASF67
 3851 0cd6 01       		.byte	0x1
 3852 0cd7 41       		.byte	0x41
 3853 0cd8 6F000000 		.4byte	0x6f
 3854 0cdc 05       		.uleb128 0x5
 3855 0cdd 03       		.byte	0x3
 3856 0cde 00000000 		.4byte	button3
 3857 0ce2 21       		.uleb128 0x21
 3858 0ce3 3F050000 		.4byte	.LASF68
 3859 0ce7 01       		.byte	0x1
 3860 0ce8 42       		.byte	0x42
 3861 0ce9 6F000000 		.4byte	0x6f
 3862 0ced 05       		.uleb128 0x5
 3863 0cee 03       		.byte	0x3
 3864 0cef 00000000 		.4byte	button4
ARM GAS  C:\Users\ANDREW~1\AppData\Local\Temp\ccsv3i4f.s 			page 88


 3865 0cf3 21       		.uleb128 0x21
 3866 0cf4 47050000 		.4byte	.LASF69
 3867 0cf8 01       		.byte	0x1
 3868 0cf9 43       		.byte	0x43
 3869 0cfa 6F000000 		.4byte	0x6f
 3870 0cfe 05       		.uleb128 0x5
 3871 0cff 03       		.byte	0x3
 3872 0d00 00000000 		.4byte	button5
 3873 0d04 21       		.uleb128 0x21
 3874 0d05 CD000000 		.4byte	.LASF70
 3875 0d09 01       		.byte	0x1
 3876 0d0a 5E       		.byte	0x5e
 3877 0d0b 6F000000 		.4byte	0x6f
 3878 0d0f 05       		.uleb128 0x5
 3879 0d10 03       		.byte	0x3
 3880 0d11 00000000 		.4byte	mode
 3881 0d15 21       		.uleb128 0x21
 3882 0d16 C2060000 		.4byte	.LASF71
 3883 0d1a 01       		.byte	0x1
 3884 0d1b 5F       		.byte	0x5f
 3885 0d1c 6F000000 		.4byte	0x6f
 3886 0d20 05       		.uleb128 0x5
 3887 0d21 03       		.byte	0x3
 3888 0d22 00000000 		.4byte	group_num
 3889 0d26 21       		.uleb128 0x21
 3890 0d27 95000000 		.4byte	.LASF72
 3891 0d2b 01       		.byte	0x1
 3892 0d2c 60       		.byte	0x60
 3893 0d2d 9B000000 		.4byte	0x9b
 3894 0d31 05       		.uleb128 0x5
 3895 0d32 03       		.byte	0x3
 3896 0d33 00000000 		.4byte	cm_or_inch
 3897 0d37 21       		.uleb128 0x21
 3898 0d38 06050000 		.4byte	.LASF73
 3899 0d3c 01       		.byte	0x1
 3900 0d3d 62       		.byte	0x62
 3901 0d3e 25000000 		.4byte	0x25
 3902 0d42 05       		.uleb128 0x5
 3903 0d43 03       		.byte	0x3
 3904 0d44 00000000 		.4byte	distance
 3905 0d48 22       		.uleb128 0x22
 3906 0d49 88000000 		.4byte	0x88
 3907 0d4d 580D0000 		.4byte	0xd58
 3908 0d51 23       		.uleb128 0x23
 3909 0d52 A9000000 		.4byte	0xa9
 3910 0d56 0F       		.byte	0xf
 3911 0d57 00       		.byte	0
 3912 0d58 24       		.uleb128 0x24
 3913 0d59 A0030000 		.4byte	.LASF74
 3914 0d5d 01       		.byte	0x1
 3915 0d5e 0002     		.2byte	0x200
 3916 0d60 480D0000 		.4byte	0xd48
 3917 0d64 05       		.uleb128 0x5
 3918 0d65 03       		.byte	0x3
 3919 0d66 00000000 		.4byte	value_text
 3920 0d6a 24       		.uleb128 0x24
 3921 0d6b 8C010000 		.4byte	.LASF40
ARM GAS  C:\Users\ANDREW~1\AppData\Local\Temp\ccsv3i4f.s 			page 89


 3922 0d6f 01       		.byte	0x1
 3923 0d70 2C02     		.2byte	0x22c
 3924 0d72 25000000 		.4byte	0x25
 3925 0d76 05       		.uleb128 0x5
 3926 0d77 03       		.byte	0x3
 3927 0d78 00000000 		.4byte	value
 3928 0d7c 24       		.uleb128 0x24
 3929 0d7d 92060000 		.4byte	.LASF75
 3930 0d81 01       		.byte	0x1
 3931 0d82 4002     		.2byte	0x240
 3932 0d84 88000000 		.4byte	0x88
 3933 0d88 05       		.uleb128 0x5
 3934 0d89 03       		.byte	0x3
 3935 0d8a 00000000 		.4byte	InterruptCnt
 3936 0d8e 24       		.uleb128 0x24
 3937 0d8f B9020000 		.4byte	.LASF76
 3938 0d93 01       		.byte	0x1
 3939 0d94 4C02     		.2byte	0x24c
 3940 0d96 6F000000 		.4byte	0x6f
 3941 0d9a 05       		.uleb128 0x5
 3942 0d9b 03       		.byte	0x3
 3943 0d9c 00000000 		.4byte	run_7_Seg
 3944 0da0 24       		.uleb128 0x24
 3945 0da1 E5020000 		.4byte	.LASF77
 3946 0da5 01       		.byte	0x1
 3947 0da6 5402     		.2byte	0x254
 3948 0da8 25000000 		.4byte	0x25
 3949 0dac 05       		.uleb128 0x5
 3950 0dad 03       		.byte	0x3
 3951 0dae 00000000 		.4byte	old_dis_val
 3952 0db2 22       		.uleb128 0x22
 3953 0db3 6F000000 		.4byte	0x6f
 3954 0db7 C20D0000 		.4byte	0xdc2
 3955 0dbb 23       		.uleb128 0x23
 3956 0dbc A9000000 		.4byte	0xa9
 3957 0dc0 03       		.byte	0x3
 3958 0dc1 00       		.byte	0
 3959 0dc2 25       		.uleb128 0x25
 3960 0dc3 4400     		.ascii	"D\000"
 3961 0dc5 01       		.byte	0x1
 3962 0dc6 5602     		.2byte	0x256
 3963 0dc8 B20D0000 		.4byte	0xdb2
 3964 0dcc 05       		.uleb128 0x5
 3965 0dcd 03       		.byte	0x3
 3966 0dce 00000000 		.4byte	D
 3967 0dd2 25       		.uleb128 0x25
 3968 0dd3 647000   		.ascii	"dp\000"
 3969 0dd6 01       		.byte	0x1
 3970 0dd7 5702     		.2byte	0x257
 3971 0dd9 B20D0000 		.4byte	0xdb2
 3972 0ddd 05       		.uleb128 0x5
 3973 0dde 03       		.byte	0x3
 3974 0ddf 00000000 		.4byte	dp
 3975 0de3 24       		.uleb128 0x24
 3976 0de4 23010000 		.4byte	.LASF78
 3977 0de8 01       		.byte	0x1
 3978 0de9 5802     		.2byte	0x258
ARM GAS  C:\Users\ANDREW~1\AppData\Local\Temp\ccsv3i4f.s 			page 90


 3979 0deb 5A000000 		.4byte	0x5a
 3980 0def 05       		.uleb128 0x5
 3981 0df0 03       		.byte	0x3
 3982 0df1 00000000 		.4byte	count
 3983 0df5 22       		.uleb128 0x22
 3984 0df6 B6000000 		.4byte	0xb6
 3985 0dfa 0B0E0000 		.4byte	0xe0b
 3986 0dfe 23       		.uleb128 0x23
 3987 0dff A9000000 		.4byte	0xa9
 3988 0e03 12       		.byte	0x12
 3989 0e04 23       		.uleb128 0x23
 3990 0e05 A9000000 		.4byte	0xa9
 3991 0e09 07       		.byte	0x7
 3992 0e0a 00       		.byte	0
 3993 0e0b 24       		.uleb128 0x24
 3994 0e0c BF070000 		.4byte	.LASF79
 3995 0e10 01       		.byte	0x1
 3996 0e11 DC02     		.2byte	0x2dc
 3997 0e13 1D0E0000 		.4byte	0xe1d
 3998 0e17 05       		.uleb128 0x5
 3999 0e18 03       		.byte	0x3
 4000 0e19 00000000 		.4byte	charLookup
 4001 0e1d 07       		.uleb128 0x7
 4002 0e1e F50D0000 		.4byte	0xdf5
 4003 0e22 22       		.uleb128 0x22
 4004 0e23 6F000000 		.4byte	0x6f
 4005 0e27 320E0000 		.4byte	0xe32
 4006 0e2b 23       		.uleb128 0x23
 4007 0e2c A9000000 		.4byte	0xa9
 4008 0e30 06       		.byte	0x6
 4009 0e31 00       		.byte	0
 4010 0e32 24       		.uleb128 0x24
 4011 0e33 7D060000 		.4byte	.LASF80
 4012 0e37 01       		.byte	0x1
 4013 0e38 F302     		.2byte	0x2f3
 4014 0e3a 220E0000 		.4byte	0xe22
 4015 0e3e 05       		.uleb128 0x5
 4016 0e3f 03       		.byte	0x3
 4017 0e40 00000000 		.4byte	segmentPattern_array
 4018 0e44 26       		.uleb128 0x26
 4019 0e45 BB030000 		.4byte	.LASF81
 4020 0e49 BB030000 		.4byte	.LASF81
 4021 0e4d 06       		.byte	0x6
 4022 0e4e 5B       		.byte	0x5b
 4023 0e4f 26       		.uleb128 0x26
 4024 0e50 2D070000 		.4byte	.LASF82
 4025 0e54 2D070000 		.4byte	.LASF82
 4026 0e58 06       		.byte	0x6
 4027 0e59 67       		.byte	0x67
 4028 0e5a 26       		.uleb128 0x26
 4029 0e5b AB070000 		.4byte	.LASF83
 4030 0e5f AB070000 		.4byte	.LASF83
 4031 0e63 06       		.byte	0x6
 4032 0e64 69       		.byte	0x69
 4033 0e65 26       		.uleb128 0x26
 4034 0e66 32010000 		.4byte	.LASF84
 4035 0e6a 32010000 		.4byte	.LASF84
ARM GAS  C:\Users\ANDREW~1\AppData\Local\Temp\ccsv3i4f.s 			page 91


 4036 0e6e 07       		.byte	0x7
 4037 0e6f 26       		.byte	0x26
 4038 0e70 26       		.uleb128 0x26
 4039 0e71 5B010000 		.4byte	.LASF85
 4040 0e75 5B010000 		.4byte	.LASF85
 4041 0e79 08       		.byte	0x8
 4042 0e7a 26       		.byte	0x26
 4043 0e7b 26       		.uleb128 0x26
 4044 0e7c 2D040000 		.4byte	.LASF86
 4045 0e80 2D040000 		.4byte	.LASF86
 4046 0e84 09       		.byte	0x9
 4047 0e85 67       		.byte	0x67
 4048 0e86 26       		.uleb128 0x26
 4049 0e87 54030000 		.4byte	.LASF87
 4050 0e8b 54030000 		.4byte	.LASF87
 4051 0e8f 09       		.byte	0x9
 4052 0e90 69       		.byte	0x69
 4053 0e91 26       		.uleb128 0x26
 4054 0e92 4F060000 		.4byte	.LASF88
 4055 0e96 4F060000 		.4byte	.LASF88
 4056 0e9a 0A       		.byte	0xa
 4057 0e9b 88       		.byte	0x88
 4058 0e9c 26       		.uleb128 0x26
 4059 0e9d 0D000000 		.4byte	.LASF89
 4060 0ea1 0D000000 		.4byte	.LASF89
 4061 0ea5 0B       		.byte	0xb
 4062 0ea6 76       		.byte	0x76
 4063 0ea7 26       		.uleb128 0x26
 4064 0ea8 20040000 		.4byte	.LASF90
 4065 0eac 20040000 		.4byte	.LASF90
 4066 0eb0 0C       		.byte	0xc
 4067 0eb1 26       		.byte	0x26
 4068 0eb2 26       		.uleb128 0x26
 4069 0eb3 24030000 		.4byte	.LASF91
 4070 0eb7 24030000 		.4byte	.LASF91
 4071 0ebb 0D       		.byte	0xd
 4072 0ebc 2F       		.byte	0x2f
 4073 0ebd 26       		.uleb128 0x26
 4074 0ebe 13070000 		.4byte	.LASF92
 4075 0ec2 13070000 		.4byte	.LASF92
 4076 0ec6 06       		.byte	0x6
 4077 0ec7 5A       		.byte	0x5a
 4078 0ec8 26       		.uleb128 0x26
 4079 0ec9 D9060000 		.4byte	.LASF93
 4080 0ecd D9060000 		.4byte	.LASF93
 4081 0ed1 0E       		.byte	0xe
 4082 0ed2 26       		.byte	0x26
 4083 0ed3 26       		.uleb128 0x26
 4084 0ed4 96040000 		.4byte	.LASF94
 4085 0ed8 96040000 		.4byte	.LASF94
 4086 0edc 0F       		.byte	0xf
 4087 0edd 26       		.byte	0x26
 4088 0ede 26       		.uleb128 0x26
 4089 0edf 03010000 		.4byte	.LASF95
 4090 0ee3 03010000 		.4byte	.LASF95
 4091 0ee7 10       		.byte	0x10
 4092 0ee8 26       		.byte	0x26
ARM GAS  C:\Users\ANDREW~1\AppData\Local\Temp\ccsv3i4f.s 			page 92


 4093 0ee9 26       		.uleb128 0x26
 4094 0eea B5040000 		.4byte	.LASF96
 4095 0eee B5040000 		.4byte	.LASF96
 4096 0ef2 11       		.byte	0x11
 4097 0ef3 26       		.byte	0x26
 4098 0ef4 26       		.uleb128 0x26
 4099 0ef5 9F010000 		.4byte	.LASF97
 4100 0ef9 9F010000 		.4byte	.LASF97
 4101 0efd 12       		.byte	0x12
 4102 0efe 26       		.byte	0x26
 4103 0eff 26       		.uleb128 0x26
 4104 0f00 22060000 		.4byte	.LASF98
 4105 0f04 22060000 		.4byte	.LASF98
 4106 0f08 13       		.byte	0x13
 4107 0f09 26       		.byte	0x26
 4108 0f0a 26       		.uleb128 0x26
 4109 0f0b 8C020000 		.4byte	.LASF99
 4110 0f0f 8C020000 		.4byte	.LASF99
 4111 0f13 14       		.byte	0x14
 4112 0f14 26       		.byte	0x26
 4113 0f15 26       		.uleb128 0x26
 4114 0f16 36060000 		.4byte	.LASF100
 4115 0f1a 36060000 		.4byte	.LASF100
 4116 0f1e 15       		.byte	0x15
 4117 0f1f 26       		.byte	0x26
 4118 0f20 26       		.uleb128 0x26
 4119 0f21 4F050000 		.4byte	.LASF101
 4120 0f25 4F050000 		.4byte	.LASF101
 4121 0f29 16       		.byte	0x16
 4122 0f2a 26       		.byte	0x26
 4123 0f2b 26       		.uleb128 0x26
 4124 0f2c 92010000 		.4byte	.LASF102
 4125 0f30 92010000 		.4byte	.LASF102
 4126 0f34 17       		.byte	0x17
 4127 0f35 26       		.byte	0x26
 4128 0f36 26       		.uleb128 0x26
 4129 0f37 CC060000 		.4byte	.LASF103
 4130 0f3b CC060000 		.4byte	.LASF103
 4131 0f3f 18       		.byte	0x18
 4132 0f40 26       		.byte	0x26
 4133 0f41 26       		.uleb128 0x26
 4134 0f42 F1020000 		.4byte	.LASF104
 4135 0f46 F1020000 		.4byte	.LASF104
 4136 0f4a 19       		.byte	0x19
 4137 0f4b 26       		.byte	0x26
 4138 0f4c 26       		.uleb128 0x26
 4139 0f4d A6020000 		.4byte	.LASF105
 4140 0f51 A6020000 		.4byte	.LASF105
 4141 0f55 1A       		.byte	0x1a
 4142 0f56 28       		.byte	0x28
 4143 0f57 26       		.uleb128 0x26
 4144 0f58 0F050000 		.4byte	.LASF106
 4145 0f5c 0F050000 		.4byte	.LASF106
 4146 0f60 1B       		.byte	0x1b
 4147 0f61 28       		.byte	0x28
 4148 0f62 26       		.uleb128 0x26
 4149 0f63 C8040000 		.4byte	.LASF107
ARM GAS  C:\Users\ANDREW~1\AppData\Local\Temp\ccsv3i4f.s 			page 93


 4150 0f67 C8040000 		.4byte	.LASF107
 4151 0f6b 1C       		.byte	0x1c
 4152 0f6c 28       		.byte	0x28
 4153 0f6d 26       		.uleb128 0x26
 4154 0f6e 69040000 		.4byte	.LASF108
 4155 0f72 69040000 		.4byte	.LASF108
 4156 0f76 1D       		.byte	0x1d
 4157 0f77 28       		.byte	0x28
 4158 0f78 26       		.uleb128 0x26
 4159 0f79 0D040000 		.4byte	.LASF109
 4160 0f7d 0D040000 		.4byte	.LASF109
 4161 0f81 1E       		.byte	0x1e
 4162 0f82 28       		.byte	0x28
 4163 0f83 26       		.uleb128 0x26
 4164 0f84 52000000 		.4byte	.LASF110
 4165 0f88 52000000 		.4byte	.LASF110
 4166 0f8c 1A       		.byte	0x1a
 4167 0f8d 18       		.byte	0x18
 4168 0f8e 26       		.uleb128 0x26
 4169 0f8f 5C050000 		.4byte	.LASF111
 4170 0f93 5C050000 		.4byte	.LASF111
 4171 0f97 1B       		.byte	0x1b
 4172 0f98 18       		.byte	0x18
 4173 0f99 26       		.uleb128 0x26
 4174 0f9a 5B040000 		.4byte	.LASF112
 4175 0f9e 5B040000 		.4byte	.LASF112
 4176 0fa2 1C       		.byte	0x1c
 4177 0fa3 18       		.byte	0x18
 4178 0fa4 26       		.uleb128 0x26
 4179 0fa5 40070000 		.4byte	.LASF113
 4180 0fa9 40070000 		.4byte	.LASF113
 4181 0fad 1D       		.byte	0x1d
 4182 0fae 18       		.byte	0x18
 4183 0faf 26       		.uleb128 0x26
 4184 0fb0 F5000000 		.4byte	.LASF114
 4185 0fb4 F5000000 		.4byte	.LASF114
 4186 0fb8 1E       		.byte	0x1e
 4187 0fb9 18       		.byte	0x18
 4188 0fba 26       		.uleb128 0x26
 4189 0fbb 4F020000 		.4byte	.LASF115
 4190 0fbf 4F020000 		.4byte	.LASF115
 4191 0fc3 1F       		.byte	0x1f
 4192 0fc4 28       		.byte	0x28
 4193 0fc5 26       		.uleb128 0x26
 4194 0fc6 C3020000 		.4byte	.LASF116
 4195 0fca C3020000 		.4byte	.LASF116
 4196 0fce 1F       		.byte	0x1f
 4197 0fcf 18       		.byte	0x18
 4198 0fd0 26       		.uleb128 0x26
 4199 0fd1 A2040000 		.4byte	.LASF117
 4200 0fd5 A2040000 		.4byte	.LASF117
 4201 0fd9 20       		.byte	0x20
 4202 0fda 28       		.byte	0x28
 4203 0fdb 26       		.uleb128 0x26
 4204 0fdc A0000000 		.4byte	.LASF118
 4205 0fe0 A0000000 		.4byte	.LASF118
 4206 0fe4 06       		.byte	0x6
ARM GAS  C:\Users\ANDREW~1\AppData\Local\Temp\ccsv3i4f.s 			page 94


 4207 0fe5 5D       		.byte	0x5d
 4208 0fe6 26       		.uleb128 0x26
 4209 0fe7 84030000 		.4byte	.LASF119
 4210 0feb 84030000 		.4byte	.LASF119
 4211 0fef 20       		.byte	0x20
 4212 0ff0 18       		.byte	0x18
 4213 0ff1 26       		.uleb128 0x26
 4214 0ff2 07070000 		.4byte	.LASF120
 4215 0ff6 07070000 		.4byte	.LASF120
 4216 0ffa 21       		.byte	0x21
 4217 0ffb 3E       		.byte	0x3e
 4218 0ffc 26       		.uleb128 0x26
 4219 0ffd 7E020000 		.4byte	.LASF121
 4220 1001 7E020000 		.4byte	.LASF121
 4221 1005 22       		.byte	0x22
 4222 1006 33       		.byte	0x33
 4223 1007 26       		.uleb128 0x26
 4224 1008 62060000 		.4byte	.LASF122
 4225 100c 62060000 		.4byte	.LASF122
 4226 1010 23       		.byte	0x23
 4227 1011 3F       		.byte	0x3f
 4228 1012 26       		.uleb128 0x26
 4229 1013 9D070000 		.4byte	.LASF123
 4230 1017 9D070000 		.4byte	.LASF123
 4231 101b 24       		.byte	0x24
 4232 101c 33       		.byte	0x33
 4233 101d 26       		.uleb128 0x26
 4234 101e 40040000 		.4byte	.LASF124
 4235 1022 40040000 		.4byte	.LASF124
 4236 1026 25       		.byte	0x25
 4237 1027 26       		.byte	0x26
 4238 1028 26       		.uleb128 0x26
 4239 1029 61070000 		.4byte	.LASF125
 4240 102d 61070000 		.4byte	.LASF125
 4241 1031 09       		.byte	0x9
 4242 1032 5D       		.byte	0x5d
 4243 1033 26       		.uleb128 0x26
 4244 1034 46030000 		.4byte	.LASF126
 4245 1038 46030000 		.4byte	.LASF126
 4246 103c 09       		.byte	0x9
 4247 103d 5A       		.byte	0x5a
 4248 103e 26       		.uleb128 0x26
 4249 103f DD000000 		.4byte	.LASF127
 4250 1043 DD000000 		.4byte	.LASF127
 4251 1047 26       		.byte	0x26
 4252 1048 1F       		.byte	0x1f
 4253 1049 26       		.uleb128 0x26
 4254 104a F3050000 		.4byte	.LASF128
 4255 104e F3050000 		.4byte	.LASF128
 4256 1052 0A       		.byte	0xa
 4257 1053 54       		.byte	0x54
 4258 1054 26       		.uleb128 0x26
 4259 1055 65020000 		.4byte	.LASF129
 4260 1059 65020000 		.4byte	.LASF129
 4261 105d 0A       		.byte	0xa
 4262 105e 8B       		.byte	0x8b
 4263 105f 26       		.uleb128 0x26
ARM GAS  C:\Users\ANDREW~1\AppData\Local\Temp\ccsv3i4f.s 			page 95


 4264 1060 AB030000 		.4byte	.LASF130
 4265 1064 AB030000 		.4byte	.LASF130
 4266 1068 26       		.byte	0x26
 4267 1069 23       		.byte	0x23
 4268 106a 26       		.uleb128 0x26
 4269 106b 68030000 		.4byte	.LASF131
 4270 106f 68030000 		.4byte	.LASF131
 4271 1073 27       		.byte	0x27
 4272 1074 29       		.byte	0x29
 4273 1075 26       		.uleb128 0x26
 4274 1076 E5060000 		.4byte	.LASF132
 4275 107a E5060000 		.4byte	.LASF132
 4276 107e 26       		.byte	0x26
 4277 107f 21       		.byte	0x21
 4278 1080 00       		.byte	0
 4279              		.section	.debug_abbrev,"",%progbits
 4280              	.Ldebug_abbrev0:
 4281 0000 01       		.uleb128 0x1
 4282 0001 11       		.uleb128 0x11
 4283 0002 01       		.byte	0x1
 4284 0003 25       		.uleb128 0x25
 4285 0004 0E       		.uleb128 0xe
 4286 0005 13       		.uleb128 0x13
 4287 0006 0B       		.uleb128 0xb
 4288 0007 03       		.uleb128 0x3
 4289 0008 0E       		.uleb128 0xe
 4290 0009 1B       		.uleb128 0x1b
 4291 000a 0E       		.uleb128 0xe
 4292 000b 55       		.uleb128 0x55
 4293 000c 17       		.uleb128 0x17
 4294 000d 11       		.uleb128 0x11
 4295 000e 01       		.uleb128 0x1
 4296 000f 10       		.uleb128 0x10
 4297 0010 17       		.uleb128 0x17
 4298 0011 00       		.byte	0
 4299 0012 00       		.byte	0
 4300 0013 02       		.uleb128 0x2
 4301 0014 24       		.uleb128 0x24
 4302 0015 00       		.byte	0
 4303 0016 0B       		.uleb128 0xb
 4304 0017 0B       		.uleb128 0xb
 4305 0018 3E       		.uleb128 0x3e
 4306 0019 0B       		.uleb128 0xb
 4307 001a 03       		.uleb128 0x3
 4308 001b 0E       		.uleb128 0xe
 4309 001c 00       		.byte	0
 4310 001d 00       		.byte	0
 4311 001e 03       		.uleb128 0x3
 4312 001f 16       		.uleb128 0x16
 4313 0020 00       		.byte	0
 4314 0021 03       		.uleb128 0x3
 4315 0022 0E       		.uleb128 0xe
 4316 0023 3A       		.uleb128 0x3a
 4317 0024 0B       		.uleb128 0xb
 4318 0025 3B       		.uleb128 0x3b
 4319 0026 0B       		.uleb128 0xb
 4320 0027 49       		.uleb128 0x49
ARM GAS  C:\Users\ANDREW~1\AppData\Local\Temp\ccsv3i4f.s 			page 96


 4321 0028 13       		.uleb128 0x13
 4322 0029 00       		.byte	0
 4323 002a 00       		.byte	0
 4324 002b 04       		.uleb128 0x4
 4325 002c 24       		.uleb128 0x24
 4326 002d 00       		.byte	0
 4327 002e 0B       		.uleb128 0xb
 4328 002f 0B       		.uleb128 0xb
 4329 0030 3E       		.uleb128 0x3e
 4330 0031 0B       		.uleb128 0xb
 4331 0032 03       		.uleb128 0x3
 4332 0033 08       		.uleb128 0x8
 4333 0034 00       		.byte	0
 4334 0035 00       		.byte	0
 4335 0036 05       		.uleb128 0x5
 4336 0037 16       		.uleb128 0x16
 4337 0038 00       		.byte	0
 4338 0039 03       		.uleb128 0x3
 4339 003a 0E       		.uleb128 0xe
 4340 003b 3A       		.uleb128 0x3a
 4341 003c 0B       		.uleb128 0xb
 4342 003d 3B       		.uleb128 0x3b
 4343 003e 05       		.uleb128 0x5
 4344 003f 49       		.uleb128 0x49
 4345 0040 13       		.uleb128 0x13
 4346 0041 00       		.byte	0
 4347 0042 00       		.byte	0
 4348 0043 06       		.uleb128 0x6
 4349 0044 0F       		.uleb128 0xf
 4350 0045 00       		.byte	0
 4351 0046 0B       		.uleb128 0xb
 4352 0047 0B       		.uleb128 0xb
 4353 0048 49       		.uleb128 0x49
 4354 0049 13       		.uleb128 0x13
 4355 004a 00       		.byte	0
 4356 004b 00       		.byte	0
 4357 004c 07       		.uleb128 0x7
 4358 004d 26       		.uleb128 0x26
 4359 004e 00       		.byte	0
 4360 004f 49       		.uleb128 0x49
 4361 0050 13       		.uleb128 0x13
 4362 0051 00       		.byte	0
 4363 0052 00       		.byte	0
 4364 0053 08       		.uleb128 0x8
 4365 0054 2E       		.uleb128 0x2e
 4366 0055 00       		.byte	0
 4367 0056 3F       		.uleb128 0x3f
 4368 0057 19       		.uleb128 0x19
 4369 0058 03       		.uleb128 0x3
 4370 0059 0E       		.uleb128 0xe
 4371 005a 3A       		.uleb128 0x3a
 4372 005b 0B       		.uleb128 0xb
 4373 005c 3B       		.uleb128 0x3b
 4374 005d 0B       		.uleb128 0xb
 4375 005e 27       		.uleb128 0x27
 4376 005f 19       		.uleb128 0x19
 4377 0060 11       		.uleb128 0x11
ARM GAS  C:\Users\ANDREW~1\AppData\Local\Temp\ccsv3i4f.s 			page 97


 4378 0061 01       		.uleb128 0x1
 4379 0062 12       		.uleb128 0x12
 4380 0063 06       		.uleb128 0x6
 4381 0064 40       		.uleb128 0x40
 4382 0065 18       		.uleb128 0x18
 4383 0066 9742     		.uleb128 0x2117
 4384 0068 19       		.uleb128 0x19
 4385 0069 00       		.byte	0
 4386 006a 00       		.byte	0
 4387 006b 09       		.uleb128 0x9
 4388 006c 2E       		.uleb128 0x2e
 4389 006d 00       		.byte	0
 4390 006e 3F       		.uleb128 0x3f
 4391 006f 19       		.uleb128 0x19
 4392 0070 03       		.uleb128 0x3
 4393 0071 0E       		.uleb128 0xe
 4394 0072 3A       		.uleb128 0x3a
 4395 0073 0B       		.uleb128 0xb
 4396 0074 3B       		.uleb128 0x3b
 4397 0075 05       		.uleb128 0x5
 4398 0076 27       		.uleb128 0x27
 4399 0077 19       		.uleb128 0x19
 4400 0078 11       		.uleb128 0x11
 4401 0079 01       		.uleb128 0x1
 4402 007a 12       		.uleb128 0x12
 4403 007b 06       		.uleb128 0x6
 4404 007c 40       		.uleb128 0x40
 4405 007d 18       		.uleb128 0x18
 4406 007e 9742     		.uleb128 0x2117
 4407 0080 19       		.uleb128 0x19
 4408 0081 00       		.byte	0
 4409 0082 00       		.byte	0
 4410 0083 0A       		.uleb128 0xa
 4411 0084 2E       		.uleb128 0x2e
 4412 0085 01       		.byte	0x1
 4413 0086 3F       		.uleb128 0x3f
 4414 0087 19       		.uleb128 0x19
 4415 0088 03       		.uleb128 0x3
 4416 0089 0E       		.uleb128 0xe
 4417 008a 3A       		.uleb128 0x3a
 4418 008b 0B       		.uleb128 0xb
 4419 008c 3B       		.uleb128 0x3b
 4420 008d 05       		.uleb128 0x5
 4421 008e 27       		.uleb128 0x27
 4422 008f 19       		.uleb128 0x19
 4423 0090 11       		.uleb128 0x11
 4424 0091 01       		.uleb128 0x1
 4425 0092 12       		.uleb128 0x12
 4426 0093 06       		.uleb128 0x6
 4427 0094 40       		.uleb128 0x40
 4428 0095 18       		.uleb128 0x18
 4429 0096 9742     		.uleb128 0x2117
 4430 0098 19       		.uleb128 0x19
 4431 0099 01       		.uleb128 0x1
 4432 009a 13       		.uleb128 0x13
 4433 009b 00       		.byte	0
 4434 009c 00       		.byte	0
ARM GAS  C:\Users\ANDREW~1\AppData\Local\Temp\ccsv3i4f.s 			page 98


 4435 009d 0B       		.uleb128 0xb
 4436 009e 898201   		.uleb128 0x4109
 4437 00a1 00       		.byte	0
 4438 00a2 11       		.uleb128 0x11
 4439 00a3 01       		.uleb128 0x1
 4440 00a4 31       		.uleb128 0x31
 4441 00a5 13       		.uleb128 0x13
 4442 00a6 00       		.byte	0
 4443 00a7 00       		.byte	0
 4444 00a8 0C       		.uleb128 0xc
 4445 00a9 2E       		.uleb128 0x2e
 4446 00aa 00       		.byte	0
 4447 00ab 3F       		.uleb128 0x3f
 4448 00ac 19       		.uleb128 0x19
 4449 00ad 03       		.uleb128 0x3
 4450 00ae 0E       		.uleb128 0xe
 4451 00af 3A       		.uleb128 0x3a
 4452 00b0 0B       		.uleb128 0xb
 4453 00b1 3B       		.uleb128 0x3b
 4454 00b2 0B       		.uleb128 0xb
 4455 00b3 49       		.uleb128 0x49
 4456 00b4 13       		.uleb128 0x13
 4457 00b5 11       		.uleb128 0x11
 4458 00b6 01       		.uleb128 0x1
 4459 00b7 12       		.uleb128 0x12
 4460 00b8 06       		.uleb128 0x6
 4461 00b9 40       		.uleb128 0x40
 4462 00ba 18       		.uleb128 0x18
 4463 00bb 9742     		.uleb128 0x2117
 4464 00bd 19       		.uleb128 0x19
 4465 00be 00       		.byte	0
 4466 00bf 00       		.byte	0
 4467 00c0 0D       		.uleb128 0xd
 4468 00c1 898201   		.uleb128 0x4109
 4469 00c4 01       		.byte	0x1
 4470 00c5 11       		.uleb128 0x11
 4471 00c6 01       		.uleb128 0x1
 4472 00c7 31       		.uleb128 0x31
 4473 00c8 13       		.uleb128 0x13
 4474 00c9 01       		.uleb128 0x1
 4475 00ca 13       		.uleb128 0x13
 4476 00cb 00       		.byte	0
 4477 00cc 00       		.byte	0
 4478 00cd 0E       		.uleb128 0xe
 4479 00ce 8A8201   		.uleb128 0x410a
 4480 00d1 00       		.byte	0
 4481 00d2 02       		.uleb128 0x2
 4482 00d3 18       		.uleb128 0x18
 4483 00d4 9142     		.uleb128 0x2111
 4484 00d6 18       		.uleb128 0x18
 4485 00d7 00       		.byte	0
 4486 00d8 00       		.byte	0
 4487 00d9 0F       		.uleb128 0xf
 4488 00da 898201   		.uleb128 0x4109
 4489 00dd 01       		.byte	0x1
 4490 00de 11       		.uleb128 0x11
 4491 00df 01       		.uleb128 0x1
ARM GAS  C:\Users\ANDREW~1\AppData\Local\Temp\ccsv3i4f.s 			page 99


 4492 00e0 31       		.uleb128 0x31
 4493 00e1 13       		.uleb128 0x13
 4494 00e2 00       		.byte	0
 4495 00e3 00       		.byte	0
 4496 00e4 10       		.uleb128 0x10
 4497 00e5 2E       		.uleb128 0x2e
 4498 00e6 01       		.byte	0x1
 4499 00e7 3F       		.uleb128 0x3f
 4500 00e8 19       		.uleb128 0x19
 4501 00e9 03       		.uleb128 0x3
 4502 00ea 0E       		.uleb128 0xe
 4503 00eb 3A       		.uleb128 0x3a
 4504 00ec 0B       		.uleb128 0xb
 4505 00ed 3B       		.uleb128 0x3b
 4506 00ee 05       		.uleb128 0x5
 4507 00ef 49       		.uleb128 0x49
 4508 00f0 13       		.uleb128 0x13
 4509 00f1 11       		.uleb128 0x11
 4510 00f2 01       		.uleb128 0x1
 4511 00f3 12       		.uleb128 0x12
 4512 00f4 06       		.uleb128 0x6
 4513 00f5 40       		.uleb128 0x40
 4514 00f6 18       		.uleb128 0x18
 4515 00f7 9642     		.uleb128 0x2116
 4516 00f9 19       		.uleb128 0x19
 4517 00fa 01       		.uleb128 0x1
 4518 00fb 13       		.uleb128 0x13
 4519 00fc 00       		.byte	0
 4520 00fd 00       		.byte	0
 4521 00fe 11       		.uleb128 0x11
 4522 00ff 34       		.uleb128 0x34
 4523 0100 00       		.byte	0
 4524 0101 03       		.uleb128 0x3
 4525 0102 0E       		.uleb128 0xe
 4526 0103 3A       		.uleb128 0x3a
 4527 0104 0B       		.uleb128 0xb
 4528 0105 3B       		.uleb128 0x3b
 4529 0106 05       		.uleb128 0x5
 4530 0107 49       		.uleb128 0x49
 4531 0108 13       		.uleb128 0x13
 4532 0109 02       		.uleb128 0x2
 4533 010a 17       		.uleb128 0x17
 4534 010b 00       		.byte	0
 4535 010c 00       		.byte	0
 4536 010d 12       		.uleb128 0x12
 4537 010e 05       		.uleb128 0x5
 4538 010f 00       		.byte	0
 4539 0110 03       		.uleb128 0x3
 4540 0111 08       		.uleb128 0x8
 4541 0112 3A       		.uleb128 0x3a
 4542 0113 0B       		.uleb128 0xb
 4543 0114 3B       		.uleb128 0x3b
 4544 0115 05       		.uleb128 0x5
 4545 0116 49       		.uleb128 0x49
 4546 0117 13       		.uleb128 0x13
 4547 0118 02       		.uleb128 0x2
 4548 0119 17       		.uleb128 0x17
ARM GAS  C:\Users\ANDREW~1\AppData\Local\Temp\ccsv3i4f.s 			page 100


 4549 011a 00       		.byte	0
 4550 011b 00       		.byte	0
 4551 011c 13       		.uleb128 0x13
 4552 011d 0B       		.uleb128 0xb
 4553 011e 01       		.byte	0x1
 4554 011f 11       		.uleb128 0x11
 4555 0120 01       		.uleb128 0x1
 4556 0121 12       		.uleb128 0x12
 4557 0122 06       		.uleb128 0x6
 4558 0123 01       		.uleb128 0x1
 4559 0124 13       		.uleb128 0x13
 4560 0125 00       		.byte	0
 4561 0126 00       		.byte	0
 4562 0127 14       		.uleb128 0x14
 4563 0128 34       		.uleb128 0x34
 4564 0129 00       		.byte	0
 4565 012a 03       		.uleb128 0x3
 4566 012b 08       		.uleb128 0x8
 4567 012c 3A       		.uleb128 0x3a
 4568 012d 0B       		.uleb128 0xb
 4569 012e 3B       		.uleb128 0x3b
 4570 012f 05       		.uleb128 0x5
 4571 0130 49       		.uleb128 0x49
 4572 0131 13       		.uleb128 0x13
 4573 0132 02       		.uleb128 0x2
 4574 0133 17       		.uleb128 0x17
 4575 0134 00       		.byte	0
 4576 0135 00       		.byte	0
 4577 0136 15       		.uleb128 0x15
 4578 0137 0B       		.uleb128 0xb
 4579 0138 01       		.byte	0x1
 4580 0139 11       		.uleb128 0x11
 4581 013a 01       		.uleb128 0x1
 4582 013b 12       		.uleb128 0x12
 4583 013c 06       		.uleb128 0x6
 4584 013d 00       		.byte	0
 4585 013e 00       		.byte	0
 4586 013f 16       		.uleb128 0x16
 4587 0140 05       		.uleb128 0x5
 4588 0141 00       		.byte	0
 4589 0142 03       		.uleb128 0x3
 4590 0143 0E       		.uleb128 0xe
 4591 0144 3A       		.uleb128 0x3a
 4592 0145 0B       		.uleb128 0xb
 4593 0146 3B       		.uleb128 0x3b
 4594 0147 05       		.uleb128 0x5
 4595 0148 49       		.uleb128 0x49
 4596 0149 13       		.uleb128 0x13
 4597 014a 02       		.uleb128 0x2
 4598 014b 17       		.uleb128 0x17
 4599 014c 00       		.byte	0
 4600 014d 00       		.byte	0
 4601 014e 17       		.uleb128 0x17
 4602 014f 2E       		.uleb128 0x2e
 4603 0150 01       		.byte	0x1
 4604 0151 3F       		.uleb128 0x3f
 4605 0152 19       		.uleb128 0x19
ARM GAS  C:\Users\ANDREW~1\AppData\Local\Temp\ccsv3i4f.s 			page 101


 4606 0153 03       		.uleb128 0x3
 4607 0154 0E       		.uleb128 0xe
 4608 0155 3A       		.uleb128 0x3a
 4609 0156 0B       		.uleb128 0xb
 4610 0157 3B       		.uleb128 0x3b
 4611 0158 05       		.uleb128 0x5
 4612 0159 27       		.uleb128 0x27
 4613 015a 19       		.uleb128 0x19
 4614 015b 11       		.uleb128 0x11
 4615 015c 01       		.uleb128 0x1
 4616 015d 12       		.uleb128 0x12
 4617 015e 06       		.uleb128 0x6
 4618 015f 40       		.uleb128 0x40
 4619 0160 18       		.uleb128 0x18
 4620 0161 9642     		.uleb128 0x2116
 4621 0163 19       		.uleb128 0x19
 4622 0164 01       		.uleb128 0x1
 4623 0165 13       		.uleb128 0x13
 4624 0166 00       		.byte	0
 4625 0167 00       		.byte	0
 4626 0168 18       		.uleb128 0x18
 4627 0169 2E       		.uleb128 0x2e
 4628 016a 01       		.byte	0x1
 4629 016b 3F       		.uleb128 0x3f
 4630 016c 19       		.uleb128 0x19
 4631 016d 03       		.uleb128 0x3
 4632 016e 0E       		.uleb128 0xe
 4633 016f 3A       		.uleb128 0x3a
 4634 0170 0B       		.uleb128 0xb
 4635 0171 3B       		.uleb128 0x3b
 4636 0172 05       		.uleb128 0x5
 4637 0173 11       		.uleb128 0x11
 4638 0174 01       		.uleb128 0x1
 4639 0175 12       		.uleb128 0x12
 4640 0176 06       		.uleb128 0x6
 4641 0177 40       		.uleb128 0x40
 4642 0178 18       		.uleb128 0x18
 4643 0179 9742     		.uleb128 0x2117
 4644 017b 19       		.uleb128 0x19
 4645 017c 01       		.uleb128 0x1
 4646 017d 13       		.uleb128 0x13
 4647 017e 00       		.byte	0
 4648 017f 00       		.byte	0
 4649 0180 19       		.uleb128 0x19
 4650 0181 05       		.uleb128 0x5
 4651 0182 00       		.byte	0
 4652 0183 03       		.uleb128 0x3
 4653 0184 0E       		.uleb128 0xe
 4654 0185 3A       		.uleb128 0x3a
 4655 0186 0B       		.uleb128 0xb
 4656 0187 3B       		.uleb128 0x3b
 4657 0188 05       		.uleb128 0x5
 4658 0189 49       		.uleb128 0x49
 4659 018a 13       		.uleb128 0x13
 4660 018b 02       		.uleb128 0x2
 4661 018c 18       		.uleb128 0x18
 4662 018d 00       		.byte	0
ARM GAS  C:\Users\ANDREW~1\AppData\Local\Temp\ccsv3i4f.s 			page 102


 4663 018e 00       		.byte	0
 4664 018f 1A       		.uleb128 0x1a
 4665 0190 0B       		.uleb128 0xb
 4666 0191 01       		.byte	0x1
 4667 0192 55       		.uleb128 0x55
 4668 0193 17       		.uleb128 0x17
 4669 0194 01       		.uleb128 0x1
 4670 0195 13       		.uleb128 0x13
 4671 0196 00       		.byte	0
 4672 0197 00       		.byte	0
 4673 0198 1B       		.uleb128 0x1b
 4674 0199 2E       		.uleb128 0x2e
 4675 019a 01       		.byte	0x1
 4676 019b 3F       		.uleb128 0x3f
 4677 019c 19       		.uleb128 0x19
 4678 019d 03       		.uleb128 0x3
 4679 019e 0E       		.uleb128 0xe
 4680 019f 3A       		.uleb128 0x3a
 4681 01a0 0B       		.uleb128 0xb
 4682 01a1 3B       		.uleb128 0x3b
 4683 01a2 0B       		.uleb128 0xb
 4684 01a3 27       		.uleb128 0x27
 4685 01a4 19       		.uleb128 0x19
 4686 01a5 49       		.uleb128 0x49
 4687 01a6 13       		.uleb128 0x13
 4688 01a7 8701     		.uleb128 0x87
 4689 01a9 19       		.uleb128 0x19
 4690 01aa 11       		.uleb128 0x11
 4691 01ab 01       		.uleb128 0x1
 4692 01ac 12       		.uleb128 0x12
 4693 01ad 06       		.uleb128 0x6
 4694 01ae 40       		.uleb128 0x40
 4695 01af 18       		.uleb128 0x18
 4696 01b0 9642     		.uleb128 0x2116
 4697 01b2 19       		.uleb128 0x19
 4698 01b3 01       		.uleb128 0x1
 4699 01b4 13       		.uleb128 0x13
 4700 01b5 00       		.byte	0
 4701 01b6 00       		.byte	0
 4702 01b7 1C       		.uleb128 0x1c
 4703 01b8 34       		.uleb128 0x34
 4704 01b9 00       		.byte	0
 4705 01ba 03       		.uleb128 0x3
 4706 01bb 0E       		.uleb128 0xe
 4707 01bc 3A       		.uleb128 0x3a
 4708 01bd 0B       		.uleb128 0xb
 4709 01be 3B       		.uleb128 0x3b
 4710 01bf 0B       		.uleb128 0xb
 4711 01c0 49       		.uleb128 0x49
 4712 01c1 13       		.uleb128 0x13
 4713 01c2 02       		.uleb128 0x2
 4714 01c3 18       		.uleb128 0x18
 4715 01c4 00       		.byte	0
 4716 01c5 00       		.byte	0
 4717 01c6 1D       		.uleb128 0x1d
 4718 01c7 2E       		.uleb128 0x2e
 4719 01c8 01       		.byte	0x1
ARM GAS  C:\Users\ANDREW~1\AppData\Local\Temp\ccsv3i4f.s 			page 103


 4720 01c9 3F       		.uleb128 0x3f
 4721 01ca 19       		.uleb128 0x19
 4722 01cb 03       		.uleb128 0x3
 4723 01cc 0E       		.uleb128 0xe
 4724 01cd 3A       		.uleb128 0x3a
 4725 01ce 0B       		.uleb128 0xb
 4726 01cf 3B       		.uleb128 0x3b
 4727 01d0 0B       		.uleb128 0xb
 4728 01d1 27       		.uleb128 0x27
 4729 01d2 19       		.uleb128 0x19
 4730 01d3 11       		.uleb128 0x11
 4731 01d4 01       		.uleb128 0x1
 4732 01d5 12       		.uleb128 0x12
 4733 01d6 06       		.uleb128 0x6
 4734 01d7 40       		.uleb128 0x40
 4735 01d8 18       		.uleb128 0x18
 4736 01d9 9642     		.uleb128 0x2116
 4737 01db 19       		.uleb128 0x19
 4738 01dc 01       		.uleb128 0x1
 4739 01dd 13       		.uleb128 0x13
 4740 01de 00       		.byte	0
 4741 01df 00       		.byte	0
 4742 01e0 1E       		.uleb128 0x1e
 4743 01e1 34       		.uleb128 0x34
 4744 01e2 00       		.byte	0
 4745 01e3 03       		.uleb128 0x3
 4746 01e4 0E       		.uleb128 0xe
 4747 01e5 3A       		.uleb128 0x3a
 4748 01e6 0B       		.uleb128 0xb
 4749 01e7 3B       		.uleb128 0x3b
 4750 01e8 0B       		.uleb128 0xb
 4751 01e9 49       		.uleb128 0x49
 4752 01ea 13       		.uleb128 0x13
 4753 01eb 02       		.uleb128 0x2
 4754 01ec 17       		.uleb128 0x17
 4755 01ed 00       		.byte	0
 4756 01ee 00       		.byte	0
 4757 01ef 1F       		.uleb128 0x1f
 4758 01f0 34       		.uleb128 0x34
 4759 01f1 00       		.byte	0
 4760 01f2 03       		.uleb128 0x3
 4761 01f3 0E       		.uleb128 0xe
 4762 01f4 3A       		.uleb128 0x3a
 4763 01f5 0B       		.uleb128 0xb
 4764 01f6 3B       		.uleb128 0x3b
 4765 01f7 05       		.uleb128 0x5
 4766 01f8 49       		.uleb128 0x49
 4767 01f9 13       		.uleb128 0x13
 4768 01fa 3F       		.uleb128 0x3f
 4769 01fb 19       		.uleb128 0x19
 4770 01fc 3C       		.uleb128 0x3c
 4771 01fd 19       		.uleb128 0x19
 4772 01fe 00       		.byte	0
 4773 01ff 00       		.byte	0
 4774 0200 20       		.uleb128 0x20
 4775 0201 35       		.uleb128 0x35
 4776 0202 00       		.byte	0
ARM GAS  C:\Users\ANDREW~1\AppData\Local\Temp\ccsv3i4f.s 			page 104


 4777 0203 49       		.uleb128 0x49
 4778 0204 13       		.uleb128 0x13
 4779 0205 00       		.byte	0
 4780 0206 00       		.byte	0
 4781 0207 21       		.uleb128 0x21
 4782 0208 34       		.uleb128 0x34
 4783 0209 00       		.byte	0
 4784 020a 03       		.uleb128 0x3
 4785 020b 0E       		.uleb128 0xe
 4786 020c 3A       		.uleb128 0x3a
 4787 020d 0B       		.uleb128 0xb
 4788 020e 3B       		.uleb128 0x3b
 4789 020f 0B       		.uleb128 0xb
 4790 0210 49       		.uleb128 0x49
 4791 0211 13       		.uleb128 0x13
 4792 0212 3F       		.uleb128 0x3f
 4793 0213 19       		.uleb128 0x19
 4794 0214 02       		.uleb128 0x2
 4795 0215 18       		.uleb128 0x18
 4796 0216 00       		.byte	0
 4797 0217 00       		.byte	0
 4798 0218 22       		.uleb128 0x22
 4799 0219 01       		.uleb128 0x1
 4800 021a 01       		.byte	0x1
 4801 021b 49       		.uleb128 0x49
 4802 021c 13       		.uleb128 0x13
 4803 021d 01       		.uleb128 0x1
 4804 021e 13       		.uleb128 0x13
 4805 021f 00       		.byte	0
 4806 0220 00       		.byte	0
 4807 0221 23       		.uleb128 0x23
 4808 0222 21       		.uleb128 0x21
 4809 0223 00       		.byte	0
 4810 0224 49       		.uleb128 0x49
 4811 0225 13       		.uleb128 0x13
 4812 0226 2F       		.uleb128 0x2f
 4813 0227 0B       		.uleb128 0xb
 4814 0228 00       		.byte	0
 4815 0229 00       		.byte	0
 4816 022a 24       		.uleb128 0x24
 4817 022b 34       		.uleb128 0x34
 4818 022c 00       		.byte	0
 4819 022d 03       		.uleb128 0x3
 4820 022e 0E       		.uleb128 0xe
 4821 022f 3A       		.uleb128 0x3a
 4822 0230 0B       		.uleb128 0xb
 4823 0231 3B       		.uleb128 0x3b
 4824 0232 05       		.uleb128 0x5
 4825 0233 49       		.uleb128 0x49
 4826 0234 13       		.uleb128 0x13
 4827 0235 3F       		.uleb128 0x3f
 4828 0236 19       		.uleb128 0x19
 4829 0237 02       		.uleb128 0x2
 4830 0238 18       		.uleb128 0x18
 4831 0239 00       		.byte	0
 4832 023a 00       		.byte	0
 4833 023b 25       		.uleb128 0x25
ARM GAS  C:\Users\ANDREW~1\AppData\Local\Temp\ccsv3i4f.s 			page 105


 4834 023c 34       		.uleb128 0x34
 4835 023d 00       		.byte	0
 4836 023e 03       		.uleb128 0x3
 4837 023f 08       		.uleb128 0x8
 4838 0240 3A       		.uleb128 0x3a
 4839 0241 0B       		.uleb128 0xb
 4840 0242 3B       		.uleb128 0x3b
 4841 0243 05       		.uleb128 0x5
 4842 0244 49       		.uleb128 0x49
 4843 0245 13       		.uleb128 0x13
 4844 0246 3F       		.uleb128 0x3f
 4845 0247 19       		.uleb128 0x19
 4846 0248 02       		.uleb128 0x2
 4847 0249 18       		.uleb128 0x18
 4848 024a 00       		.byte	0
 4849 024b 00       		.byte	0
 4850 024c 26       		.uleb128 0x26
 4851 024d 2E       		.uleb128 0x2e
 4852 024e 00       		.byte	0
 4853 024f 3F       		.uleb128 0x3f
 4854 0250 19       		.uleb128 0x19
 4855 0251 3C       		.uleb128 0x3c
 4856 0252 19       		.uleb128 0x19
 4857 0253 6E       		.uleb128 0x6e
 4858 0254 0E       		.uleb128 0xe
 4859 0255 03       		.uleb128 0x3
 4860 0256 0E       		.uleb128 0xe
 4861 0257 3A       		.uleb128 0x3a
 4862 0258 0B       		.uleb128 0xb
 4863 0259 3B       		.uleb128 0x3b
 4864 025a 0B       		.uleb128 0xb
 4865 025b 00       		.byte	0
 4866 025c 00       		.byte	0
 4867 025d 00       		.byte	0
 4868              		.section	.debug_loc,"",%progbits
 4869              	.Ldebug_loc0:
 4870              	.LLST0:
 4871 0000 12000000 		.4byte	.LVL9
 4872 0004 19000000 		.4byte	.LVL10-1
 4873 0008 0600     		.2byte	0x6
 4874 000a 50       		.byte	0x50
 4875 000b 93       		.byte	0x93
 4876 000c 04       		.uleb128 0x4
 4877 000d 51       		.byte	0x51
 4878 000e 93       		.byte	0x93
 4879 000f 04       		.uleb128 0x4
 4880 0010 1A000000 		.4byte	.LVL10
 4881 0014 20000000 		.4byte	.LFE81
 4882 0018 0600     		.2byte	0x6
 4883 001a 50       		.byte	0x50
 4884 001b 93       		.byte	0x93
 4885 001c 04       		.uleb128 0x4
 4886 001d 51       		.byte	0x51
 4887 001e 93       		.byte	0x93
 4888 001f 04       		.uleb128 0x4
 4889 0020 00000000 		.4byte	0
 4890 0024 00000000 		.4byte	0
ARM GAS  C:\Users\ANDREW~1\AppData\Local\Temp\ccsv3i4f.s 			page 106


 4891              	.LLST1:
 4892 0028 00000000 		.4byte	.LVL11
 4893 002c 3A000000 		.4byte	.LVL19
 4894 0030 0100     		.2byte	0x1
 4895 0032 50       		.byte	0x50
 4896 0033 3A000000 		.4byte	.LVL19
 4897 0037 44000000 		.4byte	.LVL21
 4898 003b 0100     		.2byte	0x1
 4899 003d 50       		.byte	0x50
 4900 003e 00000000 		.4byte	0
 4901 0042 00000000 		.4byte	0
 4902              	.LLST2:
 4903 0046 02000000 		.4byte	.LVL12
 4904 004a 08000000 		.4byte	.LVL13
 4905 004e 0200     		.2byte	0x2
 4906 0050 30       		.byte	0x30
 4907 0051 9F       		.byte	0x9f
 4908 0052 08000000 		.4byte	.LVL13
 4909 0056 5E000000 		.4byte	.LVL25
 4910 005a 0100     		.2byte	0x1
 4911 005c 55       		.byte	0x55
 4912 005d 00000000 		.4byte	0
 4913 0061 00000000 		.4byte	0
 4914              	.LLST3:
 4915 0065 02000000 		.4byte	.LVL12
 4916 0069 08000000 		.4byte	.LVL13
 4917 006d 0100     		.2byte	0x1
 4918 006f 50       		.byte	0x50
 4919 0070 08000000 		.4byte	.LVL13
 4920 0074 10000000 		.4byte	.LVL14
 4921 0078 0100     		.2byte	0x1
 4922 007a 53       		.byte	0x53
 4923 007b 14000000 		.4byte	.LVL15
 4924 007f 1E000000 		.4byte	.LVL18
 4925 0083 0100     		.2byte	0x1
 4926 0085 53       		.byte	0x53
 4927 0086 00000000 		.4byte	0
 4928 008a 00000000 		.4byte	0
 4929              	.LLST4:
 4930 008e 1C000000 		.4byte	.LVL17
 4931 0092 44000000 		.4byte	.LVL21
 4932 0096 0100     		.2byte	0x1
 4933 0098 52       		.byte	0x52
 4934 0099 00000000 		.4byte	0
 4935 009d 00000000 		.4byte	0
 4936              	.LLST5:
 4937 00a1 44000000 		.4byte	.LVL21
 4938 00a5 5E000000 		.4byte	.LVL25
 4939 00a9 0100     		.2byte	0x1
 4940 00ab 54       		.byte	0x54
 4941 00ac 00000000 		.4byte	0
 4942 00b0 00000000 		.4byte	0
 4943              	.LLST6:
 4944 00b4 00000000 		.4byte	.LVL26
 4945 00b8 09000000 		.4byte	.LVL27-1
 4946 00bc 0600     		.2byte	0x6
 4947 00be 50       		.byte	0x50
ARM GAS  C:\Users\ANDREW~1\AppData\Local\Temp\ccsv3i4f.s 			page 107


 4948 00bf 93       		.byte	0x93
 4949 00c0 04       		.uleb128 0x4
 4950 00c1 51       		.byte	0x51
 4951 00c2 93       		.byte	0x93
 4952 00c3 04       		.uleb128 0x4
 4953 00c4 09000000 		.4byte	.LVL27-1
 4954 00c8 1C000000 		.4byte	.LFE83
 4955 00cc 0600     		.2byte	0x6
 4956 00ce F3       		.byte	0xf3
 4957 00cf 03       		.uleb128 0x3
 4958 00d0 F5       		.byte	0xf5
 4959 00d1 00       		.uleb128 0
 4960 00d2 25       		.uleb128 0x25
 4961 00d3 9F       		.byte	0x9f
 4962 00d4 00000000 		.4byte	0
 4963 00d8 00000000 		.4byte	0
 4964              	.LLST7:
 4965 00dc 00000000 		.4byte	.LVL28
 4966 00e0 09000000 		.4byte	.LVL29-1
 4967 00e4 0600     		.2byte	0x6
 4968 00e6 50       		.byte	0x50
 4969 00e7 93       		.byte	0x93
 4970 00e8 04       		.uleb128 0x4
 4971 00e9 51       		.byte	0x51
 4972 00ea 93       		.byte	0x93
 4973 00eb 04       		.uleb128 0x4
 4974 00ec 09000000 		.4byte	.LVL29-1
 4975 00f0 34000000 		.4byte	.LFE84
 4976 00f4 0600     		.2byte	0x6
 4977 00f6 F3       		.byte	0xf3
 4978 00f7 03       		.uleb128 0x3
 4979 00f8 F5       		.byte	0xf5
 4980 00f9 00       		.uleb128 0
 4981 00fa 25       		.uleb128 0x25
 4982 00fb 9F       		.byte	0x9f
 4983 00fc 00000000 		.4byte	0
 4984 0100 00000000 		.4byte	0
 4985              	.LLST8:
 4986 0104 14000000 		.4byte	.LVL30
 4987 0108 1B000000 		.4byte	.LVL31-1
 4988 010c 0600     		.2byte	0x6
 4989 010e 50       		.byte	0x50
 4990 010f 93       		.byte	0x93
 4991 0110 04       		.uleb128 0x4
 4992 0111 51       		.byte	0x51
 4993 0112 93       		.byte	0x93
 4994 0113 04       		.uleb128 0x4
 4995 0114 00000000 		.4byte	0
 4996 0118 00000000 		.4byte	0
 4997              	.LLST9:
 4998 011c 00000000 		.4byte	.LVL44
 4999 0120 0A000000 		.4byte	.LVL45
 5000 0124 0100     		.2byte	0x1
 5001 0126 50       		.byte	0x50
 5002 0127 0A000000 		.4byte	.LVL45
 5003 012b 88000000 		.4byte	.LFE91
 5004 012f 0400     		.2byte	0x4
ARM GAS  C:\Users\ANDREW~1\AppData\Local\Temp\ccsv3i4f.s 			page 108


 5005 0131 F3       		.byte	0xf3
 5006 0132 01       		.uleb128 0x1
 5007 0133 50       		.byte	0x50
 5008 0134 9F       		.byte	0x9f
 5009 0135 00000000 		.4byte	0
 5010 0139 00000000 		.4byte	0
 5011              	.LLST10:
 5012 013d 00000000 		.4byte	.LVL44
 5013 0141 0E000000 		.4byte	.LVL46
 5014 0145 0100     		.2byte	0x1
 5015 0147 51       		.byte	0x51
 5016 0148 0E000000 		.4byte	.LVL46
 5017 014c 80000000 		.4byte	.LVL57
 5018 0150 0100     		.2byte	0x1
 5019 0152 55       		.byte	0x55
 5020 0153 80000000 		.4byte	.LVL57
 5021 0157 88000000 		.4byte	.LFE91
 5022 015b 0400     		.2byte	0x4
 5023 015d F3       		.byte	0xf3
 5024 015e 01       		.uleb128 0x1
 5025 015f 51       		.byte	0x51
 5026 0160 9F       		.byte	0x9f
 5027 0161 00000000 		.4byte	0
 5028 0165 00000000 		.4byte	0
 5029              	.LLST11:
 5030 0169 0A000000 		.4byte	.LVL45
 5031 016d 22000000 		.4byte	.LVL48
 5032 0171 0100     		.2byte	0x1
 5033 0173 50       		.byte	0x50
 5034 0174 22000000 		.4byte	.LVL48
 5035 0178 88000000 		.4byte	.LFE91
 5036 017c 0C00     		.2byte	0xc
 5037 017e F3       		.byte	0xf3
 5038 017f 01       		.uleb128 0x1
 5039 0180 50       		.byte	0x50
 5040 0181 33       		.byte	0x33
 5041 0182 24       		.byte	0x24
 5042 0183 03       		.byte	0x3
 5043 0184 00000000 		.4byte	.LANCHOR2
 5044 0188 22       		.byte	0x22
 5045 0189 9F       		.byte	0x9f
 5046 018a 00000000 		.4byte	0
 5047 018e 00000000 		.4byte	0
 5048              	.LLST12:
 5049 0192 0A000000 		.4byte	.LVL45
 5050 0196 0E000000 		.4byte	.LVL46
 5051 019a 0200     		.2byte	0x2
 5052 019c 30       		.byte	0x30
 5053 019d 9F       		.byte	0x9f
 5054 019e 0E000000 		.4byte	.LVL46
 5055 01a2 2B000000 		.4byte	.LVL49-1
 5056 01a6 0100     		.2byte	0x1
 5057 01a8 53       		.byte	0x53
 5058 01a9 00000000 		.4byte	0
 5059 01ad 00000000 		.4byte	0
 5060              	.LLST13:
 5061 01b1 00000000 		.4byte	.LVL58
ARM GAS  C:\Users\ANDREW~1\AppData\Local\Temp\ccsv3i4f.s 			page 109


 5062 01b5 17000000 		.4byte	.LVL59-1
 5063 01b9 0600     		.2byte	0x6
 5064 01bb 50       		.byte	0x50
 5065 01bc 93       		.byte	0x93
 5066 01bd 04       		.uleb128 0x4
 5067 01be 51       		.byte	0x51
 5068 01bf 93       		.byte	0x93
 5069 01c0 04       		.uleb128 0x4
 5070 01c1 17000000 		.4byte	.LVL59-1
 5071 01c5 42000000 		.4byte	.LVL63
 5072 01c9 0600     		.2byte	0x6
 5073 01cb F3       		.byte	0xf3
 5074 01cc 03       		.uleb128 0x3
 5075 01cd F5       		.byte	0xf5
 5076 01ce 00       		.uleb128 0
 5077 01cf 25       		.uleb128 0x25
 5078 01d0 9F       		.byte	0x9f
 5079 01d1 42000000 		.4byte	.LVL63
 5080 01d5 50000000 		.4byte	.LVL65
 5081 01d9 0600     		.2byte	0x6
 5082 01db 54       		.byte	0x54
 5083 01dc 93       		.byte	0x93
 5084 01dd 04       		.uleb128 0x4
 5085 01de 55       		.byte	0x55
 5086 01df 93       		.byte	0x93
 5087 01e0 04       		.uleb128 0x4
 5088 01e1 52000000 		.4byte	.LVL66
 5089 01e5 56000000 		.4byte	.LVL68
 5090 01e9 0600     		.2byte	0x6
 5091 01eb 54       		.byte	0x54
 5092 01ec 93       		.byte	0x93
 5093 01ed 04       		.uleb128 0x4
 5094 01ee 55       		.byte	0x55
 5095 01ef 93       		.byte	0x93
 5096 01f0 04       		.uleb128 0x4
 5097 01f1 56000000 		.4byte	.LVL68
 5098 01f5 58000000 		.4byte	.LVL69
 5099 01f9 0600     		.2byte	0x6
 5100 01fb F3       		.byte	0xf3
 5101 01fc 03       		.uleb128 0x3
 5102 01fd F5       		.byte	0xf5
 5103 01fe 00       		.uleb128 0
 5104 01ff 25       		.uleb128 0x25
 5105 0200 9F       		.byte	0x9f
 5106 0201 58000000 		.4byte	.LVL69
 5107 0205 DC000000 		.4byte	.LVL72
 5108 0209 0600     		.2byte	0x6
 5109 020b 54       		.byte	0x54
 5110 020c 93       		.byte	0x93
 5111 020d 04       		.uleb128 0x4
 5112 020e 55       		.byte	0x55
 5113 020f 93       		.byte	0x93
 5114 0210 04       		.uleb128 0x4
 5115 0211 DC000000 		.4byte	.LVL72
 5116 0215 56010000 		.4byte	.LVL75
 5117 0219 0600     		.2byte	0x6
 5118 021b F3       		.byte	0xf3
ARM GAS  C:\Users\ANDREW~1\AppData\Local\Temp\ccsv3i4f.s 			page 110


 5119 021c 03       		.uleb128 0x3
 5120 021d F5       		.byte	0xf5
 5121 021e 00       		.uleb128 0
 5122 021f 25       		.uleb128 0x25
 5123 0220 9F       		.byte	0x9f
 5124 0221 56010000 		.4byte	.LVL75
 5125 0225 7A010000 		.4byte	.LVL80
 5126 0229 0600     		.2byte	0x6
 5127 022b 54       		.byte	0x54
 5128 022c 93       		.byte	0x93
 5129 022d 04       		.uleb128 0x4
 5130 022e 55       		.byte	0x55
 5131 022f 93       		.byte	0x93
 5132 0230 04       		.uleb128 0x4
 5133 0231 7A010000 		.4byte	.LVL80
 5134 0235 74020000 		.4byte	.LVL90
 5135 0239 0600     		.2byte	0x6
 5136 023b F3       		.byte	0xf3
 5137 023c 03       		.uleb128 0x3
 5138 023d F5       		.byte	0xf5
 5139 023e 00       		.uleb128 0
 5140 023f 25       		.uleb128 0x25
 5141 0240 9F       		.byte	0x9f
 5142 0241 00000000 		.4byte	0
 5143 0245 00000000 		.4byte	0
 5144              	.LLST14:
 5145 0249 32000000 		.4byte	.LVL61
 5146 024d 42000000 		.4byte	.LVL63
 5147 0251 0200     		.2byte	0x2
 5148 0253 30       		.byte	0x30
 5149 0254 9F       		.byte	0x9f
 5150 0255 42000000 		.4byte	.LVL63
 5151 0259 56000000 		.4byte	.LVL68
 5152 025d 0100     		.2byte	0x1
 5153 025f 56       		.byte	0x56
 5154 0260 56000000 		.4byte	.LVL68
 5155 0264 58000000 		.4byte	.LVL69
 5156 0268 0200     		.2byte	0x2
 5157 026a 30       		.byte	0x30
 5158 026b 9F       		.byte	0x9f
 5159 026c 58000000 		.4byte	.LVL69
 5160 0270 DC000000 		.4byte	.LVL72
 5161 0274 0100     		.2byte	0x1
 5162 0276 56       		.byte	0x56
 5163 0277 DC000000 		.4byte	.LVL72
 5164 027b 56010000 		.4byte	.LVL75
 5165 027f 0200     		.2byte	0x2
 5166 0281 33       		.byte	0x33
 5167 0282 9F       		.byte	0x9f
 5168 0283 56010000 		.4byte	.LVL75
 5169 0287 70010000 		.4byte	.LVL79
 5170 028b 0100     		.2byte	0x1
 5171 028d 56       		.byte	0x56
 5172 028e 00000000 		.4byte	0
 5173 0292 00000000 		.4byte	0
 5174              	.LLST15:
 5175 0296 70000000 		.4byte	.LVL71
ARM GAS  C:\Users\ANDREW~1\AppData\Local\Temp\ccsv3i4f.s 			page 111


 5176 029a DC000000 		.4byte	.LVL72
 5177 029e 0100     		.2byte	0x1
 5178 02a0 50       		.byte	0x50
 5179 02a1 00000000 		.4byte	0
 5180 02a5 00000000 		.4byte	0
 5181              	.LLST16:
 5182 02a9 EC000000 		.4byte	.LVL74
 5183 02ad 56010000 		.4byte	.LVL75
 5184 02b1 0100     		.2byte	0x1
 5185 02b3 50       		.byte	0x50
 5186 02b4 00000000 		.4byte	0
 5187 02b8 00000000 		.4byte	0
 5188              	.LLST17:
 5189 02bc 56010000 		.4byte	.LVL75
 5190 02c0 5A010000 		.4byte	.LVL76
 5191 02c4 0200     		.2byte	0x2
 5192 02c6 30       		.byte	0x30
 5193 02c7 9F       		.byte	0x9f
 5194 02c8 5A010000 		.4byte	.LVL76
 5195 02cc 6C010000 		.4byte	.LVL78
 5196 02d0 0100     		.2byte	0x1
 5197 02d2 53       		.byte	0x53
 5198 02d3 00000000 		.4byte	0
 5199 02d7 00000000 		.4byte	0
 5200              	.LLST18:
 5201 02db 0A000000 		.4byte	.LVL156
 5202 02df 62000000 		.4byte	.LVL167
 5203 02e3 0600     		.2byte	0x6
 5204 02e5 56       		.byte	0x56
 5205 02e6 93       		.byte	0x93
 5206 02e7 04       		.uleb128 0x4
 5207 02e8 57       		.byte	0x57
 5208 02e9 93       		.byte	0x93
 5209 02ea 04       		.uleb128 0x4
 5210 02eb 64000000 		.4byte	.LVL168
 5211 02ef 08010000 		.4byte	.LVL192
 5212 02f3 0600     		.2byte	0x6
 5213 02f5 56       		.byte	0x56
 5214 02f6 93       		.byte	0x93
 5215 02f7 04       		.uleb128 0x4
 5216 02f8 57       		.byte	0x57
 5217 02f9 93       		.byte	0x93
 5218 02fa 04       		.uleb128 0x4
 5219 02fb 00000000 		.4byte	0
 5220 02ff 00000000 		.4byte	0
 5221              	.LLST19:
 5222 0303 20000000 		.4byte	.LVL160
 5223 0307 78000000 		.4byte	.LVL172
 5224 030b 0600     		.2byte	0x6
 5225 030d 54       		.byte	0x54
 5226 030e 93       		.byte	0x93
 5227 030f 04       		.uleb128 0x4
 5228 0310 55       		.byte	0x55
 5229 0311 93       		.byte	0x93
 5230 0312 04       		.uleb128 0x4
 5231 0313 00000000 		.4byte	0
 5232 0317 00000000 		.4byte	0
ARM GAS  C:\Users\ANDREW~1\AppData\Local\Temp\ccsv3i4f.s 			page 112


 5233              	.LLST20:
 5234 031b 7A000000 		.4byte	.LVL173
 5235 031f A0000000 		.4byte	.LVL179
 5236 0323 0600     		.2byte	0x6
 5237 0325 54       		.byte	0x54
 5238 0326 93       		.byte	0x93
 5239 0327 04       		.uleb128 0x4
 5240 0328 55       		.byte	0x55
 5241 0329 93       		.byte	0x93
 5242 032a 04       		.uleb128 0x4
 5243 032b BA000000 		.4byte	.LVL183
 5244 032f EE000000 		.4byte	.LVL190
 5245 0333 0600     		.2byte	0x6
 5246 0335 54       		.byte	0x54
 5247 0336 93       		.byte	0x93
 5248 0337 04       		.uleb128 0x4
 5249 0338 55       		.byte	0x55
 5250 0339 93       		.byte	0x93
 5251 033a 04       		.uleb128 0x4
 5252 033b 00000000 		.4byte	0
 5253 033f 00000000 		.4byte	0
 5254              	.LLST21:
 5255 0343 02000000 		.4byte	.LVL193
 5256 0347 06000000 		.4byte	.LVL194
 5257 034b 0200     		.2byte	0x2
 5258 034d 31       		.byte	0x31
 5259 034e 9F       		.byte	0x9f
 5260 034f 06000000 		.4byte	.LVL194
 5261 0353 1E000000 		.4byte	.LVL199
 5262 0357 0100     		.2byte	0x1
 5263 0359 56       		.byte	0x56
 5264 035a 1E000000 		.4byte	.LVL199
 5265 035e 20000000 		.4byte	.LVL200
 5266 0362 0200     		.2byte	0x2
 5267 0364 30       		.byte	0x30
 5268 0365 9F       		.byte	0x9f
 5269 0366 20000000 		.4byte	.LVL200
 5270 036a 52000000 		.4byte	.LVL206
 5271 036e 0100     		.2byte	0x1
 5272 0370 56       		.byte	0x56
 5273 0371 52000000 		.4byte	.LVL206
 5274 0375 56000000 		.4byte	.LVL207
 5275 0379 0200     		.2byte	0x2
 5276 037b 31       		.byte	0x31
 5277 037c 9F       		.byte	0x9f
 5278 037d 56000000 		.4byte	.LVL207
 5279 0381 66000000 		.4byte	.LVL209
 5280 0385 0100     		.2byte	0x1
 5281 0387 56       		.byte	0x56
 5282 0388 00000000 		.4byte	0
 5283 038c 00000000 		.4byte	0
 5284              	.LLST22:
 5285 0390 06000000 		.4byte	.LVL194
 5286 0394 1C000000 		.4byte	.LVL198
 5287 0398 0600     		.2byte	0x6
 5288 039a 54       		.byte	0x54
 5289 039b 93       		.byte	0x93
ARM GAS  C:\Users\ANDREW~1\AppData\Local\Temp\ccsv3i4f.s 			page 113


 5290 039c 04       		.uleb128 0x4
 5291 039d 55       		.byte	0x55
 5292 039e 93       		.byte	0x93
 5293 039f 04       		.uleb128 0x4
 5294 03a0 1E000000 		.4byte	.LVL199
 5295 03a4 66000000 		.4byte	.LVL209
 5296 03a8 0600     		.2byte	0x6
 5297 03aa 54       		.byte	0x54
 5298 03ab 93       		.byte	0x93
 5299 03ac 04       		.uleb128 0x4
 5300 03ad 55       		.byte	0x55
 5301 03ae 93       		.byte	0x93
 5302 03af 04       		.uleb128 0x4
 5303 03b0 00000000 		.4byte	0
 5304 03b4 00000000 		.4byte	0
 5305              	.LLST23:
 5306 03b8 02000000 		.4byte	.LVL214
 5307 03bc 08000000 		.4byte	.LVL215
 5308 03c0 0A00     		.2byte	0xa
 5309 03c2 9E       		.byte	0x9e
 5310 03c3 08       		.uleb128 0x8
 5311 03c4 00000000 		.4byte	0
 5312 03c8 00000000 		.4byte	0
 5313 03cc 08000000 		.4byte	.LVL215
 5314 03d0 60000000 		.4byte	.LVL227
 5315 03d4 0600     		.2byte	0x6
 5316 03d6 56       		.byte	0x56
 5317 03d7 93       		.byte	0x93
 5318 03d8 04       		.uleb128 0x4
 5319 03d9 57       		.byte	0x57
 5320 03da 93       		.byte	0x93
 5321 03db 04       		.uleb128 0x4
 5322 03dc 62000000 		.4byte	.LVL228
 5323 03e0 BE000000 		.4byte	.LVL239
 5324 03e4 0600     		.2byte	0x6
 5325 03e6 56       		.byte	0x56
 5326 03e7 93       		.byte	0x93
 5327 03e8 04       		.uleb128 0x4
 5328 03e9 57       		.byte	0x57
 5329 03ea 93       		.byte	0x93
 5330 03eb 04       		.uleb128 0x4
 5331 03ec 00000000 		.4byte	0
 5332 03f0 00000000 		.4byte	0
 5333              	.LLST24:
 5334 03f4 1C000000 		.4byte	.LVL219
 5335 03f8 B4000000 		.4byte	.LVL238
 5336 03fc 0600     		.2byte	0x6
 5337 03fe 54       		.byte	0x54
 5338 03ff 93       		.byte	0x93
 5339 0400 04       		.uleb128 0x4
 5340 0401 55       		.byte	0x55
 5341 0402 93       		.byte	0x93
 5342 0403 04       		.uleb128 0x4
 5343 0404 00000000 		.4byte	0
 5344 0408 00000000 		.4byte	0
 5345              		.section	.debug_aranges,"",%progbits
 5346 0000 FC000000 		.4byte	0xfc
ARM GAS  C:\Users\ANDREW~1\AppData\Local\Temp\ccsv3i4f.s 			page 114


 5347 0004 0200     		.2byte	0x2
 5348 0006 00000000 		.4byte	.Ldebug_info0
 5349 000a 04       		.byte	0x4
 5350 000b 00       		.byte	0
 5351 000c 0000     		.2byte	0
 5352 000e 0000     		.2byte	0
 5353 0010 00000000 		.4byte	.LFB63
 5354 0014 14000000 		.4byte	.LFE63-.LFB63
 5355 0018 00000000 		.4byte	.LFB64
 5356 001c 14000000 		.4byte	.LFE64-.LFB64
 5357 0020 00000000 		.4byte	.LFB65
 5358 0024 14000000 		.4byte	.LFE65-.LFB65
 5359 0028 00000000 		.4byte	.LFB66
 5360 002c 14000000 		.4byte	.LFE66-.LFB66
 5361 0030 00000000 		.4byte	.LFB67
 5362 0034 14000000 		.4byte	.LFE67-.LFB67
 5363 0038 00000000 		.4byte	.LFB88
 5364 003c 0C000000 		.4byte	.LFE88-.LFB88
 5365 0040 00000000 		.4byte	.LFB87
 5366 0044 1C000000 		.4byte	.LFE87-.LFB87
 5367 0048 00000000 		.4byte	.LFB69
 5368 004c 0C000000 		.4byte	.LFE69-.LFB69
 5369 0050 00000000 		.4byte	.LFB70
 5370 0054 0C000000 		.4byte	.LFE70-.LFB70
 5371 0058 00000000 		.4byte	.LFB71
 5372 005c 0C000000 		.4byte	.LFE71-.LFB71
 5373 0060 00000000 		.4byte	.LFB76
 5374 0064 10000000 		.4byte	.LFE76-.LFB76
 5375 0068 00000000 		.4byte	.LFB77
 5376 006c 10000000 		.4byte	.LFE77-.LFB77
 5377 0070 00000000 		.4byte	.LFB81
 5378 0074 20000000 		.4byte	.LFE81-.LFB81
 5379 0078 00000000 		.4byte	.LFB82
 5380 007c 68000000 		.4byte	.LFE82-.LFB82
 5381 0080 00000000 		.4byte	.LFB83
 5382 0084 1C000000 		.4byte	.LFE83-.LFB83
 5383 0088 00000000 		.4byte	.LFB84
 5384 008c 34000000 		.4byte	.LFE84-.LFB84
 5385 0090 00000000 		.4byte	.LFB86
 5386 0094 14000000 		.4byte	.LFE86-.LFB86
 5387 0098 00000000 		.4byte	.LFB85
 5388 009c 54000000 		.4byte	.LFE85-.LFB85
 5389 00a0 00000000 		.4byte	.LFB89
 5390 00a4 0C000000 		.4byte	.LFE89-.LFB89
 5391 00a8 00000000 		.4byte	.LFB91
 5392 00ac 88000000 		.4byte	.LFE91-.LFB91
 5393 00b0 00000000 		.4byte	.LFB90
 5394 00b4 24030000 		.4byte	.LFE90-.LFB90
 5395 00b8 00000000 		.4byte	.LFB80
 5396 00bc 1C000000 		.4byte	.LFE80-.LFB80
 5397 00c0 00000000 		.4byte	.LFB68
 5398 00c4 70010000 		.4byte	.LFE68-.LFB68
 5399 00c8 00000000 		.4byte	.LFB72
 5400 00cc 20010000 		.4byte	.LFE72-.LFB72
 5401 00d0 00000000 		.4byte	.LFB75
 5402 00d4 74000000 		.4byte	.LFE75-.LFB75
 5403 00d8 00000000 		.4byte	.LFB78
ARM GAS  C:\Users\ANDREW~1\AppData\Local\Temp\ccsv3i4f.s 			page 115


 5404 00dc 22000000 		.4byte	.LFE78-.LFB78
 5405 00e0 00000000 		.4byte	.LFB73
 5406 00e4 D8000000 		.4byte	.LFE73-.LFB73
 5407 00e8 00000000 		.4byte	.LFB74
 5408 00ec AC000000 		.4byte	.LFE74-.LFB74
 5409 00f0 00000000 		.4byte	.LFB79
 5410 00f4 18000000 		.4byte	.LFE79-.LFB79
 5411 00f8 00000000 		.4byte	0
 5412 00fc 00000000 		.4byte	0
 5413              		.section	.debug_ranges,"",%progbits
 5414              	.Ldebug_ranges0:
 5415 0000 42000000 		.4byte	.LBB6
 5416 0004 56000000 		.4byte	.LBE6
 5417 0008 58000000 		.4byte	.LBB7
 5418 000c DA000000 		.4byte	.LBE7
 5419 0010 00000000 		.4byte	0
 5420 0014 00000000 		.4byte	0
 5421 0018 00000000 		.4byte	.LFB63
 5422 001c 14000000 		.4byte	.LFE63
 5423 0020 00000000 		.4byte	.LFB64
 5424 0024 14000000 		.4byte	.LFE64
 5425 0028 00000000 		.4byte	.LFB65
 5426 002c 14000000 		.4byte	.LFE65
 5427 0030 00000000 		.4byte	.LFB66
 5428 0034 14000000 		.4byte	.LFE66
 5429 0038 00000000 		.4byte	.LFB67
 5430 003c 14000000 		.4byte	.LFE67
 5431 0040 00000000 		.4byte	.LFB88
 5432 0044 0C000000 		.4byte	.LFE88
 5433 0048 00000000 		.4byte	.LFB87
 5434 004c 1C000000 		.4byte	.LFE87
 5435 0050 00000000 		.4byte	.LFB69
 5436 0054 0C000000 		.4byte	.LFE69
 5437 0058 00000000 		.4byte	.LFB70
 5438 005c 0C000000 		.4byte	.LFE70
 5439 0060 00000000 		.4byte	.LFB71
 5440 0064 0C000000 		.4byte	.LFE71
 5441 0068 00000000 		.4byte	.LFB76
 5442 006c 10000000 		.4byte	.LFE76
 5443 0070 00000000 		.4byte	.LFB77
 5444 0074 10000000 		.4byte	.LFE77
 5445 0078 00000000 		.4byte	.LFB81
 5446 007c 20000000 		.4byte	.LFE81
 5447 0080 00000000 		.4byte	.LFB82
 5448 0084 68000000 		.4byte	.LFE82
 5449 0088 00000000 		.4byte	.LFB83
 5450 008c 1C000000 		.4byte	.LFE83
 5451 0090 00000000 		.4byte	.LFB84
 5452 0094 34000000 		.4byte	.LFE84
 5453 0098 00000000 		.4byte	.LFB86
 5454 009c 14000000 		.4byte	.LFE86
 5455 00a0 00000000 		.4byte	.LFB85
 5456 00a4 54000000 		.4byte	.LFE85
 5457 00a8 00000000 		.4byte	.LFB89
 5458 00ac 0C000000 		.4byte	.LFE89
 5459 00b0 00000000 		.4byte	.LFB91
 5460 00b4 88000000 		.4byte	.LFE91
ARM GAS  C:\Users\ANDREW~1\AppData\Local\Temp\ccsv3i4f.s 			page 116


 5461 00b8 00000000 		.4byte	.LFB90
 5462 00bc 24030000 		.4byte	.LFE90
 5463 00c0 00000000 		.4byte	.LFB80
 5464 00c4 1C000000 		.4byte	.LFE80
 5465 00c8 00000000 		.4byte	.LFB68
 5466 00cc 70010000 		.4byte	.LFE68
 5467 00d0 00000000 		.4byte	.LFB72
 5468 00d4 20010000 		.4byte	.LFE72
 5469 00d8 00000000 		.4byte	.LFB75
 5470 00dc 74000000 		.4byte	.LFE75
 5471 00e0 00000000 		.4byte	.LFB78
 5472 00e4 22000000 		.4byte	.LFE78
 5473 00e8 00000000 		.4byte	.LFB73
 5474 00ec D8000000 		.4byte	.LFE73
 5475 00f0 00000000 		.4byte	.LFB74
 5476 00f4 AC000000 		.4byte	.LFE74
 5477 00f8 00000000 		.4byte	.LFB79
 5478 00fc 18000000 		.4byte	.LFE79
 5479 0100 00000000 		.4byte	0
 5480 0104 00000000 		.4byte	0
 5481              		.section	.debug_line,"",%progbits
 5482              	.Ldebug_line0:
 5483 0000 C2060000 		.section	.debug_str,"MS",%progbits,1
 5483      0200DD02 
 5483      00000201 
 5483      FB0E0D00 
 5483      01010101 
 5484              	.LASF52:
 5485 0000 63686563 		.ascii	"check_second\000"
 5485      6B5F7365 
 5485      636F6E64 
 5485      00
 5486              	.LASF89:
 5487 000d 43794465 		.ascii	"CyDelay\000"
 5487      6C617900 
 5488              	.LASF18:
 5489 0015 62757474 		.ascii	"button2ISR\000"
 5489      6F6E3249 
 5489      535200
 5490              	.LASF51:
 5491 0020 70726576 		.ascii	"previous_second\000"
 5491      696F7573 
 5491      5F736563 
 5491      6F6E6400 
 5492              	.LASF134:
 5493 0030 6D61696E 		.ascii	"main.c\000"
 5493      2E6300
 5494              	.LASF39:
 5495 0037 64697370 		.ascii	"display_num\000"
 5495      6C61795F 
 5495      6E756D00 
 5496              	.LASF23:
 5497 0043 42757474 		.ascii	"Button_S2_Left\000"
 5497      6F6E5F53 
 5497      325F4C65 
 5497      667400
 5498              	.LASF110:
ARM GAS  C:\Users\ANDREW~1\AppData\Local\Temp\ccsv3i4f.s 			page 117


 5499 0052 6973725F 		.ascii	"isr_1_StartEx\000"
 5499      315F5374 
 5499      61727445 
 5499      7800
 5500              	.LASF64:
 5501 0060 7365675F 		.ascii	"seg_num\000"
 5501      6E756D00 
 5502              	.LASF29:
 5503 0068 63757272 		.ascii	"current_second\000"
 5503      656E745F 
 5503      7365636F 
 5503      6E6400
 5504              	.LASF61:
 5505 0077 74696D65 		.ascii	"time_passed_step\000"
 5505      5F706173 
 5505      7365645F 
 5505      73746570 
 5505      00
 5506              	.LASF9:
 5507 0088 756E7369 		.ascii	"unsigned int\000"
 5507      676E6564 
 5507      20696E74 
 5507      00
 5508              	.LASF72:
 5509 0095 636D5F6F 		.ascii	"cm_or_inch\000"
 5509      725F696E 
 5509      636800
 5510              	.LASF118:
 5511 00a0 54696D65 		.ascii	"Timer_1_SetInterruptMode\000"
 5511      725F315F 
 5511      53657449 
 5511      6E746572 
 5511      72757074 
 5512              	.LASF10:
 5513 00b9 5F5F696E 		.ascii	"__int32_t\000"
 5513      7433325F 
 5513      7400
 5514              	.LASF54:
 5515 00c3 666C6167 		.ascii	"flag_read\000"
 5515      5F726561 
 5515      6400
 5516              	.LASF70:
 5517 00cd 6D6F6465 		.ascii	"mode\000"
 5517      00
 5518              	.LASF20:
 5519 00d2 62757474 		.ascii	"button4ISR\000"
 5519      6F6E3449 
 5519      535200
 5520              	.LASF127:
 5521 00dd 45455052 		.ascii	"EEPROM_Start\000"
 5521      4F4D5F53 
 5521      74617274 
 5521      00
 5522              	.LASF32:
 5523 00ea 6E756D5F 		.ascii	"num_digits\000"
 5523      64696769 
 5523      747300
ARM GAS  C:\Users\ANDREW~1\AppData\Local\Temp\ccsv3i4f.s 			page 118


 5524              	.LASF114:
 5525 00f5 6973725F 		.ascii	"isr_5_StartEx\000"
 5525      355F5374 
 5525      61727445 
 5525      7800
 5526              	.LASF95:
 5527 0103 4469735F 		.ascii	"Dis_C_Write\000"
 5527      435F5772 
 5527      69746500 
 5528              	.LASF26:
 5529 010f 52656365 		.ascii	"Receive_Ultra\000"
 5529      6976655F 
 5529      556C7472 
 5529      6100
 5530              	.LASF13:
 5531 011d 666C6F61 		.ascii	"float\000"
 5531      7400
 5532              	.LASF78:
 5533 0123 636F756E 		.ascii	"count\000"
 5533      7400
 5534              	.LASF35:
 5535 0129 64757261 		.ascii	"duration\000"
 5535      74696F6E 
 5535      00
 5536              	.LASF84:
 5537 0132 4C454432 		.ascii	"LED2_Yellow_Write\000"
 5537      5F59656C 
 5537      6C6F775F 
 5537      57726974 
 5537      6500
 5538              	.LASF8:
 5539 0144 6C6F6E67 		.ascii	"long long unsigned int\000"
 5539      206C6F6E 
 5539      6720756E 
 5539      7369676E 
 5539      65642069 
 5540              	.LASF85:
 5541 015b 4C454433 		.ascii	"LED3_Green_Write\000"
 5541      5F477265 
 5541      656E5F57 
 5541      72697465 
 5541      00
 5542              	.LASF46:
 5543 016c 64696769 		.ascii	"digits\000"
 5543      747300
 5544              	.LASF49:
 5545 0173 73657475 		.ascii	"setup_previous_time\000"
 5545      705F7072 
 5545      6576696F 
 5545      75735F74 
 5545      696D6500 
 5546              	.LASF31:
 5547 0187 74696D65 		.ascii	"time\000"
 5547      00
 5548              	.LASF40:
 5549 018c 76616C75 		.ascii	"value\000"
 5549      6500
ARM GAS  C:\Users\ANDREW~1\AppData\Local\Temp\ccsv3i4f.s 			page 119


 5550              	.LASF102:
 5551 0192 4469735F 		.ascii	"Dis_D2_Write\000"
 5551      44325F57 
 5551      72697465 
 5551      00
 5552              	.LASF97:
 5553 019f 4469735F 		.ascii	"Dis_E_Write\000"
 5553      455F5772 
 5553      69746500 
 5554              	.LASF133:
 5555 01ab 474E5520 		.ascii	"GNU C11 5.4.1 20160609 (release) [ARM/embedded-5-br"
 5555      43313120 
 5555      352E342E 
 5555      31203230 
 5555      31363036 
 5556 01de 616E6368 		.ascii	"anch revision 237715] -mcpu=cortex-m3 -mthumb -g -O"
 5556      20726576 
 5556      6973696F 
 5556      6E203233 
 5556      37373135 
 5557 0211 67202D66 		.ascii	"g -ffunction-sections -ffat-lto-objects\000"
 5557      66756E63 
 5557      74696F6E 
 5557      2D736563 
 5557      74696F6E 
 5558              	.LASF36:
 5559 0239 42757A7A 		.ascii	"BuzzerRuntime\000"
 5559      65725275 
 5559      6E74696D 
 5559      6500
 5560              	.LASF60:
 5561 0247 636F756E 		.ascii	"counter\000"
 5561      74657200 
 5562              	.LASF115:
 5563 024f 6973725F 		.ascii	"isr_7Seg_ClearPending\000"
 5563      37536567 
 5563      5F436C65 
 5563      61725065 
 5563      6E64696E 
 5564              	.LASF129:
 5565 0265 55415254 		.ascii	"UART_1_PutString\000"
 5565      5F315F50 
 5565      75745374 
 5565      72696E67 
 5565      00
 5566              	.LASF48:
 5567 0276 72756E74 		.ascii	"runtime\000"
 5567      696D6500 
 5568              	.LASF121:
 5569 027e 4F70616D 		.ascii	"Opamp_1_Start\000"
 5569      705F315F 
 5569      53746172 
 5569      7400
 5570              	.LASF99:
 5571 028c 4469735F 		.ascii	"Dis_G_Write\000"
 5571      475F5772 
 5571      69746500 
ARM GAS  C:\Users\ANDREW~1\AppData\Local\Temp\ccsv3i4f.s 			page 120


 5572              	.LASF28:
 5573 0298 496D7065 		.ascii	"ImperialLedOn\000"
 5573      7269616C 
 5573      4C65644F 
 5573      6E00
 5574              	.LASF105:
 5575 02a6 6973725F 		.ascii	"isr_1_ClearPending\000"
 5575      315F436C 
 5575      65617250 
 5575      656E6469 
 5575      6E6700
 5576              	.LASF76:
 5577 02b9 72756E5F 		.ascii	"run_7_Seg\000"
 5577      375F5365 
 5577      6700
 5578              	.LASF116:
 5579 02c3 6973725F 		.ascii	"isr_7Seg_StartEx\000"
 5579      37536567 
 5579      5F537461 
 5579      72744578 
 5579      00
 5580              	.LASF14:
 5581 02d4 63686172 		.ascii	"char\000"
 5581      00
 5582              	.LASF27:
 5583 02d9 4D657472 		.ascii	"MetricLedOn\000"
 5583      69634C65 
 5583      644F6E00 
 5584              	.LASF77:
 5585 02e5 6F6C645F 		.ascii	"old_dis_val\000"
 5585      6469735F 
 5585      76616C00 
 5586              	.LASF104:
 5587 02f1 4469735F 		.ascii	"Dis_D4_Write\000"
 5587      44345F57 
 5587      72697465 
 5587      00
 5588              	.LASF55:
 5589 02fe 53696E67 		.ascii	"SingleButtonWait\000"
 5589      6C654275 
 5589      74746F6E 
 5589      57616974 
 5589      00
 5590              	.LASF17:
 5591 030f 62757474 		.ascii	"button1ISR\000"
 5591      6F6E3149 
 5591      535200
 5592              	.LASF37:
 5593 031a 74696D65 		.ascii	"time_diff\000"
 5593      5F646966 
 5593      6600
 5594              	.LASF91:
 5595 0324 436F6E74 		.ascii	"Control_Reg_1_Write\000"
 5595      726F6C5F 
 5595      5265675F 
 5595      315F5772 
 5595      69746500 
ARM GAS  C:\Users\ANDREW~1\AppData\Local\Temp\ccsv3i4f.s 			page 121


 5596              	.LASF62:
 5597 0338 70726576 		.ascii	"previous_buzz\000"
 5597      696F7573 
 5597      5F62757A 
 5597      7A00
 5598              	.LASF126:
 5599 0346 54696D65 		.ascii	"Timer_2_Start\000"
 5599      725F325F 
 5599      53746172 
 5599      7400
 5600              	.LASF87:
 5601 0354 54696D65 		.ascii	"Timer_2_ReadCounter\000"
 5601      725F325F 
 5601      52656164 
 5601      436F756E 
 5601      74657200 
 5602              	.LASF131:
 5603 0368 42757474 		.ascii	"Button_S5_Select_State_Read\000"
 5603      6F6E5F53 
 5603      355F5365 
 5603      6C656374 
 5603      5F537461 
 5604              	.LASF119:
 5605 0384 6973725F 		.ascii	"isr_6_StartEx\000"
 5605      365F5374 
 5605      61727445 
 5605      7800
 5606              	.LASF7:
 5607 0392 6C6F6E67 		.ascii	"long long int\000"
 5607      206C6F6E 
 5607      6720696E 
 5607      7400
 5608              	.LASF74:
 5609 03a0 76616C75 		.ascii	"value_text\000"
 5609      655F7465 
 5609      787400
 5610              	.LASF130:
 5611 03ab 45455052 		.ascii	"EEPROM_ReadByte\000"
 5611      4F4D5F52 
 5611      65616442 
 5611      79746500 
 5612              	.LASF81:
 5613 03bb 54696D65 		.ascii	"Timer_1_Stop\000"
 5613      725F315F 
 5613      53746F70 
 5613      00
 5614              	.LASF24:
 5615 03c8 42757474 		.ascii	"Button_S4_Right\000"
 5615      6F6E5F53 
 5615      345F5269 
 5615      67687400 
 5616              	.LASF25:
 5617 03d8 42757474 		.ascii	"Button_S5_Select\000"
 5617      6F6E5F53 
 5617      355F5365 
 5617      6C656374 
 5617      00
ARM GAS  C:\Users\ANDREW~1\AppData\Local\Temp\ccsv3i4f.s 			page 122


 5618              	.LASF41:
 5619 03e9 64726177 		.ascii	"draw_7Seg\000"
 5619      5F375365 
 5619      6700
 5620              	.LASF19:
 5621 03f3 62757474 		.ascii	"button3ISR\000"
 5621      6F6E3349 
 5621      535200
 5622              	.LASF43:
 5623 03fe 7365676D 		.ascii	"segmentPattern\000"
 5623      656E7450 
 5623      61747465 
 5623      726E00
 5624              	.LASF109:
 5625 040d 6973725F 		.ascii	"isr_5_ClearPending\000"
 5625      355F436C 
 5625      65617250 
 5625      656E6469 
 5625      6E6700
 5626              	.LASF90:
 5627 0420 42757A7A 		.ascii	"Buzzer_Write\000"
 5627      65725F57 
 5627      72697465 
 5627      00
 5628              	.LASF86:
 5629 042d 54696D65 		.ascii	"Timer_2_ReadPeriod\000"
 5629      725F325F 
 5629      52656164 
 5629      50657269 
 5629      6F6400
 5630              	.LASF124:
 5631 0440 436F756E 		.ascii	"Count7_1_Start\000"
 5631      74375F31 
 5631      5F537461 
 5631      727400
 5632              	.LASF15:
 5633 044f 6C6F6E67 		.ascii	"long double\000"
 5633      20646F75 
 5633      626C6500 
 5634              	.LASF112:
 5635 045b 6973725F 		.ascii	"isr_3_StartEx\000"
 5635      335F5374 
 5635      61727445 
 5635      7800
 5636              	.LASF108:
 5637 0469 6973725F 		.ascii	"isr_4_ClearPending\000"
 5637      345F436C 
 5637      65617250 
 5637      656E6469 
 5637      6E6700
 5638              	.LASF63:
 5639 047c 62757A7A 		.ascii	"buzz_duration\000"
 5639      5F647572 
 5639      6174696F 
 5639      6E00
 5640              	.LASF34:
 5641 048a 42757A7A 		.ascii	"BuzzerSound\000"
ARM GAS  C:\Users\ANDREW~1\AppData\Local\Temp\ccsv3i4f.s 			page 123


 5641      6572536F 
 5641      756E6400 
 5642              	.LASF94:
 5643 0496 4469735F 		.ascii	"Dis_B_Write\000"
 5643      425F5772 
 5643      69746500 
 5644              	.LASF117:
 5645 04a2 6973725F 		.ascii	"isr_6_ClearPending\000"
 5645      365F436C 
 5645      65617250 
 5645      656E6469 
 5645      6E6700
 5646              	.LASF96:
 5647 04b5 4469735F 		.ascii	"Dis_D_Write\000"
 5647      445F5772 
 5647      69746500 
 5648              	.LASF45:
 5649 04c1 64705F70 		.ascii	"dp_pos\000"
 5649      6F7300
 5650              	.LASF107:
 5651 04c8 6973725F 		.ascii	"isr_3_ClearPending\000"
 5651      335F436C 
 5651      65617250 
 5651      656E6469 
 5651      6E6700
 5652              	.LASF3:
 5653 04db 73686F72 		.ascii	"short int\000"
 5653      7420696E 
 5653      7400
 5654              	.LASF5:
 5655 04e5 6C6F6E67 		.ascii	"long int\000"
 5655      20696E74 
 5655      00
 5656              	.LASF59:
 5657 04ee 49544D5F 		.ascii	"ITM_RxBuffer\000"
 5657      52784275 
 5657      66666572 
 5657      00
 5658              	.LASF30:
 5659 04fb 7072696E 		.ascii	"print_uart\000"
 5659      745F7561 
 5659      727400
 5660              	.LASF73:
 5661 0506 64697374 		.ascii	"distance\000"
 5661      616E6365 
 5661      00
 5662              	.LASF106:
 5663 050f 6973725F 		.ascii	"isr_2_ClearPending\000"
 5663      325F436C 
 5663      65617250 
 5663      656E6469 
 5663      6E6700
 5664              	.LASF33:
 5665 0522 74656D70 		.ascii	"temp\000"
 5665      00
 5666              	.LASF65:
 5667 0527 62757474 		.ascii	"button1\000"
ARM GAS  C:\Users\ANDREW~1\AppData\Local\Temp\ccsv3i4f.s 			page 124


 5667      6F6E3100 
 5668              	.LASF66:
 5669 052f 62757474 		.ascii	"button2\000"
 5669      6F6E3200 
 5670              	.LASF67:
 5671 0537 62757474 		.ascii	"button3\000"
 5671      6F6E3300 
 5672              	.LASF68:
 5673 053f 62757474 		.ascii	"button4\000"
 5673      6F6E3400 
 5674              	.LASF69:
 5675 0547 62757474 		.ascii	"button5\000"
 5675      6F6E3500 
 5676              	.LASF101:
 5677 054f 4469735F 		.ascii	"Dis_D1_Write\000"
 5677      44315F57 
 5677      72697465 
 5677      00
 5678              	.LASF111:
 5679 055c 6973725F 		.ascii	"isr_2_StartEx\000"
 5679      325F5374 
 5679      61727445 
 5679      7800
 5680              	.LASF135:
 5681 056a 443A5C4D 		.ascii	"D:\\Monash\\Y3S2\\TRC3500\\TRC3500-Lab\\Project 3 U"
 5681      6F6E6173 
 5681      685C5933 
 5681      53325C54 
 5681      52433335 
 5682 0598 6C747261 		.ascii	"ltrasonic Distance Meter-20240427\\Project3_Ultraso"
 5682      736F6E69 
 5682      63204469 
 5682      7374616E 
 5682      6365204D 
 5683 05ca 6E69635C 		.ascii	"nic\\7Seg_Display.cydsn\000"
 5683      37536567 
 5683      5F446973 
 5683      706C6179 
 5683      2E637964 
 5684              	.LASF21:
 5685 05e1 62757474 		.ascii	"button5ISR\000"
 5685      6F6E3549 
 5685      535200
 5686              	.LASF42:
 5687 05ec 6E756D62 		.ascii	"number\000"
 5687      657200
 5688              	.LASF128:
 5689 05f3 55415254 		.ascii	"UART_1_Start\000"
 5689      5F315F53 
 5689      74617274 
 5689      00
 5690              	.LASF57:
 5691 0600 6D6F6465 		.ascii	"mode_2\000"
 5691      5F3200
 5692              	.LASF16:
 5693 0607 73697A65 		.ascii	"sizetype\000"
 5693      74797065 
ARM GAS  C:\Users\ANDREW~1\AppData\Local\Temp\ccsv3i4f.s 			page 125


 5693      00
 5694              	.LASF6:
 5695 0610 6C6F6E67 		.ascii	"long unsigned int\000"
 5695      20756E73 
 5695      69676E65 
 5695      6420696E 
 5695      7400
 5696              	.LASF98:
 5697 0622 4469735F 		.ascii	"Dis_F_Write\000"
 5697      465F5772 
 5697      69746500 
 5698              	.LASF11:
 5699 062e 696E7433 		.ascii	"int32_t\000"
 5699      325F7400 
 5700              	.LASF100:
 5701 0636 4469735F 		.ascii	"Dis_DP_Write\000"
 5701      44505F57 
 5701      72697465 
 5701      00
 5702              	.LASF44:
 5703 0643 7365675F 		.ascii	"seg_runtime\000"
 5703      72756E74 
 5703      696D6500 
 5704              	.LASF88:
 5705 064f 55415254 		.ascii	"UART_1_WriteTxData\000"
 5705      5F315F57 
 5705      72697465 
 5705      54784461 
 5705      746100
 5706              	.LASF122:
 5707 0662 436F6D70 		.ascii	"Comp_1_Start\000"
 5707      5F315F53 
 5707      74617274 
 5707      00
 5708              	.LASF2:
 5709 066f 756E7369 		.ascii	"unsigned char\000"
 5709      676E6564 
 5709      20636861 
 5709      7200
 5710              	.LASF80:
 5711 067d 7365676D 		.ascii	"segmentPattern_array\000"
 5711      656E7450 
 5711      61747465 
 5711      726E5F61 
 5711      72726179 
 5712              	.LASF75:
 5713 0692 496E7465 		.ascii	"InterruptCnt\000"
 5713      72727570 
 5713      74436E74 
 5713      00
 5714              	.LASF50:
 5715 069f 6D6F6465 		.ascii	"mode_0\000"
 5715      5F3000
 5716              	.LASF56:
 5717 06a6 6D6F6465 		.ascii	"mode_1\000"
 5717      5F3100
 5718              	.LASF38:
ARM GAS  C:\Users\ANDREW~1\AppData\Local\Temp\ccsv3i4f.s 			page 126


 5719 06ad 756C7472 		.ascii	"ultra_reading\000"
 5719      615F7265 
 5719      6164696E 
 5719      6700
 5720              	.LASF53:
 5721 06bb 6D6F6465 		.ascii	"mode_3\000"
 5721      5F3300
 5722              	.LASF71:
 5723 06c2 67726F75 		.ascii	"group_num\000"
 5723      705F6E75 
 5723      6D00
 5724              	.LASF103:
 5725 06cc 4469735F 		.ascii	"Dis_D3_Write\000"
 5725      44335F57 
 5725      72697465 
 5725      00
 5726              	.LASF93:
 5727 06d9 4469735F 		.ascii	"Dis_A_Write\000"
 5727      415F5772 
 5727      69746500 
 5728              	.LASF132:
 5729 06e5 45455052 		.ascii	"EEPROM_WriteByte\000"
 5729      4F4D5F57 
 5729      72697465 
 5729      42797465 
 5729      00
 5730              	.LASF47:
 5731 06f6 73656E64 		.ascii	"send_ultra_pulse\000"
 5731      5F756C74 
 5731      72615F70 
 5731      756C7365 
 5731      00
 5732              	.LASF120:
 5733 0707 5047415F 		.ascii	"PGA_1_Start\000"
 5733      315F5374 
 5733      61727400 
 5734              	.LASF92:
 5735 0713 54696D65 		.ascii	"Timer_1_Start\000"
 5735      725F315F 
 5735      53746172 
 5735      7400
 5736              	.LASF1:
 5737 0721 7369676E 		.ascii	"signed char\000"
 5737      65642063 
 5737      68617200 
 5738              	.LASF82:
 5739 072d 54696D65 		.ascii	"Timer_1_ReadPeriod\000"
 5739      725F315F 
 5739      52656164 
 5739      50657269 
 5739      6F6400
 5740              	.LASF113:
 5741 0740 6973725F 		.ascii	"isr_4_StartEx\000"
 5741      345F5374 
 5741      61727445 
 5741      7800
 5742              	.LASF4:
ARM GAS  C:\Users\ANDREW~1\AppData\Local\Temp\ccsv3i4f.s 			page 127


 5743 074e 73686F72 		.ascii	"short unsigned int\000"
 5743      7420756E 
 5743      7369676E 
 5743      65642069 
 5743      6E7400
 5744              	.LASF125:
 5745 0761 54696D65 		.ascii	"Timer_2_SetInterruptMode\000"
 5745      725F325F 
 5745      53657449 
 5745      6E746572 
 5745      72757074 
 5746              	.LASF136:
 5747 077a 6D61696E 		.ascii	"main\000"
 5747      00
 5748              	.LASF58:
 5749 077f 446F7562 		.ascii	"DoubleButtonWait\000"
 5749      6C654275 
 5749      74746F6E 
 5749      57616974 
 5749      00
 5750              	.LASF12:
 5751 0790 75696E74 		.ascii	"uint8\000"
 5751      3800
 5752              	.LASF0:
 5753 0796 646F7562 		.ascii	"double\000"
 5753      6C6500
 5754              	.LASF123:
 5755 079d 56444143 		.ascii	"VDAC8_1_Start\000"
 5755      385F315F 
 5755      53746172 
 5755      7400
 5756              	.LASF83:
 5757 07ab 54696D65 		.ascii	"Timer_1_ReadCounter\000"
 5757      725F315F 
 5757      52656164 
 5757      436F756E 
 5757      74657200 
 5758              	.LASF79:
 5759 07bf 63686172 		.ascii	"charLookup\000"
 5759      4C6F6F6B 
 5759      757000
 5760              	.LASF22:
 5761 07ca 73656737 		.ascii	"seg7_ISR\000"
 5761      5F495352 
 5761      00
 5762              		.ident	"GCC: (GNU Tools for ARM Embedded Processors) 5.4.1 20160609 (release) [ARM/embedded-5-bran
